---
triple:          'arm64-apple-darwin'
binary-path:     '/Users/tarabakz25/Downloads/KyogiProcon/memo'
relocations:
  - { offsetInCU: 0x1C0E3, offset: 0x1C0E3, size: 0x8, addend: 0x0, symName: __ZStL8__ioinit, symObjAddr: 0x7C378, symBinAddr: 0x100008000, symSize: 0x0 }
  - { offsetInCU: 0x1C8A8, offset: 0x1C8A8, size: 0x8, addend: 0x0, symName: __ZNSt10_Head_baseILm0EOSt4pairIiiELb0EE7_M_headERS3_, symObjAddr: 0x1958, symBinAddr: 0x1000023AC, symSize: 0x18 }
  - { offsetInCU: 0x1C8D1, offset: 0x1C8D1, size: 0x8, addend: 0x0, symName: __ZNSt11_Tuple_implILm0EJOSt4pairIiiEEE7_M_headERS3_, symObjAddr: 0x193C, symBinAddr: 0x100002390, symSize: 0x1C }
  - { offsetInCU: 0x1C8FB, offset: 0x1C8FB, size: 0x8, addend: 0x0, symName: __ZSt12__get_helperILm0EOSt4pairIiiEJEERT0_RSt11_Tuple_implIXT_EJS3_DpT1_EE, symObjAddr: 0x1920, symBinAddr: 0x100002374, symSize: 0x1C }
  - { offsetInCU: 0x1C943, offset: 0x1C943, size: 0x8, addend: 0x0, symName: __ZSt7forwardIOSt4pairIiiEEOT_RNSt16remove_referenceIS3_E4typeE, symObjAddr: 0x190C, symBinAddr: 0x100002360, symSize: 0x14 }
  - { offsetInCU: 0x1C975, offset: 0x1C975, size: 0x8, addend: 0x0, symName: __ZSt3getILm0EJOSt4pairIiiEEERNSt13tuple_elementIXT_ESt5tupleIJDpT0_EEE4typeERS7_, symObjAddr: 0x18F0, symBinAddr: 0x100002344, symSize: 0x1C }
  - { offsetInCU: 0x1CA8E, offset: 0x1CA8E, size: 0x8, addend: 0x0, symName: __ZNSt4pairIKS_IiiEiEC1IJOS0_EJLm0EEJEJEEERSt5tupleIJDpT_EERS5_IJDpT1_EESt12_Index_tupleIJXspT0_EEESE_IJXspT2_EEE, symObjAddr: 0x18A4, symBinAddr: 0x1000022F8, symSize: 0x4C }
  - { offsetInCU: 0x1CB32, offset: 0x1CB32, size: 0x8, addend: 0x0, symName: __ZNSt4pairIKS_IiiEiEC1IJOS0_EJEEESt21piecewise_construct_tSt5tupleIJDpT_EES6_IJDpT0_EE, symObjAddr: 0x1868, symBinAddr: 0x1000022BC, symSize: 0x3C }
  - { offsetInCU: 0x1CB83, offset: 0x1CB83, size: 0x8, addend: 0x0, symName: __ZNSt11_Tuple_implILm0EJOSt4pairIiiEEEC2EOS3_, symObjAddr: 0x1840, symBinAddr: 0x100002294, symSize: 0x28 }
  - { offsetInCU: 0x1CB8D, offset: 0x1CB8D, size: 0x8, addend: 0x0, symName: __ZNK9__gnu_cxx16__aligned_membufISt4pairIKS1_IiiEiEE7_M_addrEv, symObjAddr: 0x182C, symBinAddr: 0x100002280, symSize: 0x14 }
  - { offsetInCU: 0x1CC57, offset: 0x1CC57, size: 0x8, addend: 0x0, symName: __ZNSt5tupleIJOSt4pairIiiEEEC1EOS3_, symObjAddr: 0x1804, symBinAddr: 0x100002258, symSize: 0x28 }
  - { offsetInCU: 0x1CC67, offset: 0x1CC67, size: 0x8, addend: 0x0, symName: __ZNSt15__new_allocatorISt13_Rb_tree_nodeISt4pairIKS1_IiiEiEEE8allocateEmPKv, symObjAddr: 0x1774, symBinAddr: 0x1000021C8, symSize: 0x90 }
  - { offsetInCU: 0x1CCF3, offset: 0x1CCF3, size: 0x8, addend: 0x0, symName: __ZNK9__gnu_cxx16__aligned_membufISt4pairIKS1_IiiEiEE6_M_ptrEv, symObjAddr: 0x1758, symBinAddr: 0x1000021AC, symSize: 0x1C }
  - { offsetInCU: 0x1CD25, offset: 0x1CD25, size: 0x8, addend: 0x0, symName: __ZSt7forwardIRPSt13_Rb_tree_nodeISt4pairIKS1_IiiEiEEEOT_RNSt16remove_referenceIS8_E4typeE, symObjAddr: 0x1744, symBinAddr: 0x100002198, symSize: 0x14 }
  - { offsetInCU: 0x1CDD7, offset: 0x1CDD7, size: 0x8, addend: 0x0, symName: __ZNSt15__new_allocatorISt13_Rb_tree_nodeISt4pairIKS1_IiiEiEEE10deallocateEPS5_m, symObjAddr: 0x1708, symBinAddr: 0x10000215C, symSize: 0x3C }
  - { offsetInCU: 0x1CE4D, offset: 0x1CE4D, size: 0x8, addend: 0x0, symName: __ZNKSt10_Select1stISt4pairIKS0_IiiEiEEclERKS3_, symObjAddr: 0x16F0, symBinAddr: 0x100002144, symSize: 0x18 }
  - { offsetInCU: 0x1CE88, offset: 0x1CE88, size: 0x8, addend: 0x0, symName: __ZNKSt13_Rb_tree_nodeISt4pairIKS0_IiiEiEE9_M_valptrEv, symObjAddr: 0x16D0, symBinAddr: 0x100002124, symSize: 0x20 }
  - { offsetInCU: 0x1CEB4, offset: 0x1CEB4, size: 0x8, addend: 0x0, symName: __ZSt7forwardIRPSt18_Rb_tree_node_baseEOT_RNSt16remove_referenceIS3_E4typeE, symObjAddr: 0x16BC, symBinAddr: 0x100002110, symSize: 0x14 }
  - { offsetInCU: 0x1CF8A, offset: 0x1CF8A, size: 0x8, addend: 0x0, symName: __ZNSt4pairIPSt18_Rb_tree_node_baseS1_EC1IRPSt13_Rb_tree_nodeIS_IKS_IiiEiEERS1_Lb1EEEOT_OT0_, symObjAddr: 0x1674, symBinAddr: 0x1000020C8, symSize: 0x48 }
  - { offsetInCU: 0x1CF7C, offset: 0x1CF7C, size: 0x8, addend: 0x0, symName: __ZNSt8_Rb_treeISt4pairIiiES0_IKS1_iESt10_Select1stIS3_ESt4lessIS1_ESaIS3_EE17_M_construct_nodeIJRKSt21piecewise_construct_tSt5tupleIJOS1_EESE_IJEEEEEvPSt13_Rb_tree_nodeIS3_EDpOT_, symObjAddr: 0x14F8, symBinAddr: 0x100001F4C, symSize: 0x17C }
  - { offsetInCU: 0x1D07D, offset: 0x1D07D, size: 0x8, addend: 0x0, symName: __ZNSt8_Rb_treeISt4pairIiiES0_IKS1_iESt10_Select1stIS3_ESt4lessIS1_ESaIS3_EE11_M_get_nodeEv, symObjAddr: 0x14BC, symBinAddr: 0x100001F10, symSize: 0x3C }
  - { offsetInCU: 0x1D133, offset: 0x1D133, size: 0x8, addend: 0x0, symName: __ZNSt10_Head_baseILm0EOSt4pairIiiELb0EEC2IS1_EEOT_, symObjAddr: 0x148C, symBinAddr: 0x100001EE0, symSize: 0x30 }
  - { offsetInCU: 0x1D19B, offset: 0x1D19B, size: 0x8, addend: 0x0, symName: __ZNSt8_Rb_treeISt4pairIiiES0_IKS1_iESt10_Select1stIS3_ESt4lessIS1_ESaIS3_EE21_M_get_Node_allocatorEv, symObjAddr: 0x1478, symBinAddr: 0x100001ECC, symSize: 0x14 }
  - { offsetInCU: 0x1D1CA, offset: 0x1D1CA, size: 0x8, addend: 0x0, symName: __ZN9__gnu_cxx16__aligned_membufISt4pairIKS1_IiiEiEE7_M_addrEv, symObjAddr: 0x1464, symBinAddr: 0x100001EB8, symSize: 0x14 }
  - { offsetInCU: 0x1D1F3, offset: 0x1D1F3, size: 0x8, addend: 0x0, symName: __ZNSt8_Rb_treeISt4pairIiiES0_IKS1_iESt10_Select1stIS3_ESt4lessIS1_ESaIS3_EE14_M_insert_nodeEPSt18_Rb_tree_node_baseSB_PSt13_Rb_tree_nodeIS3_E, symObjAddr: 0x1394, symBinAddr: 0x100001DE8, symSize: 0xD0 }
  - { offsetInCU: 0x1D25D, offset: 0x1D25D, size: 0x8, addend: 0x0, symName: __ZNSt8_Rb_treeISt4pairIiiES0_IKS1_iESt10_Select1stIS3_ESt4lessIS1_ESaIS3_EE6_S_keyEPKSt13_Rb_tree_nodeIS3_E, symObjAddr: 0x136C, symBinAddr: 0x100001DC0, symSize: 0x28 }
  - { offsetInCU: 0x1D28B, offset: 0x1D28B, size: 0x8, addend: 0x0, symName: __ZNSt17_Rb_tree_iteratorISt4pairIKS0_IiiEiEEmmEv, symObjAddr: 0x133C, symBinAddr: 0x100001D90, symSize: 0x30 }
  - { offsetInCU: 0x1D337, offset: 0x1D337, size: 0x8, addend: 0x0, symName: __ZNSt4pairIPSt18_Rb_tree_node_baseS1_EC1IRS1_S4_Lb1EEEOT_OT0_, symObjAddr: 0x12F4, symBinAddr: 0x100001D48, symSize: 0x48 }
  - { offsetInCU: 0x1D347, offset: 0x1D347, size: 0x8, addend: 0x0, symName: __ZNSt8_Rb_treeISt4pairIiiES0_IKS1_iESt10_Select1stIS3_ESt4lessIS1_ESaIS3_EE11_M_leftmostEv, symObjAddr: 0x12DC, symBinAddr: 0x100001D30, symSize: 0x18 }
  - { offsetInCU: 0x1D371, offset: 0x1D371, size: 0x8, addend: 0x0, symName: __ZNSt8_Rb_treeISt4pairIiiES0_IKS1_iESt10_Select1stIS3_ESt4lessIS1_ESaIS3_EE24_M_get_insert_unique_posERS2_, symObjAddr: 0x1184, symBinAddr: 0x100001BD8, symSize: 0x158 }
  - { offsetInCU: 0x1D477, offset: 0x1D477, size: 0x8, addend: 0x0, symName: __ZNSt4pairIPSt18_Rb_tree_node_baseS1_EC1IS1_S1_Lb1EEERKS1_S5_, symObjAddr: 0x1148, symBinAddr: 0x100001B9C, symSize: 0x3C }
  - { offsetInCU: 0x1D483, offset: 0x1D483, size: 0x8, addend: 0x0, symName: __ZNSt8_Rb_treeISt4pairIiiES0_IKS1_iESt10_Select1stIS3_ESt4lessIS1_ESaIS3_EE6_S_keyEPKSt18_Rb_tree_node_base, symObjAddr: 0x112C, symBinAddr: 0x100001B80, symSize: 0x1C }
  - { offsetInCU: 0x1D4B1, offset: 0x1D4B1, size: 0x8, addend: 0x0, symName: __ZNSt8_Rb_treeISt4pairIiiES0_IKS1_iESt10_Select1stIS3_ESt4lessIS1_ESaIS3_EE12_M_rightmostEv, symObjAddr: 0x1114, symBinAddr: 0x100001B68, symSize: 0x18 }
  - { offsetInCU: 0x1D4DB, offset: 0x1D4DB, size: 0x8, addend: 0x0, symName: __ZNKSt8_Rb_treeISt4pairIiiES0_IKS1_iESt10_Select1stIS3_ESt4lessIS1_ESaIS3_EE4sizeEv, symObjAddr: 0x10FC, symBinAddr: 0x100001B50, symSize: 0x18 }
  - { offsetInCU: 0x1D505, offset: 0x1D505, size: 0x8, addend: 0x0, symName: __ZNKSt23_Rb_tree_const_iteratorISt4pairIKS0_IiiEiEE13_M_const_castEv, symObjAddr: 0x10D4, symBinAddr: 0x100001B28, symSize: 0x28 }
  - { offsetInCU: 0x1D52F, offset: 0x1D52F, size: 0x8, addend: 0x0, symName: __ZNSt8_Rb_treeISt4pairIiiES0_IKS1_iESt10_Select1stIS3_ESt4lessIS1_ESaIS3_EE14_M_create_nodeIJRKSt21piecewise_construct_tSt5tupleIJOS1_EESE_IJEEEEEPSt13_Rb_tree_nodeIS3_EDpOT_, symObjAddr: 0x1064, symBinAddr: 0x100001AB8, symSize: 0x70 }
  - { offsetInCU: 0x1D600, offset: 0x1D600, size: 0x8, addend: 0x0, symName: __ZNSt11_Tuple_implILm0EJOSt4pairIiiEEEC2IS1_EEOT_, symObjAddr: 0x1028, symBinAddr: 0x100001A7C, symSize: 0x3C }
  - { offsetInCU: 0x1D60A, offset: 0x1D60A, size: 0x8, addend: 0x0, symName: __ZNSt8_Rb_treeISt4pairIiiES0_IKS1_iESt10_Select1stIS3_ESt4lessIS1_ESaIS3_EE14_M_lower_boundEPSt13_Rb_tree_nodeIS3_EPSt18_Rb_tree_node_baseRS2_, symObjAddr: 0xF8C, symBinAddr: 0x1000019E0, symSize: 0x9C }
  - { offsetInCU: 0x1D667, offset: 0x1D667, size: 0x8, addend: 0x0, symName: __ZNSt8_Rb_treeISt4pairIiiES0_IKS1_iESt10_Select1stIS3_ESt4lessIS1_ESaIS3_EE6_M_endEv, symObjAddr: 0xF74, symBinAddr: 0x1000019C8, symSize: 0x18 }
  - { offsetInCU: 0x1D691, offset: 0x1D691, size: 0x8, addend: 0x0, symName: __ZNSt8_Rb_treeISt4pairIiiES0_IKS1_iESt10_Select1stIS3_ESt4lessIS1_ESaIS3_EE11_M_put_nodeEPSt13_Rb_tree_nodeIS3_E, symObjAddr: 0xF28, symBinAddr: 0x10000197C, symSize: 0x4C }
  - { offsetInCU: 0x1D702, offset: 0x1D702, size: 0x8, addend: 0x0, symName: __ZNSt8_Rb_treeISt4pairIiiES0_IKS1_iESt10_Select1stIS3_ESt4lessIS1_ESaIS3_EE15_M_destroy_nodeEPSt13_Rb_tree_nodeIS3_E, symObjAddr: 0xED0, symBinAddr: 0x100001924, symSize: 0x58 }
  - { offsetInCU: 0x1D797, offset: 0x1D797, size: 0x8, addend: 0x0, symName: __ZN9__gnu_cxx16__aligned_membufISt4pairIKS1_IiiEiEE6_M_ptrEv, symObjAddr: 0xEB4, symBinAddr: 0x100001908, symSize: 0x1C }
  - { offsetInCU: 0x1D82C, offset: 0x1D82C, size: 0x8, addend: 0x0, symName: __ZNSt17_Rb_tree_iteratorISt4pairIKS0_IiiEiEEC1EPSt18_Rb_tree_node_base, symObjAddr: 0xE90, symBinAddr: 0x1000018E4, symSize: 0x24 }
  - { offsetInCU: 0x1D818, offset: 0x1D818, size: 0x8, addend: 0x0, symName: __ZNSt8_Rb_treeISt4pairIiiES0_IKS1_iESt10_Select1stIS3_ESt4lessIS1_ESaIS3_EE10_Auto_node9_M_insertES0_IPSt18_Rb_tree_node_baseSC_E, symObjAddr: 0xE44, symBinAddr: 0x100001898, symSize: 0x4C }
  - { offsetInCU: 0x1D864, offset: 0x1D864, size: 0x8, addend: 0x0, symName: __ZNKSt8_Rb_treeISt4pairIiiES0_IKS1_iESt10_Select1stIS3_ESt4lessIS1_ESaIS3_EE10_Auto_node6_M_keyEv, symObjAddr: 0xE24, symBinAddr: 0x100001878, symSize: 0x20 }
  - { offsetInCU: 0x1D88E, offset: 0x1D88E, size: 0x8, addend: 0x0, symName: __ZNSt8_Rb_treeISt4pairIiiES0_IKS1_iESt10_Select1stIS3_ESt4lessIS1_ESaIS3_EE29_M_get_insert_hint_unique_posESt23_Rb_tree_const_iteratorIS3_ERS2_, symObjAddr: 0xB00, symBinAddr: 0x100001554, symSize: 0x324 }
  - { offsetInCU: 0x1D9B5, offset: 0x1D9B5, size: 0x8, addend: 0x0, symName: __ZNSt8_Rb_treeISt4pairIiiES0_IKS1_iESt10_Select1stIS3_ESt4lessIS1_ESaIS3_EE10_Auto_nodeD1Ev, symObjAddr: 0xABC, symBinAddr: 0x100001510, symSize: 0x44 }
  - { offsetInCU: 0x1DA6C, offset: 0x1DA6C, size: 0x8, addend: 0x0, symName: __ZNSt8_Rb_treeISt4pairIiiES0_IKS1_iESt10_Select1stIS3_ESt4lessIS1_ESaIS3_EE10_Auto_nodeC1IJRKSt21piecewise_construct_tSt5tupleIJOS1_EESF_IJEEEEERS9_DpOT_, symObjAddr: 0xA40, symBinAddr: 0x100001494, symSize: 0x7C }
  - { offsetInCU: 0x1DA3E, offset: 0x1DA3E, size: 0x8, addend: 0x0, symName: __ZSt7forwardISt5tupleIJEEEOT_RNSt16remove_referenceIS2_E4typeE, symObjAddr: 0xA2C, symBinAddr: 0x100001480, symSize: 0x14 }
  - { offsetInCU: 0x1DA76, offset: 0x1DA76, size: 0x8, addend: 0x0, symName: __ZSt7forwardISt5tupleIJOSt4pairIiiEEEEOT_RNSt16remove_referenceIS5_E4typeE, symObjAddr: 0xA18, symBinAddr: 0x10000146C, symSize: 0x14 }
  - { offsetInCU: 0x1DAAE, offset: 0x1DAAE, size: 0x8, addend: 0x0, symName: __ZSt7forwardIRKSt21piecewise_construct_tEOT_RNSt16remove_referenceIS3_E4typeE, symObjAddr: 0xA04, symBinAddr: 0x100001458, symSize: 0x14 }
  - { offsetInCU: 0x1DB4E, offset: 0x1DB4E, size: 0x8, addend: 0x0, symName: __ZNSt5tupleIJOSt4pairIiiEEEC1IJS1_ELb1ELb1EEEDpOT_, symObjAddr: 0x9C8, symBinAddr: 0x10000141C, symSize: 0x3C }
  - { offsetInCU: 0x1DB6C, offset: 0x1DB6C, size: 0x8, addend: 0x0, symName: __ZSt7forwardISt4pairIiiEEOT_RNSt16remove_referenceIS2_E4typeE, symObjAddr: 0x9B4, symBinAddr: 0x100001408, symSize: 0x14 }
  - { offsetInCU: 0x1DB9E, offset: 0x1DB9E, size: 0x8, addend: 0x0, symName: __ZStltIiiEbRKSt4pairIT_T0_ES5_, symObjAddr: 0x94C, symBinAddr: 0x1000013A0, symSize: 0x68 }
  - { offsetInCU: 0x1DBEF, offset: 0x1DBEF, size: 0x8, addend: 0x0, symName: __ZNKSt8_Rb_treeISt4pairIiiES0_IKS1_iESt10_Select1stIS3_ESt4lessIS1_ESaIS3_EE8key_compEv, symObjAddr: 0x934, symBinAddr: 0x100001388, symSize: 0x18 }
  - { offsetInCU: 0x1DC19, offset: 0x1DC19, size: 0x8, addend: 0x0, symName: __ZNSt8_Rb_treeISt4pairIiiES0_IKS1_iESt10_Select1stIS3_ESt4lessIS1_ESaIS3_EE11lower_boundERS2_, symObjAddr: 0x8EC, symBinAddr: 0x100001340, symSize: 0x48 }
  - { offsetInCU: 0x1DC54, offset: 0x1DC54, size: 0x8, addend: 0x0, symName: __ZNKSt8_Rb_treeISt4pairIiiES0_IKS1_iESt10_Select1stIS3_ESt4lessIS1_ESaIS3_EE9_M_mbeginEv, symObjAddr: 0x8D4, symBinAddr: 0x100001328, symSize: 0x18 }
  - { offsetInCU: 0x1DC7E, offset: 0x1DC7E, size: 0x8, addend: 0x0, symName: __ZNSt8_Rb_treeISt4pairIiiES0_IKS1_iESt10_Select1stIS3_ESt4lessIS1_ESaIS3_EE12_M_drop_nodeEPSt13_Rb_tree_nodeIS3_E, symObjAddr: 0x8A0, symBinAddr: 0x1000012F4, symSize: 0x34 }
  - { offsetInCU: 0x1DCB5, offset: 0x1DCB5, size: 0x8, addend: 0x0, symName: __ZNSt8_Rb_treeISt4pairIiiES0_IKS1_iESt10_Select1stIS3_ESt4lessIS1_ESaIS3_EE7_S_leftEPSt18_Rb_tree_node_base, symObjAddr: 0x888, symBinAddr: 0x1000012DC, symSize: 0x18 }
  - { offsetInCU: 0x1DCDF, offset: 0x1DCDF, size: 0x8, addend: 0x0, symName: __ZNSt8_Rb_treeISt4pairIiiES0_IKS1_iESt10_Select1stIS3_ESt4lessIS1_ESaIS3_EE8_S_rightEPSt18_Rb_tree_node_base, symObjAddr: 0x870, symBinAddr: 0x1000012C4, symSize: 0x18 }
  - { offsetInCU: 0x1DD23, offset: 0x1DD23, size: 0x8, addend: 0x0, symName: __ZNSt13_Rb_tree_nodeISt4pairIKS0_IiiEiEE9_M_valptrEv, symObjAddr: 0x850, symBinAddr: 0x1000012A4, symSize: 0x20 }
  - { offsetInCU: 0x1DD4D, offset: 0x1DD4D, size: 0x8, addend: 0x0, symName: __ZNSt8_Rb_treeISt4pairIiiES0_IKS1_iESt10_Select1stIS3_ESt4lessIS1_ESaIS3_EE3endEv, symObjAddr: 0x828, symBinAddr: 0x10000127C, symSize: 0x28 }
  - { offsetInCU: 0x1DD77, offset: 0x1DD77, size: 0x8, addend: 0x0, symName: __ZNSt8_Rb_treeISt4pairIiiES0_IKS1_iESt10_Select1stIS3_ESt4lessIS1_ESaIS3_EE5beginEv, symObjAddr: 0x800, symBinAddr: 0x100001254, symSize: 0x28 }
  - { offsetInCU: 0x1DDA1, offset: 0x1DDA1, size: 0x8, addend: 0x0, symName: __ZNSt8_Rb_treeISt4pairIiiES0_IKS1_iESt10_Select1stIS3_ESt4lessIS1_ESaIS3_EE22_M_emplace_hint_uniqueIJRKSt21piecewise_construct_tSt5tupleIJOS1_EESE_IJEEEEESt17_Rb_tree_iteratorIS3_ESt23_Rb_tree_const_iteratorIS3_EDpOT_, symObjAddr: 0x728, symBinAddr: 0x10000117C, symSize: 0xD8 }
  - { offsetInCU: 0x1DEAE, offset: 0x1DEAE, size: 0x8, addend: 0x0, symName: __ZNSt23_Rb_tree_const_iteratorISt4pairIKS0_IiiEiEEC1ERKSt17_Rb_tree_iteratorIS3_E, symObjAddr: 0x700, symBinAddr: 0x100001154, symSize: 0x28 }
  - { offsetInCU: 0x1DE8B, offset: 0x1DE8B, size: 0x8, addend: 0x0, symName: __ZSt16forward_as_tupleIJSt4pairIiiEEESt5tupleIJDpOT_EES5_, symObjAddr: 0x6C8, symBinAddr: 0x10000111C, symSize: 0x38 }
  - { offsetInCU: 0x1DEC6, offset: 0x1DEC6, size: 0x8, addend: 0x0, symName: __ZSt4moveIRSt4pairIiiEEONSt16remove_referenceIT_E4typeEOS4_, symObjAddr: 0x6B4, symBinAddr: 0x100001108, symSize: 0x14 }
  - { offsetInCU: 0x1DEFC, offset: 0x1DEFC, size: 0x8, addend: 0x0, symName: __ZNKSt4lessISt4pairIiiEEclERKS1_S4_, symObjAddr: 0x68C, symBinAddr: 0x1000010E0, symSize: 0x28 }
  - { offsetInCU: 0x1DF48, offset: 0x1DF48, size: 0x8, addend: 0x0, symName: __ZNKSt3mapISt4pairIiiEiSt4lessIS1_ESaIS0_IKS1_iEEE8key_compEv, symObjAddr: 0x660, symBinAddr: 0x1000010B4, symSize: 0x2C }
  - { offsetInCU: 0x1DF74, offset: 0x1DF74, size: 0x8, addend: 0x0, symName: __ZSteqRKSt17_Rb_tree_iteratorISt4pairIKS0_IiiEiEES6_, symObjAddr: 0x630, symBinAddr: 0x100001084, symSize: 0x30 }
  - { offsetInCU: 0x1DFB3, offset: 0x1DFB3, size: 0x8, addend: 0x0, symName: __ZNSt3mapISt4pairIiiEiSt4lessIS1_ESaIS0_IKS1_iEEE11lower_boundERS4_, symObjAddr: 0x60C, symBinAddr: 0x100001060, symSize: 0x24 }
  - { offsetInCU: 0x1DFF0, offset: 0x1DFF0, size: 0x8, addend: 0x0, symName: __ZSt7forwardIRiEOT_RNSt16remove_referenceIS1_E4typeE, symObjAddr: 0x5F8, symBinAddr: 0x10000104C, symSize: 0x14 }
  - { offsetInCU: 0x1E026, offset: 0x1E026, size: 0x8, addend: 0x0, symName: __ZNSt8_Rb_treeISt4pairIiiES0_IKS1_iESt10_Select1stIS3_ESt4lessIS1_ESaIS3_EE8_M_beginEv, symObjAddr: 0x5DC, symBinAddr: 0x100001030, symSize: 0x1C }
  - { offsetInCU: 0x1E050, offset: 0x1E050, size: 0x8, addend: 0x0, symName: __ZNSt8_Rb_treeISt4pairIiiES0_IKS1_iESt10_Select1stIS3_ESt4lessIS1_ESaIS3_EE8_M_eraseEPSt13_Rb_tree_nodeIS3_E, symObjAddr: 0x578, symBinAddr: 0x100000FCC, symSize: 0x64 }
  - { offsetInCU: 0x1E111, offset: 0x1E111, size: 0x8, addend: 0x0, symName: __ZNSt15__new_allocatorISt13_Rb_tree_nodeISt4pairIKS1_IiiEiEEED2Ev, symObjAddr: 0x564, symBinAddr: 0x100000FB8, symSize: 0x14 }
  - { offsetInCU: 0x1E145, offset: 0x1E145, size: 0x8, addend: 0x0, symName: __ZNSt20_Rb_tree_key_compareISt4lessISt4pairIiiEEEC2Ev, symObjAddr: 0x550, symBinAddr: 0x100000FA4, symSize: 0x14 }
  - { offsetInCU: 0x1E14F, offset: 0x1E14F, size: 0x8, addend: 0x0, symName: __ZNKSt17_Rb_tree_iteratorISt4pairIKS0_IiiEiEEdeEv, symObjAddr: 0x530, symBinAddr: 0x100000F84, symSize: 0x20 }
  - { offsetInCU: 0x1E179, offset: 0x1E179, size: 0x8, addend: 0x0, symName: __ZNSt17_Rb_tree_iteratorISt4pairIKS0_IiiEiEEppEv, symObjAddr: 0x500, symBinAddr: 0x100000F54, symSize: 0x30 }
  - { offsetInCU: 0x1E19F, offset: 0x1E19F, size: 0x8, addend: 0x0, symName: __ZStneRKSt17_Rb_tree_iteratorISt4pairIKS0_IiiEiEES6_, symObjAddr: 0x4D0, symBinAddr: 0x100000F24, symSize: 0x30 }
  - { offsetInCU: 0x1E1DE, offset: 0x1E1DE, size: 0x8, addend: 0x0, symName: __ZNSt3mapISt4pairIiiEiSt4lessIS1_ESaIS0_IKS1_iEEE3endEv, symObjAddr: 0x4B4, symBinAddr: 0x100000F08, symSize: 0x1C }
  - { offsetInCU: 0x1E208, offset: 0x1E208, size: 0x8, addend: 0x0, symName: __ZNSt3mapISt4pairIiiEiSt4lessIS1_ESaIS0_IKS1_iEEE5beginEv, symObjAddr: 0x498, symBinAddr: 0x100000EEC, symSize: 0x1C }
  - { offsetInCU: 0x1E232, offset: 0x1E232, size: 0x8, addend: 0x0, symName: __ZNSt3mapISt4pairIiiEiSt4lessIS1_ESaIS0_IKS1_iEEEixEOS1_, symObjAddr: 0x39C, symBinAddr: 0x100000DF0, symSize: 0xFC }
  - { offsetInCU: 0x1E2E6, offset: 0x1E2E6, size: 0x8, addend: 0x0, symName: __ZNSt4pairIiiEC1IRiS2_Lb1EEEOT_OT0_, symObjAddr: 0x354, symBinAddr: 0x100000DA8, symSize: 0x48 }
  - { offsetInCU: 0x1E380, offset: 0x1E380, size: 0x8, addend: 0x0, symName: __ZNSt8_Rb_treeISt4pairIiiES0_IKS1_iESt10_Select1stIS3_ESt4lessIS1_ESaIS3_EED1Ev, symObjAddr: 0x320, symBinAddr: 0x100000D74, symSize: 0x34 }
  - { offsetInCU: 0x1E3F8, offset: 0x1E3F8, size: 0x8, addend: 0x0, symName: __ZNSt8_Rb_treeISt4pairIiiES0_IKS1_iESt10_Select1stIS3_ESt4lessIS1_ESaIS3_EE13_Rb_tree_implIS7_Lb1EEC1Ev, symObjAddr: 0x2DC, symBinAddr: 0x100000D30, symSize: 0x44 }
  - { offsetInCU: 0x1E406, offset: 0x1E406, size: 0x8, addend: 0x0, symName: _main, symObjAddr: 0x120, symBinAddr: 0x100000B74, symSize: 0x1BC }
  - { offsetInCU: 0x1E51C, offset: 0x1E51C, size: 0x8, addend: 0x0, symName: __ZNSt3mapISt4pairIiiEiSt4lessIS1_ESaIS0_IKS1_iEEED1Ev, symObjAddr: 0x100, symBinAddr: 0x100000B54, symSize: 0x20 }
  - { offsetInCU: 0x1E55C, offset: 0x1E55C, size: 0x8, addend: 0x0, symName: __ZNSt3mapISt4pairIiiEiSt4lessIS1_ESaIS0_IKS1_iEEEC1Ev, symObjAddr: 0xE0, symBinAddr: 0x100000B34, symSize: 0x20 }
  - { offsetInCU: 0x1E5B6, offset: 0x1E5B6, size: 0x8, addend: 0x0, symName: __ZNSt8_Rb_treeISt4pairIiiES0_IKS1_iESt10_Select1stIS3_ESt4lessIS1_ESaIS3_EEC1Ev, symObjAddr: 0xC0, symBinAddr: 0x100000B14, symSize: 0x20 }
  - { offsetInCU: 0x1E61C, offset: 0x1E61C, size: 0x8, addend: 0x0, symName: __ZNSt8_Rb_treeISt4pairIiiES0_IKS1_iESt10_Select1stIS3_ESt4lessIS1_ESaIS3_EE13_Rb_tree_implIS7_Lb1EED1Ev, symObjAddr: 0x94, symBinAddr: 0x100000AE8, symSize: 0x2C }
  - { offsetInCU: 0x1E602, offset: 0x1E602, size: 0x8, addend: 0x0, symName: __ZNSt15_Rb_tree_header8_M_resetEv, symObjAddr: 0x58, symBinAddr: 0x100000AAC, symSize: 0x3C }
  - { offsetInCU: 0x1E65D, offset: 0x1E65D, size: 0x8, addend: 0x0, symName: __ZNSt15_Rb_tree_headerC2Ev, symObjAddr: 0x30, symBinAddr: 0x100000A84, symSize: 0x28 }
  - { offsetInCU: 0x1E675, offset: 0x1E675, size: 0x8, addend: 0x0, symName: __ZdlPvS_, symObjAddr: 0x18, symBinAddr: 0x100000A6C, symSize: 0x18 }
  - { offsetInCU: 0x1E6AA, offset: 0x1E6AA, size: 0x8, addend: 0x0, symName: __ZnwmPv, symObjAddr: 0x0, symBinAddr: 0x100000A54, symSize: 0x18 }
...
