---
triple:          'arm64-apple-darwin'
binary-path:     '/Users/tarabakz25/Downloads/KyogiProcon/sort/main'
relocations:
  - { offsetInCU: 0x49AF8, offset: 0x49AF8, size: 0x8, addend: 0x0, symName: __ZN8nlohmann16json_abi_v3_11_36detail12static_constINS1_12from_json_fnEE5valueE, symObjAddr: 0x337C8, symBinAddr: 0x10003B598, symSize: 0x0 }
  - { offsetInCU: 0x49C4D, offset: 0x49C4D, size: 0x8, addend: 0x0, symName: __ZN8nlohmann16json_abi_v3_11_36detail12static_constINS1_10to_json_fnEE5valueE, symObjAddr: 0x337C9, symBinAddr: 0x10003B599, symSize: 0x0 }
  - { offsetInCU: 0x4ADEA, offset: 0x4ADEA, size: 0x8, addend: 0x0, symName: __ZStL8__ioinit, symObjAddr: 0x4094F8, symBinAddr: 0x100064000, symSize: 0x0 }
  - { offsetInCU: 0x4B044, offset: 0x4B044, size: 0x8, addend: 0x0, symName: _counter, symObjAddr: 0x409500, symBinAddr: 0x100064008, symSize: 0x0 }
  - { offsetInCU: 0x4B05B, offset: 0x4B05B, size: 0x8, addend: 0x0, symName: _updated, symObjAddr: 0x409504, symBinAddr: 0x10006400C, symSize: 0x0 }
  - { offsetInCU: 0x4B06E, offset: 0x4B06E, size: 0x8, addend: 0x0, symName: _matchRate, symObjAddr: 0x409508, symBinAddr: 0x100064010, symSize: 0x0 }
  - { offsetInCU: 0x4B088, offset: 0x4B088, size: 0x8, addend: 0x0, symName: _HEIGHT, symObjAddr: 0x409510, symBinAddr: 0x100064018, symSize: 0x0 }
  - { offsetInCU: 0x4B09E, offset: 0x4B09E, size: 0x8, addend: 0x0, symName: _WIDTH, symObjAddr: 0x409514, symBinAddr: 0x10006401C, symSize: 0x0 }
  - { offsetInCU: 0x4B0B5, offset: 0x4B0B5, size: 0x8, addend: 0x0, symName: _start, symObjAddr: 0x409518, symBinAddr: 0x100064020, symSize: 0x0 }
  - { offsetInCU: 0x4B0CA, offset: 0x4B0CA, size: 0x8, addend: 0x0, symName: _end, symObjAddr: 0x409520, symBinAddr: 0x100064028, symSize: 0x0 }
  - { offsetInCU: 0x4B0E4, offset: 0x4B0E4, size: 0x8, addend: 0x0, symName: _number, symObjAddr: 0x409528, symBinAddr: 0x100064030, symSize: 0x0 }
  - { offsetInCU: 0x4B134, offset: 0x4B134, size: 0x8, addend: 0x0, symName: __Z7answersB5cxx11, symObjAddr: 0x409540, symBinAddr: 0x100064048, symSize: 0x0 }
  - { offsetInCU: 0x4B31A, offset: 0x4B31A, size: 0x8, addend: 0x0, symName: _all1_nukigata, symObjAddr: 0x409550, symBinAddr: 0x100064058, symSize: 0x0 }
  - { offsetInCU: 0x4D5E3, offset: 0x4D5E3, size: 0x8, addend: 0x0, symName: __ZSt8_DestroyIN8nlohmann16json_abi_v3_11_36detail21output_string_adapterIcNSt7__cxx1112basic_stringIcSt11char_traitsIcESaIcEEEEEEvPT_, symObjAddr: 0x33780, symBinAddr: 0x1000358B8, symSize: 0x30 }
  - { offsetInCU: 0x4D615, offset: 0x4D615, size: 0x8, addend: 0x0, symName: __ZNSt14_Sp_ebo_helperILi0ESaIvELb1EE6_S_getERS1_, symObjAddr: 0x3376C, symBinAddr: 0x1000358A4, symSize: 0x14 }
  - { offsetInCU: 0x4D667, offset: 0x4D667, size: 0x8, addend: 0x0, symName: __ZNSt23_Sp_counted_ptr_inplaceIN8nlohmann16json_abi_v3_11_36detail21output_string_adapterIcNSt7__cxx1112basic_stringIcSt11char_traitsIcESaIcEEEEESaIvELN9__gnu_cxx12_Lock_policyE2EE5_Impl8_M_allocEv, symObjAddr: 0x33750, symBinAddr: 0x100035888, symSize: 0x1C }
  - { offsetInCU: 0x4D691, offset: 0x4D691, size: 0x8, addend: 0x0, symName: __ZN8nlohmann16json_abi_v3_11_36detail21output_string_adapterIcNSt7__cxx1112basic_stringIcSt11char_traitsIcESaIcEEEE16write_charactersEPKcm, symObjAddr: 0x3371C, symBinAddr: 0x100035854, symSize: 0x34 }
  - { offsetInCU: 0x4D6DD, offset: 0x4D6DD, size: 0x8, addend: 0x0, symName: __ZN8nlohmann16json_abi_v3_11_36detail21output_string_adapterIcNSt7__cxx1112basic_stringIcSt11char_traitsIcESaIcEEEE15write_characterEc, symObjAddr: 0x336EC, symBinAddr: 0x100035824, symSize: 0x30 }
  - { offsetInCU: 0x4D71D, offset: 0x4D71D, size: 0x8, addend: 0x0, symName: __ZNSt23_Sp_counted_ptr_inplaceIN8nlohmann16json_abi_v3_11_36detail21output_string_adapterIcNSt7__cxx1112basic_stringIcSt11char_traitsIcESaIcEEEEESaIvELN9__gnu_cxx12_Lock_policyE2EE14_M_get_deleterERKSt9type_info, symObjAddr: 0x33674, symBinAddr: 0x1000357AC, symSize: 0x78 }
  - { offsetInCU: 0x4D768, offset: 0x4D768, size: 0x8, addend: 0x0, symName: __ZNSt23_Sp_counted_ptr_inplaceIN8nlohmann16json_abi_v3_11_36detail21output_string_adapterIcNSt7__cxx1112basic_stringIcSt11char_traitsIcESaIcEEEEESaIvELN9__gnu_cxx12_Lock_policyE2EE10_M_destroyEv, symObjAddr: 0x33610, symBinAddr: 0x100035748, symSize: 0x64 }
  - { offsetInCU: 0x4D822, offset: 0x4D822, size: 0x8, addend: 0x0, symName: __ZNSt23_Sp_counted_ptr_inplaceIN8nlohmann16json_abi_v3_11_36detail21output_string_adapterIcNSt7__cxx1112basic_stringIcSt11char_traitsIcESaIcEEEEESaIvELN9__gnu_cxx12_Lock_policyE2EE10_M_disposeEv, symObjAddr: 0x335C4, symBinAddr: 0x1000356FC, symSize: 0x4C }
  - { offsetInCU: 0x4D952, offset: 0x4D952, size: 0x8, addend: 0x0, symName: __ZNSt23_Sp_counted_ptr_inplaceIN8nlohmann16json_abi_v3_11_36detail21output_string_adapterIcNSt7__cxx1112basic_stringIcSt11char_traitsIcESaIcEEEEESaIvELN9__gnu_cxx12_Lock_policyE2EED0Ev, symObjAddr: 0x3359C, symBinAddr: 0x1000356D4, symSize: 0x28 }
  - { offsetInCU: 0x4D97C, offset: 0x4D97C, size: 0x8, addend: 0x0, symName: __ZNSt23_Sp_counted_ptr_inplaceIN8nlohmann16json_abi_v3_11_36detail21output_string_adapterIcNSt7__cxx1112basic_stringIcSt11char_traitsIcESaIcEEEEESaIvELN9__gnu_cxx12_Lock_policyE2EED1Ev, symObjAddr: 0x33568, symBinAddr: 0x1000356A0, symSize: 0x34 }
  - { offsetInCU: 0x4D957, offset: 0x4D957, size: 0x8, addend: 0x0, symName: __ZNSt3mapIiSt6vectorIS0_IiSaIiEESaIS2_EESt4lessIiESaISt4pairIKiS4_EEED1Ev, symObjAddr: 0x33548, symBinAddr: 0x100035680, symSize: 0x20 }
  - { offsetInCU: 0x4D9D3, offset: 0x4D9D3, size: 0x8, addend: 0x0, symName: __ZN8nlohmann16json_abi_v3_11_36detail21output_string_adapterIcNSt7__cxx1112basic_stringIcSt11char_traitsIcESaIcEEEED0Ev, symObjAddr: 0x33520, symBinAddr: 0x100035658, symSize: 0x28 }
  - { offsetInCU: 0x4D9FD, offset: 0x4D9FD, size: 0x8, addend: 0x0, symName: __ZN8nlohmann16json_abi_v3_11_36detail21output_string_adapterIcNSt7__cxx1112basic_stringIcSt11char_traitsIcESaIcEEEED1Ev, symObjAddr: 0x334EC, symBinAddr: 0x100035624, symSize: 0x34 }
  - { offsetInCU: 0x4D9AB, offset: 0x4D9AB, size: 0x8, addend: 0x0, symName: __ZNSt10_Head_baseILm0ERKNSt7__cxx1112basic_stringIcSt11char_traitsIcESaIcEEELb0EE7_M_headERS8_, symObjAddr: 0x334D4, symBinAddr: 0x10003560C, symSize: 0x18 }
  - { offsetInCU: 0x4D9D4, offset: 0x4D9D4, size: 0x8, addend: 0x0, symName: __ZNSt11_Tuple_implILm0EJRKNSt7__cxx1112basic_stringIcSt11char_traitsIcESaIcEEEEE7_M_headERS8_, symObjAddr: 0x334B8, symBinAddr: 0x1000355F0, symSize: 0x1C }
  - { offsetInCU: 0x4D9FE, offset: 0x4D9FE, size: 0x8, addend: 0x0, symName: __ZNSt11__copy_moveILb0ELb0ESt26random_access_iterator_tagE12__assign_oneIhKhEEvPT_PT0_, symObjAddr: 0x33490, symBinAddr: 0x1000355C8, symSize: 0x28 }
  - { offsetInCU: 0x4DB5A, offset: 0x4DB5A, size: 0x8, addend: 0x0, symName: __ZNSt4pairIKNSt7__cxx1112basic_stringIcSt11char_traitsIcESaIcEEEN8nlohmann16json_abi_v3_11_310basic_jsonISt3mapSt6vectorS5_bxydSaNS8_14adl_serializerESB_IhSaIhEEvEEEC1ERKSG_, symObjAddr: 0x33430, symBinAddr: 0x100035568, symSize: 0x60 }
  - { offsetInCU: 0x4DADB, offset: 0x4DADB, size: 0x8, addend: 0x0, symName: __ZSt12__get_helperILm0ERKNSt7__cxx1112basic_stringIcSt11char_traitsIcESaIcEEEJEERT0_RSt11_Tuple_implIXT_EJS8_DpT1_EE, symObjAddr: 0x33414, symBinAddr: 0x10003554C, symSize: 0x1C }
  - { offsetInCU: 0x4DB1D, offset: 0x4DB1D, size: 0x8, addend: 0x0, symName: __ZNSt11__copy_moveILb0ELb1ESt26random_access_iterator_tagE8__copy_mIKhhEEPT0_PT_S7_S5_, symObjAddr: 0x33390, symBinAddr: 0x1000354C8, symSize: 0x84 }
  - { offsetInCU: 0x4DBD0, offset: 0x4DBD0, size: 0x8, addend: 0x0, symName: __ZSt3getILm0EJRKNSt7__cxx1112basic_stringIcSt11char_traitsIcESaIcEEEEERNSt13tuple_elementIXT_ESt5tupleIJDpT0_EEE4typeERSC_, symObjAddr: 0x33374, symBinAddr: 0x1000354AC, symSize: 0x1C }
  - { offsetInCU: 0x4DC0F, offset: 0x4DC0F, size: 0x8, addend: 0x0, symName: __ZSt14__copy_move_a2ILb0EPKhPhET1_T0_S4_S3_, symObjAddr: 0x33348, symBinAddr: 0x100035480, symSize: 0x2C }
  - { offsetInCU: 0x4DC7B, offset: 0x4DC7B, size: 0x8, addend: 0x0, symName: __ZNSt8_Rb_treeINSt7__cxx1112basic_stringIcSt11char_traitsIcESaIcEEESt4pairIKS5_N8nlohmann16json_abi_v3_11_310basic_jsonISt3mapSt6vectorS5_bxydSaNS9_14adl_serializerESC_IhSaIhEEvEEESt10_Select1stISH_ESt4lessIvESaISH_EE17_M_construct_nodeIJRKSH_EEEvPSt13_Rb_tree_nodeISH_EDpOT_, symObjAddr: 0x33244, symBinAddr: 0x10003537C, symSize: 0x104 }
  - { offsetInCU: 0x4DD32, offset: 0x4DD32, size: 0x8, addend: 0x0, symName: __ZNSt10_Head_baseILm0ERKiLb0EE7_M_headERS2_, symObjAddr: 0x3322C, symBinAddr: 0x100035364, symSize: 0x18 }
  - { offsetInCU: 0x4DE4A, offset: 0x4DE4A, size: 0x8, addend: 0x0, symName: __ZN8nlohmann16json_abi_v3_11_310basic_jsonISt3mapSt6vectorNSt7__cxx1112basic_stringIcSt11char_traitsIcESaIcEEEbxydSaNS0_14adl_serializerES3_IhSaIhEEvEC1INS0_6detail8json_refISD_EELi0EEERKT_, symObjAddr: 0x33200, symBinAddr: 0x100035338, symSize: 0x2C }
  - { offsetInCU: 0x4DDCB, offset: 0x4DDCB, size: 0x8, addend: 0x0, symName: __ZSt7forwardIRKN8nlohmann16json_abi_v3_11_36detail8json_refINS1_10basic_jsonISt3mapSt6vectorNSt7__cxx1112basic_stringIcSt11char_traitsIcESaIcEEEbxydSaNS1_14adl_serializerES6_IhSaIhEEvEEEEEOT_RNSt16remove_referenceISK_E4typeE, symObjAddr: 0x331EC, symBinAddr: 0x100035324, symSize: 0x14 }
  - { offsetInCU: 0x4DF68, offset: 0x4DF68, size: 0x8, addend: 0x0, symName: __ZNSt4pairIKNSt7__cxx1112basic_stringIcSt11char_traitsIcESaIcEEEN8nlohmann16json_abi_v3_11_310basic_jsonISt3mapSt6vectorS5_bxydSaNS8_14adl_serializerESB_IhSaIhEEvEEEC1IJRS6_EJLm0EEJEJEEERSt5tupleIJDpT_EERSJ_IJDpT1_EESt12_Index_tupleIJXspT0_EEESS_IJXspT2_EEE, symObjAddr: 0x33190, symBinAddr: 0x1000352C8, symSize: 0x5C }
  - { offsetInCU: 0x4DED9, offset: 0x4DED9, size: 0x8, addend: 0x0, symName: __ZSt12__niter_wrapIPhET_RKS1_S1_, symObjAddr: 0x33178, symBinAddr: 0x1000352B0, symSize: 0x18 }
  - { offsetInCU: 0x4DF15, offset: 0x4DF15, size: 0x8, addend: 0x0, symName: __ZSt14__copy_move_a1ILb0EPKhPhET1_T0_S4_S3_, symObjAddr: 0x3314C, symBinAddr: 0x100035284, symSize: 0x2C }
  - { offsetInCU: 0x4DF7D, offset: 0x4DF7D, size: 0x8, addend: 0x0, symName: __ZSt12__niter_baseIPhET_S1_, symObjAddr: 0x33138, symBinAddr: 0x100035270, symSize: 0x14 }
  - { offsetInCU: 0x4DFB0, offset: 0x4DFB0, size: 0x8, addend: 0x0, symName: __ZSt12__niter_baseIPKhSt6vectorIhSaIhEEET_N9__gnu_cxx17__normal_iteratorIS5_T0_EE, symObjAddr: 0x33118, symBinAddr: 0x100035250, symSize: 0x20 }
  - { offsetInCU: 0x4DFF0, offset: 0x4DFF0, size: 0x8, addend: 0x0, symName: __ZNSt8_Rb_treeINSt7__cxx1112basic_stringIcSt11char_traitsIcESaIcEEESt4pairIKS5_N8nlohmann16json_abi_v3_11_310basic_jsonISt3mapSt6vectorS5_bxydSaNS9_14adl_serializerESC_IhSaIhEEvEEESt10_Select1stISH_ESt4lessIvESaISH_EE14_M_create_nodeIJRKSH_EEEPSt13_Rb_tree_nodeISH_EDpOT_, symObjAddr: 0x330D8, symBinAddr: 0x100035210, symSize: 0x40 }
  - { offsetInCU: 0x4E042, offset: 0x4E042, size: 0x8, addend: 0x0, symName: __ZSt13__copy_move_aILb0EN9__gnu_cxx17__normal_iteratorIPKiSt6vectorIiSaIiEEEEPiET1_T0_SA_S9_, symObjAddr: 0x33078, symBinAddr: 0x1000351B0, symSize: 0x60 }
  - { offsetInCU: 0x4E0AA, offset: 0x4E0AA, size: 0x8, addend: 0x0, symName: __ZNSt11_Tuple_implILm0EJRKiEE7_M_headERS2_, symObjAddr: 0x3305C, symBinAddr: 0x100035194, symSize: 0x1C }
  - { offsetInCU: 0x4E0D4, offset: 0x4E0D4, size: 0x8, addend: 0x0, symName: __ZSt10_ConstructIN8nlohmann16json_abi_v3_11_310basic_jsonISt3mapSt6vectorNSt7__cxx1112basic_stringIcSt11char_traitsIcESaIcEEEbxydSaNS1_14adl_serializerES4_IhSaIhEEvEEJRKNS1_6detail8json_refISE_EEEEvPT_DpOT0_, symObjAddr: 0x32FE0, symBinAddr: 0x100035118, symSize: 0x7C }
  - { offsetInCU: 0x4E120, offset: 0x4E120, size: 0x8, addend: 0x0, symName: __ZSt14__relocate_a_1IccENSt9enable_ifIXsrSt24__is_bitwise_relocatableIT_vE5valueEPS2_E4typeES4_S4_S4_RSaIT0_E, symObjAddr: 0x32F88, symBinAddr: 0x1000350C0, symSize: 0x58 }
  - { offsetInCU: 0x4E1A0, offset: 0x4E1A0, size: 0x8, addend: 0x0, symName: __ZSt12__niter_baseIPcET_S1_, symObjAddr: 0x32F74, symBinAddr: 0x1000350AC, symSize: 0x14 }
  - { offsetInCU: 0x4E1D7, offset: 0x4E1D7, size: 0x8, addend: 0x0, symName: __ZNKSt12_Vector_baseIcSaIcEE19_M_get_Tp_allocatorEv, symObjAddr: 0x32F60, symBinAddr: 0x100035098, symSize: 0x14 }
  - { offsetInCU: 0x4E1FD, offset: 0x4E1FD, size: 0x8, addend: 0x0, symName: __ZNSt6vectorIcSaIcEE11_S_max_sizeERKS0_, symObjAddr: 0x32F0C, symBinAddr: 0x100035044, symSize: 0x54 }
  - { offsetInCU: 0x4E3E7, offset: 0x4E3E7, size: 0x8, addend: 0x0, symName: __ZNSt4pairIKNSt7__cxx1112basic_stringIcSt11char_traitsIcESaIcEEEN8nlohmann16json_abi_v3_11_310basic_jsonISt3mapSt6vectorS5_bxydSaNS8_14adl_serializerESB_IhSaIhEEvEEEC1IJRS6_EJEEESt21piecewise_construct_tSt5tupleIJDpT_EESK_IJDpT0_EE, symObjAddr: 0x32ED0, symBinAddr: 0x100035008, symSize: 0x3C }
  - { offsetInCU: 0x4E3D1, offset: 0x4E3D1, size: 0x8, addend: 0x0, symName: __ZNSt11_Tuple_implILm0EJRKNSt7__cxx1112basic_stringIcSt11char_traitsIcESaIcEEEEEC2EOS8_, symObjAddr: 0x32EA8, symBinAddr: 0x100034FE0, symSize: 0x28 }
  - { offsetInCU: 0x4E3A8, offset: 0x4E3A8, size: 0x8, addend: 0x0, symName: __ZNSt11__copy_moveILb1ELb0ESt26random_access_iterator_tagE8__copy_mIPN8nlohmann16json_abi_v3_11_310basic_jsonISt3mapSt6vectorNSt7__cxx1112basic_stringIcSt11char_traitsIcESaIcEEEbxydSaNS4_14adl_serializerES7_IhSaIhEEvEESI_EET0_T_SK_SJ_, symObjAddr: 0x32E14, symBinAddr: 0x100034F4C, symSize: 0x94 }
  - { offsetInCU: 0x4E437, offset: 0x4E437, size: 0x8, addend: 0x0, symName: __ZNSt11__copy_moveILb0ELb0ESt26random_access_iterator_tagE12__assign_oneImmEEvPT_PT0_, symObjAddr: 0x32DEC, symBinAddr: 0x100034F24, symSize: 0x28 }
  - { offsetInCU: 0x4E484, offset: 0x4E484, size: 0x8, addend: 0x0, symName: __ZSt13__copy_move_aILb0EN9__gnu_cxx17__normal_iteratorIPKhSt6vectorIhSaIhEEEEPhET1_T0_SA_S9_, symObjAddr: 0x32D8C, symBinAddr: 0x100034EC4, symSize: 0x60 }
  - { offsetInCU: 0x4E4EC, offset: 0x4E4EC, size: 0x8, addend: 0x0, symName: __ZSt12__miter_baseIN9__gnu_cxx17__normal_iteratorIPKhSt6vectorIhSaIhEEEEET_S8_, symObjAddr: 0x32D78, symBinAddr: 0x100034EB0, symSize: 0x14 }
  - { offsetInCU: 0x4E523, offset: 0x4E523, size: 0x8, addend: 0x0, symName: __ZNSt15__new_allocatorIhE8allocateEmPKv, symObjAddr: 0x32D14, symBinAddr: 0x100034E4C, symSize: 0x64 }
  - { offsetInCU: 0x4E5AB, offset: 0x4E5AB, size: 0x8, addend: 0x0, symName: __ZSt10_ConstructIN8nlohmann16json_abi_v3_11_310basic_jsonISt3mapSt6vectorNSt7__cxx1112basic_stringIcSt11char_traitsIcESaIcEEEbxydSaNS1_14adl_serializerES4_IhSaIhEEvEEJRKSE_EEvPT_DpOT0_, symObjAddr: 0x32C98, symBinAddr: 0x100034DD0, symSize: 0x7C }
  - { offsetInCU: 0x4E607, offset: 0x4E607, size: 0x8, addend: 0x0, symName: __ZNKSt8_Rb_treeINSt7__cxx1112basic_stringIcSt11char_traitsIcESaIcEEESt4pairIKS5_N8nlohmann16json_abi_v3_11_310basic_jsonISt3mapSt6vectorS5_bxydSaNS9_14adl_serializerESC_IhSaIhEEvEEESt10_Select1stISH_ESt4lessIvESaISH_EE11_Alloc_nodeclIRKSH_EEPSt13_Rb_tree_nodeISH_EOT_, symObjAddr: 0x32C5C, symBinAddr: 0x100034D94, symSize: 0x3C }
  - { offsetInCU: 0x4E64E, offset: 0x4E64E, size: 0x8, addend: 0x0, symName: __ZSt7forwardIRKSt4pairIKNSt7__cxx1112basic_stringIcSt11char_traitsIcESaIcEEEN8nlohmann16json_abi_v3_11_310basic_jsonISt3mapSt6vectorS6_bxydSaNS9_14adl_serializerESC_IhSaIhEEvEEEEOT_RNSt16remove_referenceISK_E4typeE, symObjAddr: 0x32C48, symBinAddr: 0x100034D80, symSize: 0x14 }
  - { offsetInCU: 0x4E680, offset: 0x4E680, size: 0x8, addend: 0x0, symName: __ZSt4copyIN9__gnu_cxx17__normal_iteratorIPKiSt6vectorIiSaIiEEEEPiET0_T_SA_S9_, symObjAddr: 0x32C00, symBinAddr: 0x100034D38, symSize: 0x48 }
  - { offsetInCU: 0x4E6DE, offset: 0x4E6DE, size: 0x8, addend: 0x0, symName: __ZSt12__get_helperILm0ERKiJEERT0_RSt11_Tuple_implIXT_EJS2_DpT1_EE, symObjAddr: 0x32BE4, symBinAddr: 0x100034D1C, symSize: 0x1C }
  - { offsetInCU: 0x4E720, offset: 0x4E720, size: 0x8, addend: 0x0, symName: __ZSt16__do_uninit_copyIPKN8nlohmann16json_abi_v3_11_36detail8json_refINS1_10basic_jsonISt3mapSt6vectorNSt7__cxx1112basic_stringIcSt11char_traitsIcESaIcEEEbxydSaNS1_14adl_serializerES6_IhSaIhEEvEEEEPSG_ET0_T_SM_SL_, symObjAddr: 0x32B50, symBinAddr: 0x100034C88, symSize: 0x94 }
  - { offsetInCU: 0x4E78B, offset: 0x4E78B, size: 0x8, addend: 0x0, symName: __ZNSt11__copy_moveILb0ELb0ESt26random_access_iterator_tagE12__assign_oneIiKiEEvPT_PT0_, symObjAddr: 0x32B28, symBinAddr: 0x100034C60, symSize: 0x28 }
  - { offsetInCU: 0x4E7D8, offset: 0x4E7D8, size: 0x8, addend: 0x0, symName: __ZSt12__relocate_aIPcS0_SaIcEET0_T_S3_S2_RT1_, symObjAddr: 0x32ACC, symBinAddr: 0x100034C04, symSize: 0x5C }
  - { offsetInCU: 0x4E854, offset: 0x4E854, size: 0x8, addend: 0x0, symName: __ZNK9__gnu_cxx17__normal_iteratorIPcSt6vectorIcSaIcEEE4baseEv, symObjAddr: 0x32AB8, symBinAddr: 0x100034BF0, symSize: 0x14 }
  - { offsetInCU: 0x4E8E0, offset: 0x4E8E0, size: 0x8, addend: 0x0, symName: __ZN9__gnu_cxx17__normal_iteratorIPcSt6vectorIcSaIcEEEC1ERKS1_, symObjAddr: 0x32A90, symBinAddr: 0x100034BC8, symSize: 0x28 }
  - { offsetInCU: 0x4E8D5, offset: 0x4E8D5, size: 0x8, addend: 0x0, symName: __ZNKSt6vectorIcSaIcEE4sizeEv, symObjAddr: 0x32A6C, symBinAddr: 0x100034BA4, symSize: 0x24 }
  - { offsetInCU: 0x4E8FF, offset: 0x4E8FF, size: 0x8, addend: 0x0, symName: __ZNKSt6vectorIcSaIcEE8max_sizeEv, symObjAddr: 0x32A4C, symBinAddr: 0x100034B84, symSize: 0x20 }
  - { offsetInCU: 0x4E9F5, offset: 0x4E9F5, size: 0x8, addend: 0x0, symName: __ZNSt5tupleIJRKNSt7__cxx1112basic_stringIcSt11char_traitsIcESaIcEEEEEC1EOS8_, symObjAddr: 0x32A24, symBinAddr: 0x100034B5C, symSize: 0x28 }
  - { offsetInCU: 0x4E9D7, offset: 0x4E9D7, size: 0x8, addend: 0x0, symName: __ZSt14__copy_move_a2ILb1EPN8nlohmann16json_abi_v3_11_310basic_jsonISt3mapSt6vectorNSt7__cxx1112basic_stringIcSt11char_traitsIcESaIcEEEbxydSaNS1_14adl_serializerES4_IhSaIhEEvEESF_ET1_T0_SH_SG_, symObjAddr: 0x329F8, symBinAddr: 0x100034B30, symSize: 0x2C }
  - { offsetInCU: 0x4EA55, offset: 0x4EA55, size: 0x8, addend: 0x0, symName: __ZNSt11__copy_moveILb0ELb0ESt26random_access_iterator_tagE8__copy_mISt19_Bit_const_iteratorSt13_Bit_iteratorEET0_T_S6_S5_, symObjAddr: 0x32928, symBinAddr: 0x100034A60, symSize: 0xD0 }
  - { offsetInCU: 0x4EAE6, offset: 0x4EAE6, size: 0x8, addend: 0x0, symName: __ZNSt11__copy_moveILb0ELb1ESt26random_access_iterator_tagE8__copy_mImmEEPT0_PT_S6_S4_, symObjAddr: 0x32898, symBinAddr: 0x1000349D0, symSize: 0x90 }
  - { offsetInCU: 0x4EBF8, offset: 0x4EBF8, size: 0x8, addend: 0x0, symName: __ZN8nlohmann16json_abi_v3_11_36detail21output_string_adapterIcNSt7__cxx1112basic_stringIcSt11char_traitsIcESaIcEEEEC1ERS8_, symObjAddr: 0x32854, symBinAddr: 0x10003498C, symSize: 0x44 }
  - { offsetInCU: 0x4EC16, offset: 0x4EC16, size: 0x8, addend: 0x0, symName: __ZN8nlohmann16json_abi_v3_11_36detail23output_adapter_protocolIcED2Ev, symObjAddr: 0x3282C, symBinAddr: 0x100034964, symSize: 0x28 }
  - { offsetInCU: 0x4EC56, offset: 0x4EC56, size: 0x8, addend: 0x0, symName: __ZN8nlohmann16json_abi_v3_11_36detail23output_adapter_protocolIcEC2Ev, symObjAddr: 0x32804, symBinAddr: 0x10003493C, symSize: 0x28 }
  - { offsetInCU: 0x4EC36, offset: 0x4EC36, size: 0x8, addend: 0x0, symName: __ZSt4copyIN9__gnu_cxx17__normal_iteratorIPKhSt6vectorIhSaIhEEEEPhET0_T_SA_S9_, symObjAddr: 0x327BC, symBinAddr: 0x1000348F4, symSize: 0x48 }
  - { offsetInCU: 0x4ECD3, offset: 0x4ECD3, size: 0x8, addend: 0x0, symName: __ZNSt10_Head_baseILm1EZN8nlohmann16json_abi_v3_11_310basic_jsonISt3mapSt6vectorNSt7__cxx1112basic_stringIcSt11char_traitsIcESaIcEEEbxydSaNS1_14adl_serializerES4_IhSaIhEEvE6createINS1_27byte_container_with_subtypeISD_EEJRKSH_EEEPT_DpOT0_EUlPSH_E_Lb0EE7_M_headERSR_, symObjAddr: 0x327A8, symBinAddr: 0x1000348E0, symSize: 0x14 }
  - { offsetInCU: 0x4ECFC, offset: 0x4ECFC, size: 0x8, addend: 0x0, symName: __ZNSt10_Head_baseILm1EZN8nlohmann16json_abi_v3_11_310basic_jsonISt3mapSt6vectorNSt7__cxx1112basic_stringIcSt11char_traitsIcESaIcEEEbxydSaNS1_14adl_serializerES4_IhSaIhEEvE6createISA_JRKSA_EEEPT_DpOT0_EUlPSA_E_Lb0EE7_M_headERSP_, symObjAddr: 0x32794, symBinAddr: 0x1000348CC, symSize: 0x14 }
  - { offsetInCU: 0x4ED25, offset: 0x4ED25, size: 0x8, addend: 0x0, symName: __ZSt16__do_uninit_copyIN9__gnu_cxx17__normal_iteratorIPKN8nlohmann16json_abi_v3_11_310basic_jsonISt3mapSt6vectorNSt7__cxx1112basic_stringIcSt11char_traitsIcESaIcEEEbxydSaNS3_14adl_serializerES6_IhSaIhEEvEES6_ISG_SaISG_EEEEPSG_ET0_T_SO_SN_, symObjAddr: 0x326EC, symBinAddr: 0x100034824, symSize: 0xA8 }
  - { offsetInCU: 0x4ED90, offset: 0x4ED90, size: 0x8, addend: 0x0, symName: __ZNSt10_Head_baseILm1EZN8nlohmann16json_abi_v3_11_310basic_jsonISt3mapSt6vectorNSt7__cxx1112basic_stringIcSt11char_traitsIcESaIcEEEbxydSaNS1_14adl_serializerES4_IhSaIhEEvE6createIS4_ISE_SaISE_EEJRKSH_EEEPT_DpOT0_EUlPSH_E_Lb0EE7_M_headERSR_, symObjAddr: 0x326D8, symBinAddr: 0x100034810, symSize: 0x14 }
  - { offsetInCU: 0x4EDC4, offset: 0x4EDC4, size: 0x8, addend: 0x0, symName: __ZNSt8_Rb_treeINSt7__cxx1112basic_stringIcSt11char_traitsIcESaIcEEESt4pairIKS5_N8nlohmann16json_abi_v3_11_310basic_jsonISt3mapSt6vectorS5_bxydSaNS9_14adl_serializerESC_IhSaIhEEvEEESt10_Select1stISH_ESt4lessIvESaISH_EE13_M_clone_nodeILb0ENSN_11_Alloc_nodeEEEPSt13_Rb_tree_nodeISH_ESS_RT0_, symObjAddr: 0x3267C, symBinAddr: 0x1000347B4, symSize: 0x5C }
  - { offsetInCU: 0x4EE30, offset: 0x4EE30, size: 0x8, addend: 0x0, symName: __ZNSt10_Head_baseILm1EZN8nlohmann16json_abi_v3_11_310basic_jsonISt3mapSt6vectorNSt7__cxx1112basic_stringIcSt11char_traitsIcESaIcEEEbxydSaNS1_14adl_serializerES4_IhSaIhEEvE6createIS3_ISA_SE_St4lessIvESaISt4pairIKSA_SE_EEEJRKSM_EEEPT_DpOT0_EUlPSM_E_Lb0EE7_M_headERSW_, symObjAddr: 0x32668, symBinAddr: 0x1000347A0, symSize: 0x14 }
  - { offsetInCU: 0x4EE5D, offset: 0x4EE5D, size: 0x8, addend: 0x0, symName: __ZNSt4pairIiiE4swapERS0_, symObjAddr: 0x32624, symBinAddr: 0x10003475C, symSize: 0x44 }
  - { offsetInCU: 0x4EE98, offset: 0x4EE98, size: 0x8, addend: 0x0, symName: __ZN9__gnu_cxx17__normal_iteratorIPKcNSt7__cxx1112basic_stringIcSt11char_traitsIcESaIcEEEEpLEl, symObjAddr: 0x325F4, symBinAddr: 0x10003472C, symSize: 0x30 }
  - { offsetInCU: 0x4EECF, offset: 0x4EECF, size: 0x8, addend: 0x0, symName: __ZNSt10_Head_baseILm1EZN8nlohmann16json_abi_v3_11_310basic_jsonISt3mapSt6vectorNSt7__cxx1112basic_stringIcSt11char_traitsIcESaIcEEEbxydSaNS1_14adl_serializerES4_IhSaIhEEvE6createINS1_27byte_container_with_subtypeISD_EEJEEEPT_DpOT0_EUlPSH_E_Lb0EE7_M_headERSP_, symObjAddr: 0x325E0, symBinAddr: 0x100034718, symSize: 0x14 }
  - { offsetInCU: 0x4EEF8, offset: 0x4EEF8, size: 0x8, addend: 0x0, symName: __ZNSt10_Head_baseILm1EZN8nlohmann16json_abi_v3_11_310basic_jsonISt3mapSt6vectorNSt7__cxx1112basic_stringIcSt11char_traitsIcESaIcEEEbxydSaNS1_14adl_serializerES4_IhSaIhEEvE6createISA_JRA1_KcEEEPT_DpOT0_EUlPSA_E_Lb0EE7_M_headERSQ_, symObjAddr: 0x325CC, symBinAddr: 0x100034704, symSize: 0x14 }
  - { offsetInCU: 0x4EF21, offset: 0x4EF21, size: 0x8, addend: 0x0, symName: __ZNSt10_Head_baseILm1EZN8nlohmann16json_abi_v3_11_310basic_jsonISt3mapSt6vectorNSt7__cxx1112basic_stringIcSt11char_traitsIcESaIcEEEbxydSaNS1_14adl_serializerES4_IhSaIhEEvE6createIS4_ISE_SaISE_EEJEEEPT_DpOT0_EUlPSH_E_Lb0EE7_M_headERSP_, symObjAddr: 0x325B8, symBinAddr: 0x1000346F0, symSize: 0x14 }
  - { offsetInCU: 0x4F054, offset: 0x4F054, size: 0x8, addend: 0x0, symName: __ZNSt4pairIKNSt7__cxx1112basic_stringIcSt11char_traitsIcESaIcEEEN8nlohmann16json_abi_v3_11_310basic_jsonISt3mapSt6vectorS5_bxydSaNS8_14adl_serializerESB_IhSaIhEEvEEEC1IS5_DnLb1EEEOT_OT0_, symObjAddr: 0x32558, symBinAddr: 0x100034690, symSize: 0x60 }
  - { offsetInCU: 0x4EFE3, offset: 0x4EFE3, size: 0x8, addend: 0x0, symName: __ZNSt10_Head_baseILm1EZN8nlohmann16json_abi_v3_11_310basic_jsonISt3mapSt6vectorNSt7__cxx1112basic_stringIcSt11char_traitsIcESaIcEEEbxydSaNS1_14adl_serializerES4_IhSaIhEEvE6createIS3_ISA_SE_St4lessIvESaISt4pairIKSA_SE_EEEJEEEPT_DpOT0_EUlPSM_E_Lb0EE7_M_headERSU_, symObjAddr: 0x32544, symBinAddr: 0x10003467C, symSize: 0x14 }
  - { offsetInCU: 0x4F00C, offset: 0x4F00C, size: 0x8, addend: 0x0, symName: __ZNSt20__uninitialized_copyILb1EE13__uninit_copyIN9__gnu_cxx17__normal_iteratorIPKiSt6vectorIiSaIiEEEEPiEET0_T_SC_SB_, symObjAddr: 0x32518, symBinAddr: 0x100034650, symSize: 0x2C }
  - { offsetInCU: 0x4F067, offset: 0x4F067, size: 0x8, addend: 0x0, symName: __ZNSt20__uninitialized_copyILb1EE13__uninit_copyIPiS2_EET0_T_S4_S3_, symObjAddr: 0x324EC, symBinAddr: 0x100034624, symSize: 0x2C }
  - { offsetInCU: 0x4F0C2, offset: 0x4F0C2, size: 0x8, addend: 0x0, symName: __ZNSt12_Destroy_auxILb1EE9__destroyIN9__gnu_cxx17__normal_iteratorIPiSt6vectorIiSaIiEEEEEEvT_S9_, symObjAddr: 0x324D4, symBinAddr: 0x10003460C, symSize: 0x18 }
  - { offsetInCU: 0x4F0F6, offset: 0x4F0F6, size: 0x8, addend: 0x0, symName: __ZSt12__niter_baseIPKiSt6vectorIiSaIiEEET_N9__gnu_cxx17__normal_iteratorIS5_T0_EE, symObjAddr: 0x324B4, symBinAddr: 0x1000345EC, symSize: 0x20 }
  - { offsetInCU: 0x4F132, offset: 0x4F132, size: 0x8, addend: 0x0, symName: __ZSt3getILm0EJRKiEERNSt13tuple_elementIXT_ESt5tupleIJDpT0_EEE4typeERS6_, symObjAddr: 0x32498, symBinAddr: 0x1000345D0, symSize: 0x1C }
  - { offsetInCU: 0x4F171, offset: 0x4F171, size: 0x8, addend: 0x0, symName: __ZNSt20__uninitialized_copyILb0EE13__uninit_copyIPKN8nlohmann16json_abi_v3_11_36detail8json_refINS3_10basic_jsonISt3mapSt6vectorNSt7__cxx1112basic_stringIcSt11char_traitsIcESaIcEEEbxydSaNS3_14adl_serializerES8_IhSaIhEEvEEEEPSI_EET0_T_SO_SN_, symObjAddr: 0x3246C, symBinAddr: 0x1000345A4, symSize: 0x2C }
  - { offsetInCU: 0x4F1E7, offset: 0x4F1E7, size: 0x8, addend: 0x0, symName: __ZNSt10_Head_baseILm1EZN8nlohmann16json_abi_v3_11_310basic_jsonISt3mapSt6vectorNSt7__cxx1112basic_stringIcSt11char_traitsIcESaIcEEEbxydSaNS1_14adl_serializerES4_IhSaIhEEvE6createIS4_ISE_SaISE_EEJPKNS1_6detail8json_refISE_EESM_EEEPT_DpOT0_EUlPSH_E_Lb0EE7_M_headERSU_, symObjAddr: 0x32458, symBinAddr: 0x100034590, symSize: 0x14 }
  - { offsetInCU: 0x4F314, offset: 0x4F314, size: 0x8, addend: 0x0, symName: __ZNSt4pairIKNSt7__cxx1112basic_stringIcSt11char_traitsIcESaIcEEEN8nlohmann16json_abi_v3_11_310basic_jsonISt3mapSt6vectorS5_bxydSaNS8_14adl_serializerESB_IhSaIhEEvEEEC1IS5_SF_Lb1EEEOT_OT0_, symObjAddr: 0x323FC, symBinAddr: 0x100034534, symSize: 0x5C }
  - { offsetInCU: 0x4F2A2, offset: 0x4F2A2, size: 0x8, addend: 0x0, symName: __ZNSt11__copy_moveILb0ELb1ESt26random_access_iterator_tagE8__copy_mIKiiEEPT0_PT_S7_S5_, symObjAddr: 0x3236C, symBinAddr: 0x1000344A4, symSize: 0x90 }
  - { offsetInCU: 0x4F315, offset: 0x4F315, size: 0x8, addend: 0x0, symName: __ZNSt15__new_allocatorIhE10deallocateEPhm, symObjAddr: 0x32344, symBinAddr: 0x10003447C, symSize: 0x28 }
  - { offsetInCU: 0x4F35F, offset: 0x4F35F, size: 0x8, addend: 0x0, symName: __ZNK9__gnu_cxx17__normal_iteratorIPcSt6vectorIcSaIcEEEdeEv, symObjAddr: 0x3232C, symBinAddr: 0x100034464, symSize: 0x18 }
  - { offsetInCU: 0x4F389, offset: 0x4F389, size: 0x8, addend: 0x0, symName: __ZNK9__gnu_cxx17__normal_iteratorIPcSt6vectorIcSaIcEEEmiEl, symObjAddr: 0x322EC, symBinAddr: 0x100034424, symSize: 0x40 }
  - { offsetInCU: 0x4F3C0, offset: 0x4F3C0, size: 0x8, addend: 0x0, symName: __ZNSt6vectorIcSaIcEE11_S_relocateEPcS2_S2_RS0_, symObjAddr: 0x322B8, symBinAddr: 0x1000343F0, symSize: 0x34 }
  - { offsetInCU: 0x4F41D, offset: 0x4F41D, size: 0x8, addend: 0x0, symName: __ZSt12__to_addressIcEPT_S1_, symObjAddr: 0x322A4, symBinAddr: 0x1000343DC, symSize: 0x14 }
  - { offsetInCU: 0x4F453, offset: 0x4F453, size: 0x8, addend: 0x0, symName: __ZNSt12_Vector_baseIcSaIcEE11_M_allocateEm, symObjAddr: 0x32254, symBinAddr: 0x10003438C, symSize: 0x50 }
  - { offsetInCU: 0x4F4BE, offset: 0x4F4BE, size: 0x8, addend: 0x0, symName: __ZN9__gnu_cxxmiIPcSt6vectorIcSaIcEEEENS_17__normal_iteratorIT_T0_E15difference_typeERKS8_SB_, symObjAddr: 0x32218, symBinAddr: 0x100034350, symSize: 0x3C }
  - { offsetInCU: 0x4F50F, offset: 0x4F50F, size: 0x8, addend: 0x0, symName: __ZNSt6vectorIcSaIcEE5beginEv, symObjAddr: 0x321F4, symBinAddr: 0x10003432C, symSize: 0x24 }
  - { offsetInCU: 0x4F539, offset: 0x4F539, size: 0x8, addend: 0x0, symName: __ZNSt6vectorIcSaIcEE3endEv, symObjAddr: 0x321CC, symBinAddr: 0x100034304, symSize: 0x28 }
  - { offsetInCU: 0x4F563, offset: 0x4F563, size: 0x8, addend: 0x0, symName: __ZNKSt6vectorIcSaIcEE12_M_check_lenEmPKc, symObjAddr: 0x320FC, symBinAddr: 0x100034234, symSize: 0xD0 }
  - { offsetInCU: 0x4F5FE, offset: 0x4F5FE, size: 0x8, addend: 0x0, symName: __ZN8nlohmann16json_abi_v3_11_36detail20external_constructorILNS1_7value_tE4EE9constructINS0_10basic_jsonISt3mapSt6vectorNSt7__cxx1112basic_stringIcSt11char_traitsIcESaIcEEEbxydSaNS0_14adl_serializerES8_IhSaIhEEvEEEEvRT_NSJ_9boolean_tE, symObjAddr: 0x32090, symBinAddr: 0x1000341C8, symSize: 0x6C }
  - { offsetInCU: 0x4F642, offset: 0x4F642, size: 0x8, addend: 0x0, symName: __ZN8nlohmann16json_abi_v3_11_36detail20external_constructorILNS1_7value_tE7EE9constructINS0_10basic_jsonISt3mapSt6vectorNSt7__cxx1112basic_stringIcSt11char_traitsIcESaIcEEEbxydSaNS0_14adl_serializerES8_IhSaIhEEvEEEEvRT_NSJ_14number_float_tE, symObjAddr: 0x32028, symBinAddr: 0x100034160, symSize: 0x68 }
  - { offsetInCU: 0x4F6DE, offset: 0x4F6DE, size: 0x8, addend: 0x0, symName: __ZSt12__niter_wrapIN9__gnu_cxx17__normal_iteratorIPN8nlohmann16json_abi_v3_11_310basic_jsonISt3mapSt6vectorNSt7__cxx1112basic_stringIcSt11char_traitsIcESaIcEEEbxydSaNS3_14adl_serializerES6_IhSaIhEEvEES6_ISG_SaISG_EEEESH_ET_SL_T0_, symObjAddr: 0x31FE0, symBinAddr: 0x100034118, symSize: 0x48 }
  - { offsetInCU: 0x4F72B, offset: 0x4F72B, size: 0x8, addend: 0x0, symName: __ZSt14__copy_move_a1ILb1EPN8nlohmann16json_abi_v3_11_310basic_jsonISt3mapSt6vectorNSt7__cxx1112basic_stringIcSt11char_traitsIcESaIcEEEbxydSaNS1_14adl_serializerES4_IhSaIhEEvEESF_ET1_T0_SH_SG_, symObjAddr: 0x31FB4, symBinAddr: 0x1000340EC, symSize: 0x2C }
  - { offsetInCU: 0x4F7A9, offset: 0x4F7A9, size: 0x8, addend: 0x0, symName: __ZNSt11__copy_moveILb0ELb0ESt26random_access_iterator_tagE8__copy_mISt13_Bit_iteratorS3_EET0_T_S5_S4_, symObjAddr: 0x31EEC, symBinAddr: 0x100034024, symSize: 0xC8 }
  - { offsetInCU: 0x4F83B, offset: 0x4F83B, size: 0x8, addend: 0x0, symName: __ZSt14__copy_move_a2ILb0ESt19_Bit_const_iteratorSt13_Bit_iteratorET1_T0_S3_S2_, symObjAddr: 0x31E6C, symBinAddr: 0x100033FA4, symSize: 0x80 }
  - { offsetInCU: 0x4F8A3, offset: 0x4F8A3, size: 0x8, addend: 0x0, symName: __ZSt14__copy_move_a2ILb0EPmS0_ET1_T0_S2_S1_, symObjAddr: 0x31E40, symBinAddr: 0x100033F78, symSize: 0x2C }
  - { offsetInCU: 0x4F90B, offset: 0x4F90B, size: 0x8, addend: 0x0, symName: __ZNSt20__copy_move_backwardILb0ELb0ESt26random_access_iterator_tagE13__copy_move_bISt13_Bit_iteratorS3_EET0_T_S5_S4_, symObjAddr: 0x31D80, symBinAddr: 0x100033EB8, symSize: 0xC0 }
  - { offsetInCU: 0x4F986, offset: 0x4F986, size: 0x8, addend: 0x0, symName: __ZN9__gnu_cxx16__aligned_bufferIN8nlohmann16json_abi_v3_11_36detail21output_string_adapterIcNSt7__cxx1112basic_stringIcSt11char_traitsIcESaIcEEEEEE7_M_addrEv, symObjAddr: 0x31D6C, symBinAddr: 0x100033EA4, symSize: 0x14 }
  - { offsetInCU: 0x4F9AB, offset: 0x4F9AB, size: 0x8, addend: 0x0, symName: __ZSt10_ConstructIN8nlohmann16json_abi_v3_11_36detail21output_string_adapterIcNSt7__cxx1112basic_stringIcSt11char_traitsIcESaIcEEEEEJRS9_EEvPT_DpOT0_, symObjAddr: 0x31D20, symBinAddr: 0x100033E58, symSize: 0x4C }
  - { offsetInCU: 0x4F9FB, offset: 0x4F9FB, size: 0x8, addend: 0x0, symName: __ZNSt15__new_allocatorISt23_Sp_counted_ptr_inplaceIN8nlohmann16json_abi_v3_11_36detail21output_string_adapterIcNSt7__cxx1112basic_stringIcSt11char_traitsIcESaIcEEEEESaIvELN9__gnu_cxx12_Lock_policyE2EEE10deallocateEPSF_m, symObjAddr: 0x31CF0, symBinAddr: 0x100033E28, symSize: 0x30 }
  - { offsetInCU: 0x4FA41, offset: 0x4FA41, size: 0x8, addend: 0x0, symName: __ZSt11__addressofISaISt23_Sp_counted_ptr_inplaceIN8nlohmann16json_abi_v3_11_36detail21output_string_adapterIcNSt7__cxx1112basic_stringIcSt11char_traitsIcESaIcEEEEESaIvELN9__gnu_cxx12_Lock_policyE2EEEEPT_RSH_, symObjAddr: 0x31CDC, symBinAddr: 0x100033E14, symSize: 0x14 }
  - { offsetInCU: 0x4FA77, offset: 0x4FA77, size: 0x8, addend: 0x0, symName: __ZNSt15__new_allocatorISt23_Sp_counted_ptr_inplaceIN8nlohmann16json_abi_v3_11_36detail21output_string_adapterIcNSt7__cxx1112basic_stringIcSt11char_traitsIcESaIcEEEEESaIvELN9__gnu_cxx12_Lock_policyE2EEE8allocateEmPKv, symObjAddr: 0x31C60, symBinAddr: 0x100033D98, symSize: 0x7C }
  - { offsetInCU: 0x4FAFF, offset: 0x4FAFF, size: 0x8, addend: 0x0, symName: __ZNSt20__uninitialized_copyILb1EE13__uninit_copyIN9__gnu_cxx17__normal_iteratorIPKhSt6vectorIhSaIhEEEEPhEET0_T_SC_SB_, symObjAddr: 0x31C34, symBinAddr: 0x100033D6C, symSize: 0x2C }
  - { offsetInCU: 0x4FB5E, offset: 0x4FB5E, size: 0x8, addend: 0x0, symName: __ZNSt12_Vector_baseIhSaIhEE11_M_allocateEm, symObjAddr: 0x31BE4, symBinAddr: 0x100033D1C, symSize: 0x50 }
  - { offsetInCU: 0x4FBE5, offset: 0x4FBE5, size: 0x8, addend: 0x0, symName: __ZNSt11_Tuple_implILm1EJZN8nlohmann16json_abi_v3_11_310basic_jsonISt3mapSt6vectorNSt7__cxx1112basic_stringIcSt11char_traitsIcESaIcEEEbxydSaNS1_14adl_serializerES4_IhSaIhEEvE6createINS1_27byte_container_with_subtypeISD_EEJRKSH_EEEPT_DpOT0_EUlPSH_E_EE7_M_headERSR_, symObjAddr: 0x31BC8, symBinAddr: 0x100033D00, symSize: 0x1C }
  - { offsetInCU: 0x4FD39, offset: 0x4FD39, size: 0x8, addend: 0x0, symName: __ZNSt10_Head_baseILm1EZN8nlohmann16json_abi_v3_11_310basic_jsonISt3mapSt6vectorNSt7__cxx1112basic_stringIcSt11char_traitsIcESaIcEEEbxydSaNS1_14adl_serializerES4_IhSaIhEEvE6createINS1_27byte_container_with_subtypeISD_EEJRKSH_EEEPT_DpOT0_EUlPSH_E_Lb0EEC2ERKSQ_, symObjAddr: 0x31BA0, symBinAddr: 0x100033CD8, symSize: 0x28 }
  - { offsetInCU: 0x4FC65, offset: 0x4FC65, size: 0x8, addend: 0x0, symName: __ZNSt11_Tuple_implILm1EJZN8nlohmann16json_abi_v3_11_310basic_jsonISt3mapSt6vectorNSt7__cxx1112basic_stringIcSt11char_traitsIcESaIcEEEbxydSaNS1_14adl_serializerES4_IhSaIhEEvE6createISA_JRKSA_EEEPT_DpOT0_EUlPSA_E_EE7_M_headERSP_, symObjAddr: 0x31B84, symBinAddr: 0x100033CBC, symSize: 0x1C }
  - { offsetInCU: 0x4FD95, offset: 0x4FD95, size: 0x8, addend: 0x0, symName: __ZNSt10_Head_baseILm1EZN8nlohmann16json_abi_v3_11_310basic_jsonISt3mapSt6vectorNSt7__cxx1112basic_stringIcSt11char_traitsIcESaIcEEEbxydSaNS1_14adl_serializerES4_IhSaIhEEvE6createISA_JRKSA_EEEPT_DpOT0_EUlPSA_E_Lb0EEC2ERKSO_, symObjAddr: 0x31B5C, symBinAddr: 0x100033C94, symSize: 0x28 }
  - { offsetInCU: 0x4FCE5, offset: 0x4FCE5, size: 0x8, addend: 0x0, symName: __ZNSt20__uninitialized_copyILb0EE13__uninit_copyIN9__gnu_cxx17__normal_iteratorIPKN8nlohmann16json_abi_v3_11_310basic_jsonISt3mapSt6vectorNSt7__cxx1112basic_stringIcSt11char_traitsIcESaIcEEEbxydSaNS5_14adl_serializerES8_IhSaIhEEvEES8_ISI_SaISI_EEEEPSI_EET0_T_SQ_SP_, symObjAddr: 0x31B30, symBinAddr: 0x100033C68, symSize: 0x2C }
  - { offsetInCU: 0x4FD40, offset: 0x4FD40, size: 0x8, addend: 0x0, symName: __ZNSt11_Tuple_implILm1EJZN8nlohmann16json_abi_v3_11_310basic_jsonISt3mapSt6vectorNSt7__cxx1112basic_stringIcSt11char_traitsIcESaIcEEEbxydSaNS1_14adl_serializerES4_IhSaIhEEvE6createIS4_ISE_SaISE_EEJRKSH_EEEPT_DpOT0_EUlPSH_E_EE7_M_headERSR_, symObjAddr: 0x31B14, symBinAddr: 0x100033C4C, symSize: 0x1C }
  - { offsetInCU: 0x4FE7C, offset: 0x4FE7C, size: 0x8, addend: 0x0, symName: __ZNSt10_Head_baseILm1EZN8nlohmann16json_abi_v3_11_310basic_jsonISt3mapSt6vectorNSt7__cxx1112basic_stringIcSt11char_traitsIcESaIcEEEbxydSaNS1_14adl_serializerES4_IhSaIhEEvE6createIS4_ISE_SaISE_EEJRKSH_EEEPT_DpOT0_EUlPSH_E_Lb0EEC2ERKSQ_, symObjAddr: 0x31AEC, symBinAddr: 0x100033C24, symSize: 0x28 }
  - { offsetInCU: 0x4FDC0, offset: 0x4FDC0, size: 0x8, addend: 0x0, symName: __ZNSt8_Rb_treeINSt7__cxx1112basic_stringIcSt11char_traitsIcESaIcEEESt4pairIKS5_N8nlohmann16json_abi_v3_11_310basic_jsonISt3mapSt6vectorS5_bxydSaNS9_14adl_serializerESC_IhSaIhEEvEEESt10_Select1stISH_ESt4lessIvESaISH_EE10_S_maximumEPSt18_Rb_tree_node_base, symObjAddr: 0x31AD0, symBinAddr: 0x100033C08, symSize: 0x1C }
  - { offsetInCU: 0x4FDEA, offset: 0x4FDEA, size: 0x8, addend: 0x0, symName: __ZNSt8_Rb_treeINSt7__cxx1112basic_stringIcSt11char_traitsIcESaIcEEESt4pairIKS5_N8nlohmann16json_abi_v3_11_310basic_jsonISt3mapSt6vectorS5_bxydSaNS9_14adl_serializerESC_IhSaIhEEvEEESt10_Select1stISH_ESt4lessIvESaISH_EE10_S_minimumEPSt18_Rb_tree_node_base, symObjAddr: 0x31AB4, symBinAddr: 0x100033BEC, symSize: 0x1C }
  - { offsetInCU: 0x4FE18, offset: 0x4FE18, size: 0x8, addend: 0x0, symName: __ZNSt8_Rb_treeINSt7__cxx1112basic_stringIcSt11char_traitsIcESaIcEEESt4pairIKS5_N8nlohmann16json_abi_v3_11_310basic_jsonISt3mapSt6vectorS5_bxydSaNS9_14adl_serializerESC_IhSaIhEEvEEESt10_Select1stISH_ESt4lessIvESaISH_EE7_M_copyILb0ENSN_11_Alloc_nodeEEEPSt13_Rb_tree_nodeISH_ESS_PSt18_Rb_tree_node_baseRT0_, symObjAddr: 0x3196C, symBinAddr: 0x100033AA4, symSize: 0x148 }
  - { offsetInCU: 0x4FEEA, offset: 0x4FEEA, size: 0x8, addend: 0x0, symName: __ZNSt11_Tuple_implILm1EJZN8nlohmann16json_abi_v3_11_310basic_jsonISt3mapSt6vectorNSt7__cxx1112basic_stringIcSt11char_traitsIcESaIcEEEbxydSaNS1_14adl_serializerES4_IhSaIhEEvE6createIS3_ISA_SE_St4lessIvESaISt4pairIKSA_SE_EEEJRKSM_EEEPT_DpOT0_EUlPSM_E_EE7_M_headERSW_, symObjAddr: 0x31950, symBinAddr: 0x100033A88, symSize: 0x1C }
  - { offsetInCU: 0x50040, offset: 0x50040, size: 0x8, addend: 0x0, symName: __ZNSt10_Head_baseILm1EZN8nlohmann16json_abi_v3_11_310basic_jsonISt3mapSt6vectorNSt7__cxx1112basic_stringIcSt11char_traitsIcESaIcEEEbxydSaNS1_14adl_serializerES4_IhSaIhEEvE6createIS3_ISA_SE_St4lessIvESaISt4pairIKSA_SE_EEEJRKSM_EEEPT_DpOT0_EUlPSM_E_Lb0EEC2ERKSV_, symObjAddr: 0x31928, symBinAddr: 0x100033A60, symSize: 0x28 }
  - { offsetInCU: 0x4FF6A, offset: 0x4FF6A, size: 0x8, addend: 0x0, symName: __ZNSt20__copy_move_backwardILb1ELb0ESt26random_access_iterator_tagE13__copy_move_bIPSt4pairIiS3_IiiEES6_EET0_T_S8_S7_, symObjAddr: 0x318A0, symBinAddr: 0x1000339D8, symSize: 0x88 }
  - { offsetInCU: 0x4FFD9, offset: 0x4FFD9, size: 0x8, addend: 0x0, symName: __ZSt4swapIiiENSt9enable_ifIXsrSt6__and_IJSt14__is_swappableIT_ES2_IT0_EEE5valueEvE4typeERSt4pairIS3_S5_ESC_, symObjAddr: 0x31878, symBinAddr: 0x1000339B0, symSize: 0x28 }
  - { offsetInCU: 0x50026, offset: 0x50026, size: 0x8, addend: 0x0, symName: __ZSt4swapIiENSt9enable_ifIXsrSt6__and_IJSt6__not_ISt15__is_tuple_likeIT_EESt21is_move_constructibleIS4_ESt18is_move_assignableIS4_EEE5valueEvE4typeERS4_SE_, symObjAddr: 0x31824, symBinAddr: 0x10003395C, symSize: 0x54 }
  - { offsetInCU: 0x50088, offset: 0x50088, size: 0x8, addend: 0x0, symName: __ZNK9__gnu_cxx5__ops14_Iter_less_valclINS_17__normal_iteratorIPSt4pairIiS4_IiiEESt6vectorIS6_SaIS6_EEEES6_EEbT_RT0_, symObjAddr: 0x317F8, symBinAddr: 0x100033930, symSize: 0x2C }
  - { offsetInCU: 0x5010C, offset: 0x5010C, size: 0x8, addend: 0x0, symName: __ZSt9__advanceIN9__gnu_cxx17__normal_iteratorIPKcNSt7__cxx1112basic_stringIcSt11char_traitsIcESaIcEEEEElEvRT_T0_St26random_access_iterator_tag, symObjAddr: 0x317CC, symBinAddr: 0x100033904, symSize: 0x2C }
  - { offsetInCU: 0x50181, offset: 0x50181, size: 0x8, addend: 0x0, symName: __ZNKSt13move_iteratorIPiE4baseEv, symObjAddr: 0x317B4, symBinAddr: 0x1000338EC, symSize: 0x18 }
  - { offsetInCU: 0x501BD, offset: 0x501BD, size: 0x8, addend: 0x0, symName: __ZNSt10_Head_baseILm0EPN8nlohmann16json_abi_v3_11_327byte_container_with_subtypeISt6vectorIhSaIhEEEELb0EE7_M_headERKS8_, symObjAddr: 0x317A0, symBinAddr: 0x1000338D8, symSize: 0x14 }
  - { offsetInCU: 0x501E6, offset: 0x501E6, size: 0x8, addend: 0x0, symName: __ZNSt11_Tuple_implILm1EJZN8nlohmann16json_abi_v3_11_310basic_jsonISt3mapSt6vectorNSt7__cxx1112basic_stringIcSt11char_traitsIcESaIcEEEbxydSaNS1_14adl_serializerES4_IhSaIhEEvE6createINS1_27byte_container_with_subtypeISD_EEJEEEPT_DpOT0_EUlPSH_E_EE7_M_headERSP_, symObjAddr: 0x31784, symBinAddr: 0x1000338BC, symSize: 0x1C }
  - { offsetInCU: 0x50210, offset: 0x50210, size: 0x8, addend: 0x0, symName: __ZNSt10_Head_baseILm0EPN8nlohmann16json_abi_v3_11_327byte_container_with_subtypeISt6vectorIhSaIhEEEELb0EE7_M_headERS8_, symObjAddr: 0x31770, symBinAddr: 0x1000338A8, symSize: 0x14 }
  - { offsetInCU: 0x5035E, offset: 0x5035E, size: 0x8, addend: 0x0, symName: __ZNSt10_Head_baseILm1EZN8nlohmann16json_abi_v3_11_310basic_jsonISt3mapSt6vectorNSt7__cxx1112basic_stringIcSt11char_traitsIcESaIcEEEbxydSaNS1_14adl_serializerES4_IhSaIhEEvE6createINS1_27byte_container_with_subtypeISD_EEJEEEPT_DpOT0_EUlPSH_E_Lb0EEC2ERKSO_, symObjAddr: 0x31748, symBinAddr: 0x100033880, symSize: 0x28 }
  - { offsetInCU: 0x5028F, offset: 0x5028F, size: 0x8, addend: 0x0, symName: __ZNSt10_Head_baseILm0EPNSt7__cxx1112basic_stringIcSt11char_traitsIcESaIcEEELb0EE7_M_headERKS7_, symObjAddr: 0x31734, symBinAddr: 0x10003386C, symSize: 0x14 }
  - { offsetInCU: 0x502B8, offset: 0x502B8, size: 0x8, addend: 0x0, symName: __ZNSt11_Tuple_implILm1EJZN8nlohmann16json_abi_v3_11_310basic_jsonISt3mapSt6vectorNSt7__cxx1112basic_stringIcSt11char_traitsIcESaIcEEEbxydSaNS1_14adl_serializerES4_IhSaIhEEvE6createISA_JRA1_KcEEEPT_DpOT0_EUlPSA_E_EE7_M_headERSQ_, symObjAddr: 0x31718, symBinAddr: 0x100033850, symSize: 0x1C }
  - { offsetInCU: 0x502E2, offset: 0x502E2, size: 0x8, addend: 0x0, symName: __ZNSt10_Head_baseILm0EPNSt7__cxx1112basic_stringIcSt11char_traitsIcESaIcEEELb0EE7_M_headERS7_, symObjAddr: 0x31704, symBinAddr: 0x10003383C, symSize: 0x14 }
  - { offsetInCU: 0x50412, offset: 0x50412, size: 0x8, addend: 0x0, symName: __ZNSt10_Head_baseILm1EZN8nlohmann16json_abi_v3_11_310basic_jsonISt3mapSt6vectorNSt7__cxx1112basic_stringIcSt11char_traitsIcESaIcEEEbxydSaNS1_14adl_serializerES4_IhSaIhEEvE6createISA_JRA1_KcEEEPT_DpOT0_EUlPSA_E_Lb0EEC2ERKSP_, symObjAddr: 0x316DC, symBinAddr: 0x100033814, symSize: 0x28 }
  - { offsetInCU: 0x50361, offset: 0x50361, size: 0x8, addend: 0x0, symName: __ZNSt11_Tuple_implILm1EJZN8nlohmann16json_abi_v3_11_310basic_jsonISt3mapSt6vectorNSt7__cxx1112basic_stringIcSt11char_traitsIcESaIcEEEbxydSaNS1_14adl_serializerES4_IhSaIhEEvE6createIS4_ISE_SaISE_EEJEEEPT_DpOT0_EUlPSH_E_EE7_M_headERSP_, symObjAddr: 0x316C0, symBinAddr: 0x1000337F8, symSize: 0x1C }
  - { offsetInCU: 0x50498, offset: 0x50498, size: 0x8, addend: 0x0, symName: __ZNSt10_Head_baseILm1EZN8nlohmann16json_abi_v3_11_310basic_jsonISt3mapSt6vectorNSt7__cxx1112basic_stringIcSt11char_traitsIcESaIcEEEbxydSaNS1_14adl_serializerES4_IhSaIhEEvE6createIS4_ISE_SaISE_EEJEEEPT_DpOT0_EUlPSH_E_Lb0EEC2ERKSO_, symObjAddr: 0x31698, symBinAddr: 0x1000337D0, symSize: 0x28 }
  - { offsetInCU: 0x5042D, offset: 0x5042D, size: 0x8, addend: 0x0, symName: __ZNSt10_Head_baseILm0EPSt3mapINSt7__cxx1112basic_stringIcSt11char_traitsIcESaIcEEEN8nlohmann16json_abi_v3_11_310basic_jsonIS0_St6vectorS6_bxydSaNS8_14adl_serializerESA_IhSaIhEEvEESt4lessIvESaISt4pairIKS6_SE_EEELb0EE7_M_headERKSN_, symObjAddr: 0x31684, symBinAddr: 0x1000337BC, symSize: 0x14 }
  - { offsetInCU: 0x50456, offset: 0x50456, size: 0x8, addend: 0x0, symName: __ZNSt11_Tuple_implILm1EJZN8nlohmann16json_abi_v3_11_310basic_jsonISt3mapSt6vectorNSt7__cxx1112basic_stringIcSt11char_traitsIcESaIcEEEbxydSaNS1_14adl_serializerES4_IhSaIhEEvE6createIS3_ISA_SE_St4lessIvESaISt4pairIKSA_SE_EEEJEEEPT_DpOT0_EUlPSM_E_EE7_M_headERSU_, symObjAddr: 0x31668, symBinAddr: 0x1000337A0, symSize: 0x1C }
  - { offsetInCU: 0x50480, offset: 0x50480, size: 0x8, addend: 0x0, symName: __ZNSt10_Head_baseILm0EPSt3mapINSt7__cxx1112basic_stringIcSt11char_traitsIcESaIcEEEN8nlohmann16json_abi_v3_11_310basic_jsonIS0_St6vectorS6_bxydSaNS8_14adl_serializerESA_IhSaIhEEvEESt4lessIvESaISt4pairIKS6_SE_EEELb0EE7_M_headERSN_, symObjAddr: 0x31654, symBinAddr: 0x10003378C, symSize: 0x14 }
  - { offsetInCU: 0x505D0, offset: 0x505D0, size: 0x8, addend: 0x0, symName: __ZNSt10_Head_baseILm1EZN8nlohmann16json_abi_v3_11_310basic_jsonISt3mapSt6vectorNSt7__cxx1112basic_stringIcSt11char_traitsIcESaIcEEEbxydSaNS1_14adl_serializerES4_IhSaIhEEvE6createIS3_ISA_SE_St4lessIvESaISt4pairIKSA_SE_EEEJEEEPT_DpOT0_EUlPSM_E_Lb0EEC2ERKST_, symObjAddr: 0x3162C, symBinAddr: 0x100033764, symSize: 0x28 }
  - { offsetInCU: 0x5052B, offset: 0x5052B, size: 0x8, addend: 0x0, symName: __ZSt18uninitialized_copyIN9__gnu_cxx17__normal_iteratorIPKiSt6vectorIiSaIiEEEEPiET0_T_SA_S9_, symObjAddr: 0x315F0, symBinAddr: 0x100033728, symSize: 0x3C }
  - { offsetInCU: 0x505BC, offset: 0x505BC, size: 0x8, addend: 0x0, symName: __ZSt18uninitialized_copyIPiS0_ET0_T_S2_S1_, symObjAddr: 0x315B4, symBinAddr: 0x1000336EC, symSize: 0x3C }
  - { offsetInCU: 0x50637, offset: 0x50637, size: 0x8, addend: 0x0, symName: __ZSt13__copy_move_aILb0EPiS0_ET1_T0_S2_S1_, symObjAddr: 0x31554, symBinAddr: 0x10003368C, symSize: 0x60 }
  - { offsetInCU: 0x5069F, offset: 0x5069F, size: 0x8, addend: 0x0, symName: __ZSt8_DestroyIN9__gnu_cxx17__normal_iteratorIPiSt6vectorIiSaIiEEEEEvT_S7_, symObjAddr: 0x3152C, symBinAddr: 0x100033664, symSize: 0x28 }
  - { offsetInCU: 0x506E1, offset: 0x506E1, size: 0x8, addend: 0x0, symName: __ZSt13__copy_move_aILb0EN9__gnu_cxx17__normal_iteratorIPKiSt6vectorIiSaIiEEEENS1_IPiS6_EEET1_T0_SB_SA_, symObjAddr: 0x314CC, symBinAddr: 0x100033604, symSize: 0x60 }
  - { offsetInCU: 0x50749, offset: 0x50749, size: 0x8, addend: 0x0, symName: __ZSt12__miter_baseIN9__gnu_cxx17__normal_iteratorIPKiSt6vectorIiSaIiEEEEET_S8_, symObjAddr: 0x314B8, symBinAddr: 0x1000335F0, symSize: 0x14 }
  - { offsetInCU: 0x5086D, offset: 0x5086D, size: 0x8, addend: 0x0, symName: __ZNSt4pairIKiSt6vectorIS1_IiSaIiEESaIS3_EEEC1IJRS0_EJLm0EEJEJEEERSt5tupleIJDpT_EERS9_IJDpT1_EESt12_Index_tupleIJXspT0_EEESI_IJXspT2_EEE, symObjAddr: 0x3145C, symBinAddr: 0x100033594, symSize: 0x5C }
  - { offsetInCU: 0x50858, offset: 0x50858, size: 0x8, addend: 0x0, symName: __ZSt9__fill_a1IPiiEN9__gnu_cxx11__enable_ifIXsrSt11__is_scalarIT0_E7__valueEvE6__typeET_S8_RKS4_, symObjAddr: 0x31404, symBinAddr: 0x10003353C, symSize: 0x58 }
  - { offsetInCU: 0x508C7, offset: 0x508C7, size: 0x8, addend: 0x0, symName: __ZSt18uninitialized_copyIPKN8nlohmann16json_abi_v3_11_36detail8json_refINS1_10basic_jsonISt3mapSt6vectorNSt7__cxx1112basic_stringIcSt11char_traitsIcESaIcEEEbxydSaNS1_14adl_serializerES6_IhSaIhEEvEEEEPSG_ET0_T_SM_SL_, symObjAddr: 0x313D0, symBinAddr: 0x100033508, symSize: 0x34 }
  - { offsetInCU: 0x50965, offset: 0x50965, size: 0x8, addend: 0x0, symName: __ZNSt10_Head_baseILm0EPSt6vectorIN8nlohmann16json_abi_v3_11_310basic_jsonISt3mapS0_NSt7__cxx1112basic_stringIcSt11char_traitsIcESaIcEEEbxydSaNS2_14adl_serializerES0_IhSaIhEEvEESaISE_EELb0EE7_M_headERKSI_, symObjAddr: 0x313BC, symBinAddr: 0x1000334F4, symSize: 0x14 }
  - { offsetInCU: 0x5098E, offset: 0x5098E, size: 0x8, addend: 0x0, symName: __ZNSt11_Tuple_implILm1EJZN8nlohmann16json_abi_v3_11_310basic_jsonISt3mapSt6vectorNSt7__cxx1112basic_stringIcSt11char_traitsIcESaIcEEEbxydSaNS1_14adl_serializerES4_IhSaIhEEvE6createIS4_ISE_SaISE_EEJPKNS1_6detail8json_refISE_EESM_EEEPT_DpOT0_EUlPSH_E_EE7_M_headERSU_, symObjAddr: 0x313A0, symBinAddr: 0x1000334D8, symSize: 0x1C }
  - { offsetInCU: 0x509B8, offset: 0x509B8, size: 0x8, addend: 0x0, symName: __ZNSt10_Head_baseILm0EPSt6vectorIN8nlohmann16json_abi_v3_11_310basic_jsonISt3mapS0_NSt7__cxx1112basic_stringIcSt11char_traitsIcESaIcEEEbxydSaNS2_14adl_serializerES0_IhSaIhEEvEESaISE_EELb0EE7_M_headERSI_, symObjAddr: 0x3138C, symBinAddr: 0x1000334C4, symSize: 0x14 }
  - { offsetInCU: 0x50B0D, offset: 0x50B0D, size: 0x8, addend: 0x0, symName: __ZNSt10_Head_baseILm1EZN8nlohmann16json_abi_v3_11_310basic_jsonISt3mapSt6vectorNSt7__cxx1112basic_stringIcSt11char_traitsIcESaIcEEEbxydSaNS1_14adl_serializerES4_IhSaIhEEvE6createIS4_ISE_SaISE_EEJPKNS1_6detail8json_refISE_EESM_EEEPT_DpOT0_EUlPSH_E_Lb0EEC2ERKST_, symObjAddr: 0x31364, symBinAddr: 0x10003349C, symSize: 0x28 }
  - { offsetInCU: 0x50A3B, offset: 0x50A3B, size: 0x8, addend: 0x0, symName: __ZNSt15__new_allocatorISt13_Rb_tree_nodeISt4pairIKNSt7__cxx1112basic_stringIcSt11char_traitsIcESaIcEEEN8nlohmann16json_abi_v3_11_310basic_jsonISt3mapSt6vectorS7_bxydSaNSA_14adl_serializerESD_IhSaIhEEvEEEEE10deallocateEPSJ_m, symObjAddr: 0x31328, symBinAddr: 0x100033460, symSize: 0x3C }
  - { offsetInCU: 0x50B7F, offset: 0x50B7F, size: 0x8, addend: 0x0, symName: __ZNSt4pairIKNSt7__cxx1112basic_stringIcSt11char_traitsIcESaIcEEEN8nlohmann16json_abi_v3_11_310basic_jsonISt3mapSt6vectorS5_bxydSaNS8_14adl_serializerESB_IhSaIhEEvEEED1Ev, symObjAddr: 0x312FC, symBinAddr: 0x100033434, symSize: 0x2C }
  - { offsetInCU: 0x50B4B, offset: 0x50B4B, size: 0x8, addend: 0x0, symName: __ZNSt15__new_allocatorISt13_Rb_tree_nodeISt4pairIKNSt7__cxx1112basic_stringIcSt11char_traitsIcESaIcEEEN8nlohmann16json_abi_v3_11_310basic_jsonISt3mapSt6vectorS7_bxydSaNSA_14adl_serializerESD_IhSaIhEEvEEEEE8allocateEmPKv, symObjAddr: 0x3126C, symBinAddr: 0x1000333A4, symSize: 0x90 }
  - { offsetInCU: 0x50BD3, offset: 0x50BD3, size: 0x8, addend: 0x0, symName: __ZSt14__copy_move_a2ILb0EPKiPiET1_T0_S4_S3_, symObjAddr: 0x31240, symBinAddr: 0x100033378, symSize: 0x2C }
  - { offsetInCU: 0x50C3B, offset: 0x50C3B, size: 0x8, addend: 0x0, symName: __ZNSt12_Destroy_auxILb1EE9__destroyIPhEEvT_S3_, symObjAddr: 0x31228, symBinAddr: 0x100033360, symSize: 0x18 }
  - { offsetInCU: 0x50CA5, offset: 0x50CA5, size: 0x8, addend: 0x0, symName: __ZNSt20back_insert_iteratorISt6vectorIN8nlohmann16json_abi_v3_11_310basic_jsonISt3mapS0_NSt7__cxx1112basic_stringIcSt11char_traitsIcESaIcEEEbxydSaNS2_14adl_serializerES0_IhSaIhEEvEESaISE_EEEppEv, symObjAddr: 0x31214, symBinAddr: 0x10003334C, symSize: 0x14 }
  - { offsetInCU: 0x50CCF, offset: 0x50CCF, size: 0x8, addend: 0x0, symName: __ZNSt20back_insert_iteratorISt6vectorIN8nlohmann16json_abi_v3_11_310basic_jsonISt3mapS0_NSt7__cxx1112basic_stringIcSt11char_traitsIcESaIcEEEbxydSaNS2_14adl_serializerES0_IhSaIhEEvEESaISE_EEEaSEOSE_, symObjAddr: 0x311D4, symBinAddr: 0x10003330C, symSize: 0x40 }
  - { offsetInCU: 0x50D0A, offset: 0x50D0A, size: 0x8, addend: 0x0, symName: __ZNSt20back_insert_iteratorISt6vectorIN8nlohmann16json_abi_v3_11_310basic_jsonISt3mapS0_NSt7__cxx1112basic_stringIcSt11char_traitsIcESaIcEEEbxydSaNS2_14adl_serializerES0_IhSaIhEEvEESaISE_EEEdeEv, symObjAddr: 0x311C0, symBinAddr: 0x1000332F8, symSize: 0x14 }
  - { offsetInCU: 0x50D60, offset: 0x50D60, size: 0x8, addend: 0x0, symName: __ZNSt6vectorIcSaIcEE4backEv, symObjAddr: 0x31188, symBinAddr: 0x1000332C0, symSize: 0x38 }
  - { offsetInCU: 0x50D8A, offset: 0x50D8A, size: 0x8, addend: 0x0, symName: __ZNSt6vectorIcSaIcEE17_M_realloc_appendIJcEEEvDpOT_, symObjAddr: 0x30FD8, symBinAddr: 0x100033110, symSize: 0x1B0 }
  - { offsetInCU: 0x50F54, offset: 0x50F54, size: 0x8, addend: 0x0, symName: __ZZNSt6vectorIcSaIcEE17_M_realloc_appendIJcEEEvDpOT_EN6_GuardC1EPcmRS0_, symObjAddr: 0x30F34, symBinAddr: 0x10003306C, symSize: 0x44 }
  - { offsetInCU: 0x50F93, offset: 0x50F93, size: 0x8, addend: 0x0, symName: __ZZNSt6vectorIcSaIcEE17_M_realloc_appendIJcEEEvDpOT_EN6_GuardD1Ev, symObjAddr: 0x30F78, symBinAddr: 0x1000330B0, symSize: 0x60 }
  - { offsetInCU: 0x51088, offset: 0x51088, size: 0x8, addend: 0x0, symName: __ZN8nlohmann16json_abi_v3_11_36detail7to_jsonINS0_10basic_jsonISt3mapSt6vectorNSt7__cxx1112basic_stringIcSt11char_traitsIcESaIcEEEbxydSaNS0_14adl_serializerES5_IhSaIhEEvEEyLi0EEEvRT_T0_, symObjAddr: 0x30F0C, symBinAddr: 0x100033044, symSize: 0x28 }
  - { offsetInCU: 0x510D5, offset: 0x510D5, size: 0x8, addend: 0x0, symName: __ZN8nlohmann16json_abi_v3_11_36detail7to_jsonINS0_10basic_jsonISt3mapSt6vectorNSt7__cxx1112basic_stringIcSt11char_traitsIcESaIcEEEbxydSaNS0_14adl_serializerES5_IhSaIhEEvEExLi0EEEvRT_T0_, symObjAddr: 0x30EE4, symBinAddr: 0x10003301C, symSize: 0x28 }
  - { offsetInCU: 0x51122, offset: 0x51122, size: 0x8, addend: 0x0, symName: __ZN8nlohmann16json_abi_v3_11_36detail7to_jsonINS0_10basic_jsonISt3mapSt6vectorNSt7__cxx1112basic_stringIcSt11char_traitsIcESaIcEEEbxydSaNS0_14adl_serializerES5_IhSaIhEEvEEbLi0EEEvRT_T0_, symObjAddr: 0x30EB4, symBinAddr: 0x100032FEC, symSize: 0x30 }
  - { offsetInCU: 0x5116F, offset: 0x5116F, size: 0x8, addend: 0x0, symName: __ZN8nlohmann16json_abi_v3_11_36detail7to_jsonINS0_10basic_jsonISt3mapSt6vectorNSt7__cxx1112basic_stringIcSt11char_traitsIcESaIcEEEbxydSaNS0_14adl_serializerES5_IhSaIhEEvEEdLi0EEEvRT_T0_, symObjAddr: 0x30E8C, symBinAddr: 0x100032FC4, symSize: 0x28 }
  - { offsetInCU: 0x511C0, offset: 0x511C0, size: 0x8, addend: 0x0, symName: __ZNSt8_Rb_treeINSt7__cxx1112basic_stringIcSt11char_traitsIcESaIcEEESt4pairIKS5_N8nlohmann16json_abi_v3_11_310basic_jsonISt3mapSt6vectorS5_bxydSaNS9_14adl_serializerESC_IhSaIhEEvEEESt10_Select1stISH_ESt4lessIvESaISH_EE17_M_construct_nodeIJRKSt21piecewise_construct_tSt5tupleIJRS7_EESS_IJEEEEEvPSt13_Rb_tree_nodeISH_EDpOT_, symObjAddr: 0x30D10, symBinAddr: 0x100032E48, symSize: 0x17C }
  - { offsetInCU: 0x512BD, offset: 0x512BD, size: 0x8, addend: 0x0, symName: __ZN8nlohmann16json_abi_v3_11_36detail20external_constructorILNS1_7value_tE3EE9constructINS0_10basic_jsonISt3mapSt6vectorNSt7__cxx1112basic_stringIcSt11char_traitsIcESaIcEEEbxydSaNS0_14adl_serializerES8_IhSaIhEEvEEEEvRT_RKNSJ_8string_tE, symObjAddr: 0x30CA8, symBinAddr: 0x100032DE0, symSize: 0x68 }
  - { offsetInCU: 0x51301, offset: 0x51301, size: 0x8, addend: 0x0, symName: __ZSt13__copy_move_aILb1EN9__gnu_cxx17__normal_iteratorIPN8nlohmann16json_abi_v3_11_310basic_jsonISt3mapSt6vectorNSt7__cxx1112basic_stringIcSt11char_traitsIcESaIcEEEbxydSaNS3_14adl_serializerES6_IhSaIhEEvEES6_ISG_SaISG_EEEESK_ET1_T0_SM_SL_, symObjAddr: 0x30C48, symBinAddr: 0x100032D80, symSize: 0x60 }
  - { offsetInCU: 0x5137F, offset: 0x5137F, size: 0x8, addend: 0x0, symName: __ZSt14__relocate_a_1IPN8nlohmann16json_abi_v3_11_310basic_jsonISt3mapSt6vectorNSt7__cxx1112basic_stringIcSt11char_traitsIcESaIcEEEbxydSaNS1_14adl_serializerES4_IhSaIhEEvEESF_ENSt9enable_ifIXsrSt24__is_bitwise_relocatableIT_vE5valueEPSI_E4typeESK_SK_SK_RSaIT0_E, symObjAddr: 0x30BE4, symBinAddr: 0x100032D1C, symSize: 0x64 }
  - { offsetInCU: 0x513FF, offset: 0x513FF, size: 0x8, addend: 0x0, symName: __ZSt12__niter_baseIPPN8nlohmann16json_abi_v3_11_310basic_jsonISt3mapSt6vectorNSt7__cxx1112basic_stringIcSt11char_traitsIcESaIcEEEbxydSaNS1_14adl_serializerES4_IhSaIhEEvEEET_SH_, symObjAddr: 0x30BD0, symBinAddr: 0x100032D08, symSize: 0x14 }
  - { offsetInCU: 0x51436, offset: 0x51436, size: 0x8, addend: 0x0, symName: __ZNSt15__new_allocatorIPN8nlohmann16json_abi_v3_11_310basic_jsonISt3mapSt6vectorNSt7__cxx1112basic_stringIcSt11char_traitsIcESaIcEEEbxydSaNS1_14adl_serializerES4_IhSaIhEEvEEE8allocateEmPKv, symObjAddr: 0x30B54, symBinAddr: 0x100032C8C, symSize: 0x7C }
  - { offsetInCU: 0x514C2, offset: 0x514C2, size: 0x8, addend: 0x0, symName: __ZNKSt12_Vector_baseIPN8nlohmann16json_abi_v3_11_310basic_jsonISt3mapSt6vectorNSt7__cxx1112basic_stringIcSt11char_traitsIcESaIcEEEbxydSaNS1_14adl_serializerES4_IhSaIhEEvEESaISF_EE19_M_get_Tp_allocatorEv, symObjAddr: 0x30B40, symBinAddr: 0x100032C78, symSize: 0x14 }
  - { offsetInCU: 0x514E8, offset: 0x514E8, size: 0x8, addend: 0x0, symName: __ZNSt6vectorIPN8nlohmann16json_abi_v3_11_310basic_jsonISt3mapS_NSt7__cxx1112basic_stringIcSt11char_traitsIcESaIcEEEbxydSaNS1_14adl_serializerES_IhSaIhEEvEESaISE_EE11_S_max_sizeERKSF_, symObjAddr: 0x30AEC, symBinAddr: 0x100032C24, symSize: 0x54 }
  - { offsetInCU: 0x5159F, offset: 0x5159F, size: 0x8, addend: 0x0, symName: __ZSt14__copy_move_a2ILb0ESt13_Bit_iteratorS0_ET1_T0_S2_S1_, symObjAddr: 0x30A6C, symBinAddr: 0x100032BA4, symSize: 0x80 }
  - { offsetInCU: 0x51607, offset: 0x51607, size: 0x8, addend: 0x0, symName: __ZSt14__copy_move_a1ILb0ESt19_Bit_const_iteratorSt13_Bit_iteratorET1_T0_S3_S2_, symObjAddr: 0x309EC, symBinAddr: 0x100032B24, symSize: 0x80 }
  - { offsetInCU: 0x5166F, offset: 0x5166F, size: 0x8, addend: 0x0, symName: __ZSt12__niter_baseISt19_Bit_const_iteratorET_S1_, symObjAddr: 0x309B0, symBinAddr: 0x100032AE8, symSize: 0x3C }
  - { offsetInCU: 0x516A2, offset: 0x516A2, size: 0x8, addend: 0x0, symName: __ZSt12__niter_wrapIPmET_RKS1_S1_, symObjAddr: 0x30998, symBinAddr: 0x100032AD0, symSize: 0x18 }
  - { offsetInCU: 0x516DE, offset: 0x516DE, size: 0x8, addend: 0x0, symName: __ZSt14__copy_move_a1ILb0EPmS0_ET1_T0_S2_S1_, symObjAddr: 0x3096C, symBinAddr: 0x100032AA4, symSize: 0x2C }
  - { offsetInCU: 0x51746, offset: 0x51746, size: 0x8, addend: 0x0, symName: __ZSt12__niter_baseIPmET_S1_, symObjAddr: 0x30958, symBinAddr: 0x100032A90, symSize: 0x14 }
  - { offsetInCU: 0x5178F, offset: 0x5178F, size: 0x8, addend: 0x0, symName: __ZSt23__copy_move_backward_a2ILb0ESt13_Bit_iteratorS0_ET1_T0_S2_S1_, symObjAddr: 0x308D8, symBinAddr: 0x100032A10, symSize: 0x80 }
  - { offsetInCU: 0x517F7, offset: 0x517F7, size: 0x8, addend: 0x0, symName: __ZN8nlohmann16json_abi_v3_11_36detail9dtoa_impl16reinterpret_bitsIydEET_T0_, symObjAddr: 0x308BC, symBinAddr: 0x1000329F4, symSize: 0x1C }
  - { offsetInCU: 0x51848, offset: 0x51848, size: 0x8, addend: 0x0, symName: __ZN9__gnu_cxx16__aligned_bufferIN8nlohmann16json_abi_v3_11_36detail21output_string_adapterIcNSt7__cxx1112basic_stringIcSt11char_traitsIcESaIcEEEEEE6_M_ptrEv, symObjAddr: 0x308A0, symBinAddr: 0x1000329D8, symSize: 0x1C }
  - { offsetInCU: 0x51992, offset: 0x51992, size: 0x8, addend: 0x0, symName: __ZNSt23_Sp_counted_ptr_inplaceIN8nlohmann16json_abi_v3_11_36detail21output_string_adapterIcNSt7__cxx1112basic_stringIcSt11char_traitsIcESaIcEEEEESaIvELN9__gnu_cxx12_Lock_policyE2EE5_ImplC1ESB_, symObjAddr: 0x30874, symBinAddr: 0x1000329AC, symSize: 0x2C }
  - { offsetInCU: 0x51900, offset: 0x51900, size: 0x8, addend: 0x0, symName: __ZSt12__to_addressISt23_Sp_counted_ptr_inplaceIN8nlohmann16json_abi_v3_11_36detail21output_string_adapterIcNSt7__cxx1112basic_stringIcSt11char_traitsIcESaIcEEEEESaIvELN9__gnu_cxx12_Lock_policyE2EEEPT_SH_, symObjAddr: 0x30860, symBinAddr: 0x100032998, symSize: 0x14 }
  - { offsetInCU: 0x51A71, offset: 0x51A71, size: 0x8, addend: 0x0, symName: __ZNSt15__allocated_ptrISaISt23_Sp_counted_ptr_inplaceIN8nlohmann16json_abi_v3_11_36detail21output_string_adapterIcNSt7__cxx1112basic_stringIcSt11char_traitsIcESaIcEEEEESaIvELN9__gnu_cxx12_Lock_policyE2EEEEC1ERSG_PSF_, symObjAddr: 0x30820, symBinAddr: 0x100032958, symSize: 0x40 }
  - { offsetInCU: 0x51AE6, offset: 0x51AE6, size: 0x8, addend: 0x0, symName: __ZNSt15__new_allocatorISt23_Sp_counted_ptr_inplaceIN8nlohmann16json_abi_v3_11_36detail21output_string_adapterIcNSt7__cxx1112basic_stringIcSt11char_traitsIcESaIcEEEEESaIvELN9__gnu_cxx12_Lock_policyE2EEED2Ev, symObjAddr: 0x3080C, symBinAddr: 0x100032944, symSize: 0x14 }
  - { offsetInCU: 0x51A54, offset: 0x51A54, size: 0x8, addend: 0x0, symName: __ZSt18uninitialized_copyIN9__gnu_cxx17__normal_iteratorIPKhSt6vectorIhSaIhEEEEPhET0_T_SA_S9_, symObjAddr: 0x307D0, symBinAddr: 0x100032908, symSize: 0x3C }
  - { offsetInCU: 0x51AD3, offset: 0x51AD3, size: 0x8, addend: 0x0, symName: __ZNSt12_Vector_baseIhSaIhEE17_M_create_storageEm, symObjAddr: 0x30774, symBinAddr: 0x1000328AC, symSize: 0x5C }
  - { offsetInCU: 0x51B63, offset: 0x51B63, size: 0x8, addend: 0x0, symName: __ZNSt12_Vector_baseIhSaIhEE12_Vector_implC1ERKS0_, symObjAddr: 0x30728, symBinAddr: 0x100032860, symSize: 0x4C }
  - { offsetInCU: 0x51BCE, offset: 0x51BCE, size: 0x8, addend: 0x0, symName: __ZNSt11_Tuple_implILm0EJPN8nlohmann16json_abi_v3_11_327byte_container_with_subtypeISt6vectorIhSaIhEEEEZNS1_10basic_jsonISt3mapS3_NSt7__cxx1112basic_stringIcSt11char_traitsIcESaIcEEEbxydSaNS1_14adl_serializerES5_vE6createIS6_JRKS6_EEEPT_DpOT0_EUlS7_E_EE7_M_headERKSR_, symObjAddr: 0x30708, symBinAddr: 0x100032840, symSize: 0x20 }
  - { offsetInCU: 0x51BF8, offset: 0x51BF8, size: 0x8, addend: 0x0, symName: __ZSt12__get_helperILm1EZN8nlohmann16json_abi_v3_11_310basic_jsonISt3mapSt6vectorNSt7__cxx1112basic_stringIcSt11char_traitsIcESaIcEEEbxydSaNS1_14adl_serializerES4_IhSaIhEEvE6createINS1_27byte_container_with_subtypeISD_EEJRKSH_EEEPT_DpOT0_EUlPSH_E_JEERT0_RSt11_Tuple_implIXT_EJSR_DpT1_EE, symObjAddr: 0x306EC, symBinAddr: 0x100032824, symSize: 0x1C }
  - { offsetInCU: 0x51C3A, offset: 0x51C3A, size: 0x8, addend: 0x0, symName: __ZNSt11_Tuple_implILm0EJPN8nlohmann16json_abi_v3_11_327byte_container_with_subtypeISt6vectorIhSaIhEEEEZNS1_10basic_jsonISt3mapS3_NSt7__cxx1112basic_stringIcSt11char_traitsIcESaIcEEEbxydSaNS1_14adl_serializerES5_vE6createIS6_JRKS6_EEEPT_DpOT0_EUlS7_E_EE7_M_headERSR_, symObjAddr: 0x306CC, symBinAddr: 0x100032804, symSize: 0x20 }
  - { offsetInCU: 0x51D8E, offset: 0x51D8E, size: 0x8, addend: 0x0, symName: __ZNSt11_Tuple_implILm1EJZN8nlohmann16json_abi_v3_11_310basic_jsonISt3mapSt6vectorNSt7__cxx1112basic_stringIcSt11char_traitsIcESaIcEEEbxydSaNS1_14adl_serializerES4_IhSaIhEEvE6createINS1_27byte_container_with_subtypeISD_EEJRKSH_EEEPT_DpOT0_EUlPSH_E_EEC2ERKSQ_, symObjAddr: 0x306A4, symBinAddr: 0x1000327DC, symSize: 0x28 }
  - { offsetInCU: 0x51CBB, offset: 0x51CBB, size: 0x8, addend: 0x0, symName: __ZNSt11_Tuple_implILm0EJPNSt7__cxx1112basic_stringIcSt11char_traitsIcESaIcEEEZN8nlohmann16json_abi_v3_11_310basic_jsonISt3mapSt6vectorS5_bxydSaNS8_14adl_serializerESB_IhSaIhEEvE6createIS5_JRKS5_EEEPT_DpOT0_EUlS6_E_EE7_M_headERKSP_, symObjAddr: 0x30684, symBinAddr: 0x1000327BC, symSize: 0x20 }
  - { offsetInCU: 0x51CE5, offset: 0x51CE5, size: 0x8, addend: 0x0, symName: __ZSt12__get_helperILm1EZN8nlohmann16json_abi_v3_11_310basic_jsonISt3mapSt6vectorNSt7__cxx1112basic_stringIcSt11char_traitsIcESaIcEEEbxydSaNS1_14adl_serializerES4_IhSaIhEEvE6createISA_JRKSA_EEEPT_DpOT0_EUlPSA_E_JEERT0_RSt11_Tuple_implIXT_EJSP_DpT1_EE, symObjAddr: 0x30668, symBinAddr: 0x1000327A0, symSize: 0x1C }
  - { offsetInCU: 0x51D27, offset: 0x51D27, size: 0x8, addend: 0x0, symName: __ZNSt11_Tuple_implILm0EJPNSt7__cxx1112basic_stringIcSt11char_traitsIcESaIcEEEZN8nlohmann16json_abi_v3_11_310basic_jsonISt3mapSt6vectorS5_bxydSaNS8_14adl_serializerESB_IhSaIhEEvE6createIS5_JRKS5_EEEPT_DpOT0_EUlS6_E_EE7_M_headERSP_, symObjAddr: 0x30648, symBinAddr: 0x100032780, symSize: 0x20 }
  - { offsetInCU: 0x51E57, offset: 0x51E57, size: 0x8, addend: 0x0, symName: __ZNSt11_Tuple_implILm1EJZN8nlohmann16json_abi_v3_11_310basic_jsonISt3mapSt6vectorNSt7__cxx1112basic_stringIcSt11char_traitsIcESaIcEEEbxydSaNS1_14adl_serializerES4_IhSaIhEEvE6createISA_JRKSA_EEEPT_DpOT0_EUlPSA_E_EEC2ERKSO_, symObjAddr: 0x30620, symBinAddr: 0x100032758, symSize: 0x28 }
  - { offsetInCU: 0x51DA8, offset: 0x51DA8, size: 0x8, addend: 0x0, symName: __ZSt18uninitialized_copyIN9__gnu_cxx17__normal_iteratorIPKN8nlohmann16json_abi_v3_11_310basic_jsonISt3mapSt6vectorNSt7__cxx1112basic_stringIcSt11char_traitsIcESaIcEEEbxydSaNS3_14adl_serializerES6_IhSaIhEEvEES6_ISG_SaISG_EEEEPSG_ET0_T_SO_SN_, symObjAddr: 0x305EC, symBinAddr: 0x100032724, symSize: 0x34 }
  - { offsetInCU: 0x51E27, offset: 0x51E27, size: 0x8, addend: 0x0, symName: __ZNSt12_Vector_baseIN8nlohmann16json_abi_v3_11_310basic_jsonISt3mapSt6vectorNSt7__cxx1112basic_stringIcSt11char_traitsIcESaIcEEEbxydSaNS1_14adl_serializerES4_IhSaIhEEvEESaISE_EE17_M_create_storageEm, symObjAddr: 0x3058C, symBinAddr: 0x1000326C4, symSize: 0x60 }
  - { offsetInCU: 0x51E74, offset: 0x51E74, size: 0x8, addend: 0x0, symName: __ZNSt11_Tuple_implILm0EJPSt6vectorIN8nlohmann16json_abi_v3_11_310basic_jsonISt3mapS0_NSt7__cxx1112basic_stringIcSt11char_traitsIcESaIcEEEbxydSaNS2_14adl_serializerES0_IhSaIhEEvEESaISE_EEZNSE_6createISG_JRKSG_EEEPT_DpOT0_EUlSH_E_EE7_M_headERKSR_, symObjAddr: 0x3056C, symBinAddr: 0x1000326A4, symSize: 0x20 }
  - { offsetInCU: 0x51E9E, offset: 0x51E9E, size: 0x8, addend: 0x0, symName: __ZSt12__get_helperILm1EZN8nlohmann16json_abi_v3_11_310basic_jsonISt3mapSt6vectorNSt7__cxx1112basic_stringIcSt11char_traitsIcESaIcEEEbxydSaNS1_14adl_serializerES4_IhSaIhEEvE6createIS4_ISE_SaISE_EEJRKSH_EEEPT_DpOT0_EUlPSH_E_JEERT0_RSt11_Tuple_implIXT_EJSR_DpT1_EE, symObjAddr: 0x30550, symBinAddr: 0x100032688, symSize: 0x1C }
  - { offsetInCU: 0x51EE0, offset: 0x51EE0, size: 0x8, addend: 0x0, symName: __ZNSt11_Tuple_implILm0EJPSt6vectorIN8nlohmann16json_abi_v3_11_310basic_jsonISt3mapS0_NSt7__cxx1112basic_stringIcSt11char_traitsIcESaIcEEEbxydSaNS2_14adl_serializerES0_IhSaIhEEvEESaISE_EEZNSE_6createISG_JRKSG_EEEPT_DpOT0_EUlSH_E_EE7_M_headERSR_, symObjAddr: 0x30530, symBinAddr: 0x100032668, symSize: 0x20 }
  - { offsetInCU: 0x5201C, offset: 0x5201C, size: 0x8, addend: 0x0, symName: __ZNSt11_Tuple_implILm1EJZN8nlohmann16json_abi_v3_11_310basic_jsonISt3mapSt6vectorNSt7__cxx1112basic_stringIcSt11char_traitsIcESaIcEEEbxydSaNS1_14adl_serializerES4_IhSaIhEEvE6createIS4_ISE_SaISE_EEJRKSH_EEEPT_DpOT0_EUlPSH_E_EEC2ERKSQ_, symObjAddr: 0x30508, symBinAddr: 0x100032640, symSize: 0x28 }
  - { offsetInCU: 0x51F65, offset: 0x51F65, size: 0x8, addend: 0x0, symName: __ZNSt8_Rb_treeINSt7__cxx1112basic_stringIcSt11char_traitsIcESaIcEEESt4pairIKS5_N8nlohmann16json_abi_v3_11_310basic_jsonISt3mapSt6vectorS5_bxydSaNS9_14adl_serializerESC_IhSaIhEEvEEESt10_Select1stISH_ESt4lessIvESaISH_EE7_M_copyILb0ENSN_11_Alloc_nodeEEEPSt13_Rb_tree_nodeISH_ERKSN_RT0_, symObjAddr: 0x30474, symBinAddr: 0x1000325AC, symSize: 0x94 }
  - { offsetInCU: 0x520E7, offset: 0x520E7, size: 0x8, addend: 0x0, symName: __ZNSt8_Rb_treeINSt7__cxx1112basic_stringIcSt11char_traitsIcESaIcEEESt4pairIKS5_N8nlohmann16json_abi_v3_11_310basic_jsonISt3mapSt6vectorS5_bxydSaNS9_14adl_serializerESC_IhSaIhEEvEEESt10_Select1stISH_ESt4lessIvESaISH_EE11_Alloc_nodeC1ERSN_, symObjAddr: 0x30450, symBinAddr: 0x100032588, symSize: 0x24 }
  - { offsetInCU: 0x5207F, offset: 0x5207F, size: 0x8, addend: 0x0, symName: __ZNSt20_Rb_tree_key_compareISt4lessIvEEC2ERKS1_, symObjAddr: 0x30438, symBinAddr: 0x100032570, symSize: 0x18 }
  - { offsetInCU: 0x520B6, offset: 0x520B6, size: 0x8, addend: 0x0, symName: __ZNSt11_Tuple_implILm0EJPSt3mapINSt7__cxx1112basic_stringIcSt11char_traitsIcESaIcEEEN8nlohmann16json_abi_v3_11_310basic_jsonIS0_St6vectorS6_bxydSaNS8_14adl_serializerESA_IhSaIhEEvEESt4lessIvESaISt4pairIKS6_SE_EEEZNSE_6createISL_JRKSL_EEEPT_DpOT0_EUlSM_E_EE7_M_headERKSW_, symObjAddr: 0x30418, symBinAddr: 0x100032550, symSize: 0x20 }
  - { offsetInCU: 0x520E0, offset: 0x520E0, size: 0x8, addend: 0x0, symName: __ZSt12__get_helperILm1EZN8nlohmann16json_abi_v3_11_310basic_jsonISt3mapSt6vectorNSt7__cxx1112basic_stringIcSt11char_traitsIcESaIcEEEbxydSaNS1_14adl_serializerES4_IhSaIhEEvE6createIS3_ISA_SE_St4lessIvESaISt4pairIKSA_SE_EEEJRKSM_EEEPT_DpOT0_EUlPSM_E_JEERT0_RSt11_Tuple_implIXT_EJSW_DpT1_EE, symObjAddr: 0x303FC, symBinAddr: 0x100032534, symSize: 0x1C }
  - { offsetInCU: 0x52122, offset: 0x52122, size: 0x8, addend: 0x0, symName: __ZNSt11_Tuple_implILm0EJPSt3mapINSt7__cxx1112basic_stringIcSt11char_traitsIcESaIcEEEN8nlohmann16json_abi_v3_11_310basic_jsonIS0_St6vectorS6_bxydSaNS8_14adl_serializerESA_IhSaIhEEvEESt4lessIvESaISt4pairIKS6_SE_EEEZNSE_6createISL_JRKSL_EEEPT_DpOT0_EUlSM_E_EE7_M_headERSW_, symObjAddr: 0x303DC, symBinAddr: 0x100032514, symSize: 0x20 }
  - { offsetInCU: 0x52278, offset: 0x52278, size: 0x8, addend: 0x0, symName: __ZNSt11_Tuple_implILm1EJZN8nlohmann16json_abi_v3_11_310basic_jsonISt3mapSt6vectorNSt7__cxx1112basic_stringIcSt11char_traitsIcESaIcEEEbxydSaNS1_14adl_serializerES4_IhSaIhEEvE6createIS3_ISA_SE_St4lessIvESaISt4pairIKSA_SE_EEEJRKSM_EEEPT_DpOT0_EUlPSM_E_EEC2ERKSV_, symObjAddr: 0x303B4, symBinAddr: 0x1000324EC, symSize: 0x28 }
  - { offsetInCU: 0x521A3, offset: 0x521A3, size: 0x8, addend: 0x0, symName: __ZSt23__copy_move_backward_a2ILb1EPSt4pairIiS0_IiiEES3_ET1_T0_S5_S4_, symObjAddr: 0x30388, symBinAddr: 0x1000324C0, symSize: 0x2C }
  - { offsetInCU: 0x5220F, offset: 0x5220F, size: 0x8, addend: 0x0, symName: __ZNSt4pairIiS_IiiEE4swapERS1_, symObjAddr: 0x30344, symBinAddr: 0x10003247C, symSize: 0x44 }
  - { offsetInCU: 0x5224D, offset: 0x5224D, size: 0x8, addend: 0x0, symName: __ZSt11__push_heapIN9__gnu_cxx17__normal_iteratorIPSt4pairIiS2_IiiEESt6vectorIS4_SaIS4_EEEElS4_NS0_5__ops14_Iter_less_valEEvT_T0_SD_T1_RT2_, symObjAddr: 0x30204, symBinAddr: 0x10003233C, symSize: 0x140 }
  - { offsetInCU: 0x522FA, offset: 0x522FA, size: 0x8, addend: 0x0, symName: __ZSt4moveIRN9__gnu_cxx5__ops15_Iter_less_iterEEONSt16remove_referenceIT_E4typeEOS5_, symObjAddr: 0x301F0, symBinAddr: 0x100032328, symSize: 0x14 }
  - { offsetInCU: 0x523B0, offset: 0x523B0, size: 0x8, addend: 0x0, symName: __ZSt13__copy_move_aILb1EPiS0_ET1_T0_S2_S1_, symObjAddr: 0x30190, symBinAddr: 0x1000322C8, symSize: 0x60 }
  - { offsetInCU: 0x52418, offset: 0x52418, size: 0x8, addend: 0x0, symName: __ZSt12__miter_baseIPiEDTcl12__miter_basecldtfp_4baseEEESt13move_iteratorIT_E, symObjAddr: 0x30170, symBinAddr: 0x1000322A8, symSize: 0x20 }
  - { offsetInCU: 0x5244B, offset: 0x5244B, size: 0x8, addend: 0x0, symName: __ZNSt11__copy_moveILb1ELb0ESt26random_access_iterator_tagE12__assign_oneIiiEEvPT_PT0_, symObjAddr: 0x30140, symBinAddr: 0x100032278, symSize: 0x30 }
  - { offsetInCU: 0x524DA, offset: 0x524DA, size: 0x8, addend: 0x0, symName: __ZNSt15__new_allocatorIhED2Ev, symObjAddr: 0x3012C, symBinAddr: 0x100032264, symSize: 0x14 }
  - { offsetInCU: 0x5252F, offset: 0x5252F, size: 0x8, addend: 0x0, symName: __ZNSt12_Vector_baseIhSaIhEE17_Vector_impl_dataC2Ev, symObjAddr: 0x30100, symBinAddr: 0x100032238, symSize: 0x2C }
  - { offsetInCU: 0x52538, offset: 0x52538, size: 0x8, addend: 0x0, symName: __ZNSt11_Tuple_implILm0EJPN8nlohmann16json_abi_v3_11_327byte_container_with_subtypeISt6vectorIhSaIhEEEEZNS1_10basic_jsonISt3mapS3_NSt7__cxx1112basic_stringIcSt11char_traitsIcESaIcEEEbxydSaNS1_14adl_serializerES5_vE6createIS6_JEEEPT_DpOT0_EUlS7_E_EE7_M_headERKSP_, symObjAddr: 0x300E0, symBinAddr: 0x100032218, symSize: 0x20 }
  - { offsetInCU: 0x52562, offset: 0x52562, size: 0x8, addend: 0x0, symName: __ZSt12__get_helperILm1EZN8nlohmann16json_abi_v3_11_310basic_jsonISt3mapSt6vectorNSt7__cxx1112basic_stringIcSt11char_traitsIcESaIcEEEbxydSaNS1_14adl_serializerES4_IhSaIhEEvE6createINS1_27byte_container_with_subtypeISD_EEJEEEPT_DpOT0_EUlPSH_E_JEERT0_RSt11_Tuple_implIXT_EJSP_DpT1_EE, symObjAddr: 0x300C4, symBinAddr: 0x1000321FC, symSize: 0x1C }
  - { offsetInCU: 0x525A4, offset: 0x525A4, size: 0x8, addend: 0x0, symName: __ZNSt11_Tuple_implILm0EJPN8nlohmann16json_abi_v3_11_327byte_container_with_subtypeISt6vectorIhSaIhEEEEZNS1_10basic_jsonISt3mapS3_NSt7__cxx1112basic_stringIcSt11char_traitsIcESaIcEEEbxydSaNS1_14adl_serializerES5_vE6createIS6_JEEEPT_DpOT0_EUlS7_E_EE7_M_headERSP_, symObjAddr: 0x300A4, symBinAddr: 0x1000321DC, symSize: 0x20 }
  - { offsetInCU: 0x52674, offset: 0x52674, size: 0x8, addend: 0x0, symName: __ZNSt10_Head_baseILm0EPN8nlohmann16json_abi_v3_11_327byte_container_with_subtypeISt6vectorIhSaIhEEEELb0EEC2IRS7_EEOT_, symObjAddr: 0x30074, symBinAddr: 0x1000321AC, symSize: 0x30 }
  - { offsetInCU: 0x5275B, offset: 0x5275B, size: 0x8, addend: 0x0, symName: __ZNSt11_Tuple_implILm1EJZN8nlohmann16json_abi_v3_11_310basic_jsonISt3mapSt6vectorNSt7__cxx1112basic_stringIcSt11char_traitsIcESaIcEEEbxydSaNS1_14adl_serializerES4_IhSaIhEEvE6createINS1_27byte_container_with_subtypeISD_EEJEEEPT_DpOT0_EUlPSH_E_EEC2ERKSO_, symObjAddr: 0x3004C, symBinAddr: 0x100032184, symSize: 0x28 }
  - { offsetInCU: 0x5268D, offset: 0x5268D, size: 0x8, addend: 0x0, symName: __ZNSt11_Tuple_implILm0EJPNSt7__cxx1112basic_stringIcSt11char_traitsIcESaIcEEEZN8nlohmann16json_abi_v3_11_310basic_jsonISt3mapSt6vectorS5_bxydSaNS8_14adl_serializerESB_IhSaIhEEvE6createIS5_JRA1_KcEEEPT_DpOT0_EUlS6_E_EE7_M_headERKSQ_, symObjAddr: 0x3002C, symBinAddr: 0x100032164, symSize: 0x20 }
  - { offsetInCU: 0x526B7, offset: 0x526B7, size: 0x8, addend: 0x0, symName: __ZSt12__get_helperILm1EZN8nlohmann16json_abi_v3_11_310basic_jsonISt3mapSt6vectorNSt7__cxx1112basic_stringIcSt11char_traitsIcESaIcEEEbxydSaNS1_14adl_serializerES4_IhSaIhEEvE6createISA_JRA1_KcEEEPT_DpOT0_EUlPSA_E_JEERT0_RSt11_Tuple_implIXT_EJSQ_DpT1_EE, symObjAddr: 0x30010, symBinAddr: 0x100032148, symSize: 0x1C }
  - { offsetInCU: 0x526F9, offset: 0x526F9, size: 0x8, addend: 0x0, symName: __ZNSt11_Tuple_implILm0EJPNSt7__cxx1112basic_stringIcSt11char_traitsIcESaIcEEEZN8nlohmann16json_abi_v3_11_310basic_jsonISt3mapSt6vectorS5_bxydSaNS8_14adl_serializerESB_IhSaIhEEvE6createIS5_JRA1_KcEEEPT_DpOT0_EUlS6_E_EE7_M_headERSQ_, symObjAddr: 0x2FFF0, symBinAddr: 0x100032128, symSize: 0x20 }
  - { offsetInCU: 0x527B0, offset: 0x527B0, size: 0x8, addend: 0x0, symName: __ZNSt10_Head_baseILm0EPNSt7__cxx1112basic_stringIcSt11char_traitsIcESaIcEEELb0EEC2IRS6_EEOT_, symObjAddr: 0x2FFC0, symBinAddr: 0x1000320F8, symSize: 0x30 }
  - { offsetInCU: 0x52892, offset: 0x52892, size: 0x8, addend: 0x0, symName: __ZNSt11_Tuple_implILm1EJZN8nlohmann16json_abi_v3_11_310basic_jsonISt3mapSt6vectorNSt7__cxx1112basic_stringIcSt11char_traitsIcESaIcEEEbxydSaNS1_14adl_serializerES4_IhSaIhEEvE6createISA_JRA1_KcEEEPT_DpOT0_EUlPSA_E_EEC2ERKSP_, symObjAddr: 0x2FF98, symBinAddr: 0x1000320D0, symSize: 0x28 }
  - { offsetInCU: 0x527E2, offset: 0x527E2, size: 0x8, addend: 0x0, symName: __ZNSt11_Tuple_implILm0EJPSt6vectorIN8nlohmann16json_abi_v3_11_310basic_jsonISt3mapS0_NSt7__cxx1112basic_stringIcSt11char_traitsIcESaIcEEEbxydSaNS2_14adl_serializerES0_IhSaIhEEvEESaISE_EEZNSE_6createISG_JEEEPT_DpOT0_EUlSH_E_EE7_M_headERKSP_, symObjAddr: 0x2FF78, symBinAddr: 0x1000320B0, symSize: 0x20 }
  - { offsetInCU: 0x5280C, offset: 0x5280C, size: 0x8, addend: 0x0, symName: __ZSt12__get_helperILm1EZN8nlohmann16json_abi_v3_11_310basic_jsonISt3mapSt6vectorNSt7__cxx1112basic_stringIcSt11char_traitsIcESaIcEEEbxydSaNS1_14adl_serializerES4_IhSaIhEEvE6createIS4_ISE_SaISE_EEJEEEPT_DpOT0_EUlPSH_E_JEERT0_RSt11_Tuple_implIXT_EJSP_DpT1_EE, symObjAddr: 0x2FF5C, symBinAddr: 0x100032094, symSize: 0x1C }
  - { offsetInCU: 0x5284E, offset: 0x5284E, size: 0x8, addend: 0x0, symName: __ZNSt11_Tuple_implILm0EJPSt6vectorIN8nlohmann16json_abi_v3_11_310basic_jsonISt3mapS0_NSt7__cxx1112basic_stringIcSt11char_traitsIcESaIcEEEbxydSaNS2_14adl_serializerES0_IhSaIhEEvEESaISE_EEZNSE_6createISG_JEEEPT_DpOT0_EUlSH_E_EE7_M_headERSP_, symObjAddr: 0x2FF3C, symBinAddr: 0x100032074, symSize: 0x20 }
  - { offsetInCU: 0x52985, offset: 0x52985, size: 0x8, addend: 0x0, symName: __ZNSt11_Tuple_implILm1EJZN8nlohmann16json_abi_v3_11_310basic_jsonISt3mapSt6vectorNSt7__cxx1112basic_stringIcSt11char_traitsIcESaIcEEEbxydSaNS1_14adl_serializerES4_IhSaIhEEvE6createIS4_ISE_SaISE_EEJEEEPT_DpOT0_EUlPSH_E_EEC2ERKSO_, symObjAddr: 0x2FF14, symBinAddr: 0x10003204C, symSize: 0x28 }
  - { offsetInCU: 0x52933, offset: 0x52933, size: 0x8, addend: 0x0, symName: __ZNSt11_Tuple_implILm0EJPSt3mapINSt7__cxx1112basic_stringIcSt11char_traitsIcESaIcEEEN8nlohmann16json_abi_v3_11_310basic_jsonIS0_St6vectorS6_bxydSaNS8_14adl_serializerESA_IhSaIhEEvEESt4lessIvESaISt4pairIKS6_SE_EEEZNSE_6createISL_JEEEPT_DpOT0_EUlSM_E_EE7_M_headERKSU_, symObjAddr: 0x2FEF4, symBinAddr: 0x10003202C, symSize: 0x20 }
  - { offsetInCU: 0x5295D, offset: 0x5295D, size: 0x8, addend: 0x0, symName: __ZSt12__get_helperILm1EZN8nlohmann16json_abi_v3_11_310basic_jsonISt3mapSt6vectorNSt7__cxx1112basic_stringIcSt11char_traitsIcESaIcEEEbxydSaNS1_14adl_serializerES4_IhSaIhEEvE6createIS3_ISA_SE_St4lessIvESaISt4pairIKSA_SE_EEEJEEEPT_DpOT0_EUlPSM_E_JEERT0_RSt11_Tuple_implIXT_EJSU_DpT1_EE, symObjAddr: 0x2FED8, symBinAddr: 0x100032010, symSize: 0x1C }
  - { offsetInCU: 0x5299F, offset: 0x5299F, size: 0x8, addend: 0x0, symName: __ZNSt11_Tuple_implILm0EJPSt3mapINSt7__cxx1112basic_stringIcSt11char_traitsIcESaIcEEEN8nlohmann16json_abi_v3_11_310basic_jsonIS0_St6vectorS6_bxydSaNS8_14adl_serializerESA_IhSaIhEEvEESt4lessIvESaISt4pairIKS6_SE_EEEZNSE_6createISL_JEEEPT_DpOT0_EUlSM_E_EE7_M_headERSU_, symObjAddr: 0x2FEB8, symBinAddr: 0x100031FF0, symSize: 0x20 }
  - { offsetInCU: 0x52ADD, offset: 0x52ADD, size: 0x8, addend: 0x0, symName: __ZNSt10_Head_baseILm0EPSt3mapINSt7__cxx1112basic_stringIcSt11char_traitsIcESaIcEEEN8nlohmann16json_abi_v3_11_310basic_jsonIS0_St6vectorS6_bxydSaNS8_14adl_serializerESA_IhSaIhEEvEESt4lessIvESaISt4pairIKS6_SE_EEELb0EEC2IRSM_EEOT_, symObjAddr: 0x2FE88, symBinAddr: 0x100031FC0, symSize: 0x30 }
  - { offsetInCU: 0x52B58, offset: 0x52B58, size: 0x8, addend: 0x0, symName: __ZNSt11_Tuple_implILm1EJZN8nlohmann16json_abi_v3_11_310basic_jsonISt3mapSt6vectorNSt7__cxx1112basic_stringIcSt11char_traitsIcESaIcEEEbxydSaNS1_14adl_serializerES4_IhSaIhEEvE6createIS3_ISA_SE_St4lessIvESaISt4pairIKSA_SE_EEEJEEEPT_DpOT0_EUlPSM_E_EEC2ERKST_, symObjAddr: 0x2FE60, symBinAddr: 0x100031F98, symSize: 0x28 }
  - { offsetInCU: 0x52AB5, offset: 0x52AB5, size: 0x8, addend: 0x0, symName: __ZSt22__uninitialized_copy_aIN9__gnu_cxx17__normal_iteratorIPKiSt6vectorIiSaIiEEEEPiiET0_T_SA_S9_RSaIT1_E, symObjAddr: 0x2FE30, symBinAddr: 0x100031F68, symSize: 0x30 }
  - { offsetInCU: 0x52B3A, offset: 0x52B3A, size: 0x8, addend: 0x0, symName: __ZSt22__uninitialized_copy_aIPiS0_iET0_T_S2_S1_RSaIT1_E, symObjAddr: 0x2FE00, symBinAddr: 0x100031F38, symSize: 0x30 }
  - { offsetInCU: 0x52BAA, offset: 0x52BAA, size: 0x8, addend: 0x0, symName: __ZSt4copyIPiS0_ET0_T_S2_S1_, symObjAddr: 0x2FDB8, symBinAddr: 0x100031EF0, symSize: 0x48 }
  - { offsetInCU: 0x52C43, offset: 0x52C43, size: 0x8, addend: 0x0, symName: __ZSt4copyIN9__gnu_cxx17__normal_iteratorIPKiSt6vectorIiSaIiEEEENS1_IPiS6_EEET0_T_SB_SA_, symObjAddr: 0x2FD70, symBinAddr: 0x100031EA8, symSize: 0x48 }
  - { offsetInCU: 0x52CA5, offset: 0x52CA5, size: 0x8, addend: 0x0, symName: __ZNSt6vectorIiSaIiEE20_M_allocate_and_copyIN9__gnu_cxx17__normal_iteratorIPKiS1_EEEEPimT_S9_, symObjAddr: 0x2FCEC, symBinAddr: 0x100031E24, symSize: 0x84 }
  - { offsetInCU: 0x52D1C, offset: 0x52D1C, size: 0x8, addend: 0x0, symName: __ZNKSt6vectorIiSaIiEE3endEv, symObjAddr: 0x2FCC4, symBinAddr: 0x100031DFC, symSize: 0x28 }
  - { offsetInCU: 0x52D46, offset: 0x52D46, size: 0x8, addend: 0x0, symName: __ZNKSt6vectorIiSaIiEE5beginEv, symObjAddr: 0x2FCA0, symBinAddr: 0x100031DD8, symSize: 0x24 }
  - { offsetInCU: 0x52D70, offset: 0x52D70, size: 0x8, addend: 0x0, symName: __ZNKSt6vectorIiSaIiEE8capacityEv, symObjAddr: 0x2FC78, symBinAddr: 0x100031DB0, symSize: 0x28 }
  - { offsetInCU: 0x52DC7, offset: 0x52DC7, size: 0x8, addend: 0x0, symName: __ZNSt6vectorIiSaIiEE5clearEv, symObjAddr: 0x2FC4C, symBinAddr: 0x100031D84, symSize: 0x2C }
  - { offsetInCU: 0x52EB8, offset: 0x52EB8, size: 0x8, addend: 0x0, symName: __ZNSt4pairIKiSt6vectorIS1_IiSaIiEESaIS3_EEEC1IJRS0_EJEEESt21piecewise_construct_tSt5tupleIJDpT_EESA_IJDpT0_EE, symObjAddr: 0x2FC10, symBinAddr: 0x100031D48, symSize: 0x3C }
  - { offsetInCU: 0x52EE9, offset: 0x52EE9, size: 0x8, addend: 0x0, symName: __ZNSt11_Tuple_implILm0EJRKiEEC2EOS2_, symObjAddr: 0x2FBE8, symBinAddr: 0x100031D20, symSize: 0x28 }
  - { offsetInCU: 0x52EFA, offset: 0x52EFA, size: 0x8, addend: 0x0, symName: __ZSt7forwardIRKSt6vectorIiSaIiEEEOT_RNSt16remove_referenceIS5_E4typeE, symObjAddr: 0x2FBD4, symBinAddr: 0x100031D0C, symSize: 0x14 }
  - { offsetInCU: 0x52F2C, offset: 0x52F2C, size: 0x8, addend: 0x0, symName: __ZSt8__fill_aIPiiEvT_S1_RKT0_, symObjAddr: 0x2FBA4, symBinAddr: 0x100031CDC, symSize: 0x30 }
  - { offsetInCU: 0x52F8A, offset: 0x52F8A, size: 0x8, addend: 0x0, symName: __ZSt22__uninitialized_copy_aIPKN8nlohmann16json_abi_v3_11_36detail8json_refINS1_10basic_jsonISt3mapSt6vectorNSt7__cxx1112basic_stringIcSt11char_traitsIcESaIcEEEbxydSaNS1_14adl_serializerES6_IhSaIhEEvEEEEPSG_SG_ET0_T_SM_SL_RSaIT1_E, symObjAddr: 0x2FB74, symBinAddr: 0x100031CAC, symSize: 0x30 }
  - { offsetInCU: 0x52FFA, offset: 0x52FFA, size: 0x8, addend: 0x0, symName: __ZNSt6vectorIN8nlohmann16json_abi_v3_11_310basic_jsonISt3mapS_NSt7__cxx1112basic_stringIcSt11char_traitsIcESaIcEEEbxydSaNS1_14adl_serializerES_IhSaIhEEvEESaISD_EE17_S_check_init_lenEmRKSE_, symObjAddr: 0x2FAF0, symBinAddr: 0x100031C28, symSize: 0x84 }
  - { offsetInCU: 0x531CB, offset: 0x531CB, size: 0x8, addend: 0x0, symName: __ZNSt12_Vector_baseIN8nlohmann16json_abi_v3_11_310basic_jsonISt3mapSt6vectorNSt7__cxx1112basic_stringIcSt11char_traitsIcESaIcEEEbxydSaNS1_14adl_serializerES4_IhSaIhEEvEESaISE_EE12_Vector_implC1ERKSF_, symObjAddr: 0x2FAA4, symBinAddr: 0x100031BDC, symSize: 0x4C }
  - { offsetInCU: 0x5318A, offset: 0x5318A, size: 0x8, addend: 0x0, symName: __ZNSt11_Tuple_implILm0EJPSt6vectorIN8nlohmann16json_abi_v3_11_310basic_jsonISt3mapS0_NSt7__cxx1112basic_stringIcSt11char_traitsIcESaIcEEEbxydSaNS2_14adl_serializerES0_IhSaIhEEvEESaISE_EEZNSE_6createISG_JPKNS2_6detail8json_refISE_EESN_EEEPT_DpOT0_EUlSH_E_EE7_M_headERKSU_, symObjAddr: 0x2FA84, symBinAddr: 0x100031BBC, symSize: 0x20 }
  - { offsetInCU: 0x531B4, offset: 0x531B4, size: 0x8, addend: 0x0, symName: __ZSt12__get_helperILm1EZN8nlohmann16json_abi_v3_11_310basic_jsonISt3mapSt6vectorNSt7__cxx1112basic_stringIcSt11char_traitsIcESaIcEEEbxydSaNS1_14adl_serializerES4_IhSaIhEEvE6createIS4_ISE_SaISE_EEJPKNS1_6detail8json_refISE_EESM_EEEPT_DpOT0_EUlPSH_E_JEERT0_RSt11_Tuple_implIXT_EJSU_DpT1_EE, symObjAddr: 0x2FA68, symBinAddr: 0x100031BA0, symSize: 0x1C }
  - { offsetInCU: 0x531F6, offset: 0x531F6, size: 0x8, addend: 0x0, symName: __ZNSt11_Tuple_implILm0EJPSt6vectorIN8nlohmann16json_abi_v3_11_310basic_jsonISt3mapS0_NSt7__cxx1112basic_stringIcSt11char_traitsIcESaIcEEEbxydSaNS2_14adl_serializerES0_IhSaIhEEvEESaISE_EEZNSE_6createISG_JPKNS2_6detail8json_refISE_EESN_EEEPT_DpOT0_EUlSH_E_EE7_M_headERSU_, symObjAddr: 0x2FA48, symBinAddr: 0x100031B80, symSize: 0x20 }
  - { offsetInCU: 0x5331A, offset: 0x5331A, size: 0x8, addend: 0x0, symName: __ZNSt10_Head_baseILm0EPSt6vectorIN8nlohmann16json_abi_v3_11_310basic_jsonISt3mapS0_NSt7__cxx1112basic_stringIcSt11char_traitsIcESaIcEEEbxydSaNS2_14adl_serializerES0_IhSaIhEEvEESaISE_EELb0EEC2IRSH_EEOT_, symObjAddr: 0x2FA18, symBinAddr: 0x100031B50, symSize: 0x30 }
  - { offsetInCU: 0x533B4, offset: 0x533B4, size: 0x8, addend: 0x0, symName: __ZNSt11_Tuple_implILm1EJZN8nlohmann16json_abi_v3_11_310basic_jsonISt3mapSt6vectorNSt7__cxx1112basic_stringIcSt11char_traitsIcESaIcEEEbxydSaNS1_14adl_serializerES4_IhSaIhEEvE6createIS4_ISE_SaISE_EEJPKNS1_6detail8json_refISE_EESM_EEEPT_DpOT0_EUlPSH_E_EEC2ERKST_, symObjAddr: 0x2F9F0, symBinAddr: 0x100031B28, symSize: 0x28 }
  - { offsetInCU: 0x533B4, offset: 0x533B4, size: 0x8, addend: 0x0, symName: __ZNSt8_Rb_treeINSt7__cxx1112basic_stringIcSt11char_traitsIcESaIcEEESt4pairIKS5_N8nlohmann16json_abi_v3_11_310basic_jsonISt3mapSt6vectorS5_bxydSaNS9_14adl_serializerESC_IhSaIhEEvEEESt10_Select1stISH_ESt4lessIvESaISH_EE21_M_get_Node_allocatorEv, symObjAddr: 0x2F9DC, symBinAddr: 0x100031B14, symSize: 0x14 }
  - { offsetInCU: 0x533DA, offset: 0x533DA, size: 0x8, addend: 0x0, symName: __ZSt14__copy_move_a1ILb0EPKiPiET1_T0_S4_S3_, symObjAddr: 0x2F9B0, symBinAddr: 0x100031AE8, symSize: 0x2C }
  - { offsetInCU: 0x53442, offset: 0x53442, size: 0x8, addend: 0x0, symName: __ZSt12__niter_baseIPKiET_S2_, symObjAddr: 0x2F99C, symBinAddr: 0x100031AD4, symSize: 0x14 }
  - { offsetInCU: 0x53475, offset: 0x53475, size: 0x8, addend: 0x0, symName: __ZSt8_DestroyIPhEvT_S1_, symObjAddr: 0x2F974, symBinAddr: 0x100031AAC, symSize: 0x28 }
  - { offsetInCU: 0x534BB, offset: 0x534BB, size: 0x8, addend: 0x0, symName: __ZNSt12_Vector_baseIhSaIhEE13_M_deallocateEPhm, symObjAddr: 0x2F91C, symBinAddr: 0x100031A54, symSize: 0x58 }
  - { offsetInCU: 0x53539, offset: 0x53539, size: 0x8, addend: 0x0, symName: __ZNSt11__copy_moveILb1ELb0ESt26random_access_iterator_tagE8__copy_mIPN8nlohmann16json_abi_v3_11_310basic_jsonISt3mapSt6vectorNSt7__cxx1112basic_stringIcSt11char_traitsIcESaIcEEEbxydSaNS4_14adl_serializerES7_IhSaIhEEvEESt20back_insert_iteratorIS7_ISH_SaISH_EEEEET0_T_SO_SN_, symObjAddr: 0x2F894, symBinAddr: 0x1000319CC, symSize: 0x88 }
  - { offsetInCU: 0x535DE, offset: 0x535DE, size: 0x8, addend: 0x0, symName: __ZSt8_DestroyIN8nlohmann16json_abi_v3_11_310basic_jsonISt3mapSt6vectorNSt7__cxx1112basic_stringIcSt11char_traitsIcESaIcEEEbxydSaNS1_14adl_serializerES4_IhSaIhEEvEEEvPT_, symObjAddr: 0x2F874, symBinAddr: 0x1000319AC, symSize: 0x20 }
  - { offsetInCU: 0x53827, offset: 0x53827, size: 0x8, addend: 0x0, symName: __ZN8nlohmann16json_abi_v3_11_36detail11concat_intoINSt7__cxx1112basic_stringIcSt11char_traitsIcESaIcEEERA3_KcJS8_RKS8_ELi0EEEvRT_OT0_DpOT1_, symObjAddr: 0x2F810, symBinAddr: 0x100031948, symSize: 0x64 }
  - { offsetInCU: 0x5389D, offset: 0x5389D, size: 0x8, addend: 0x0, symName: __ZN8nlohmann16json_abi_v3_11_36detail13concat_lengthIJNSt7__cxx1112basic_stringIcSt11char_traitsIcESaIcEEES8_EEEmPKcDpRKT_, symObjAddr: 0x2F7D0, symBinAddr: 0x100031908, symSize: 0x40 }
  - { offsetInCU: 0x538F4, offset: 0x538F4, size: 0x8, addend: 0x0, symName: __ZNKSt16initializer_listIjE4sizeEv, symObjAddr: 0x2F7B8, symBinAddr: 0x1000318F0, symSize: 0x18 }
  - { offsetInCU: 0x5391E, offset: 0x5391E, size: 0x8, addend: 0x0, symName: __ZNSt6vectorIcSaIcEE15_M_erase_at_endEPc, symObjAddr: 0x2F734, symBinAddr: 0x10003186C, symSize: 0x84 }
  - { offsetInCU: 0x539E3, offset: 0x539E3, size: 0x8, addend: 0x0, symName: __ZN9__gnu_cxxeqIPKcSt6vectorIcSaIcEEEEbRKNS_17__normal_iteratorIT_T0_EESB_, symObjAddr: 0x2F6F0, symBinAddr: 0x100031828, symSize: 0x44 }
  - { offsetInCU: 0x53A34, offset: 0x53A34, size: 0x8, addend: 0x0, symName: __ZNSt6vectorIcSaIcEE12emplace_backIJcEEERcDpOT_, symObjAddr: 0x2F618, symBinAddr: 0x100031750, symSize: 0xD8 }
  - { offsetInCU: 0x53AE6, offset: 0x53AE6, size: 0x8, addend: 0x0, symName: __ZSt4moveIRcEONSt16remove_referenceIT_E4typeEOS2_, symObjAddr: 0x2F604, symBinAddr: 0x10003173C, symSize: 0x14 }
  - { offsetInCU: 0x53B28, offset: 0x53B28, size: 0x8, addend: 0x0, symName: __ZNK8nlohmann16json_abi_v3_11_36detail10to_json_fnclINS0_10basic_jsonISt3mapSt6vectorNSt7__cxx1112basic_stringIcSt11char_traitsIcESaIcEEEbxydSaNS0_14adl_serializerES6_IhSaIhEEvEERyEEDTcmcl7to_jsonfp_cl7forwardIT0_Efp0_EEcvv_EERT_OSI_, symObjAddr: 0x2F5CC, symBinAddr: 0x100031704, symSize: 0x38 }
  - { offsetInCU: 0x53B86, offset: 0x53B86, size: 0x8, addend: 0x0, symName: __ZNK8nlohmann16json_abi_v3_11_36detail10to_json_fnclINS0_10basic_jsonISt3mapSt6vectorNSt7__cxx1112basic_stringIcSt11char_traitsIcESaIcEEEbxydSaNS0_14adl_serializerES6_IhSaIhEEvEERxEEDTcmcl7to_jsonfp_cl7forwardIT0_Efp0_EEcvv_EERT_OSI_, symObjAddr: 0x2F594, symBinAddr: 0x1000316CC, symSize: 0x38 }
  - { offsetInCU: 0x53BE4, offset: 0x53BE4, size: 0x8, addend: 0x0, symName: __ZNK8nlohmann16json_abi_v3_11_36detail10to_json_fnclINS0_10basic_jsonISt3mapSt6vectorNSt7__cxx1112basic_stringIcSt11char_traitsIcESaIcEEEbxydSaNS0_14adl_serializerES6_IhSaIhEEvEERbEEDTcmcl7to_jsonfp_cl7forwardIT0_Efp0_EEcvv_EERT_OSI_, symObjAddr: 0x2F55C, symBinAddr: 0x100031694, symSize: 0x38 }
  - { offsetInCU: 0x53C42, offset: 0x53C42, size: 0x8, addend: 0x0, symName: __ZNK8nlohmann16json_abi_v3_11_36detail10to_json_fnclINS0_10basic_jsonISt3mapSt6vectorNSt7__cxx1112basic_stringIcSt11char_traitsIcESaIcEEEbxydSaNS0_14adl_serializerES6_IhSaIhEEvEERdEEDTcmcl7to_jsonfp_cl7forwardIT0_Efp0_EEcvv_EERT_OSI_, symObjAddr: 0x2F524, symBinAddr: 0x10003165C, symSize: 0x38 }
  - { offsetInCU: 0x53CA0, offset: 0x53CA0, size: 0x8, addend: 0x0, symName: __ZNSt8_Rb_treeINSt7__cxx1112basic_stringIcSt11char_traitsIcESaIcEEESt4pairIKS5_N8nlohmann16json_abi_v3_11_310basic_jsonISt3mapSt6vectorS5_bxydSaNS9_14adl_serializerESC_IhSaIhEEvEEESt10_Select1stISH_ESt4lessIvESaISH_EE14_M_create_nodeIJRKSt21piecewise_construct_tSt5tupleIJRS7_EESS_IJEEEEEPSt13_Rb_tree_nodeISH_EDpOT_, symObjAddr: 0x2F4B4, symBinAddr: 0x1000315EC, symSize: 0x70 }
  - { offsetInCU: 0x53D8D, offset: 0x53D8D, size: 0x8, addend: 0x0, symName: __ZNSt10_Head_baseILm0ERKNSt7__cxx1112basic_stringIcSt11char_traitsIcESaIcEEELb0EEC2ES7_, symObjAddr: 0x2F490, symBinAddr: 0x1000315C8, symSize: 0x24 }
  - { offsetInCU: 0x53D64, offset: 0x53D64, size: 0x8, addend: 0x0, symName: __ZN8nlohmann16json_abi_v3_11_36detail7to_jsonINS0_10basic_jsonISt3mapSt6vectorNSt7__cxx1112basic_stringIcSt11char_traitsIcESaIcEEEbxydSaNS0_14adl_serializerES5_IhSaIhEEvEESB_Li0EEEvRT_RKT0_, symObjAddr: 0x2F468, symBinAddr: 0x1000315A0, symSize: 0x28 }
  - { offsetInCU: 0x53DB1, offset: 0x53DB1, size: 0x8, addend: 0x0, symName: __ZSt4moveIN9__gnu_cxx17__normal_iteratorIPN8nlohmann16json_abi_v3_11_310basic_jsonISt3mapSt6vectorNSt7__cxx1112basic_stringIcSt11char_traitsIcESaIcEEEbxydSaNS3_14adl_serializerES6_IhSaIhEEvEES6_ISG_SaISG_EEEESK_ET0_T_SM_SL_, symObjAddr: 0x2F420, symBinAddr: 0x100031558, symSize: 0x48 }
  - { offsetInCU: 0x53E13, offset: 0x53E13, size: 0x8, addend: 0x0, symName: __ZNSt8_Rb_treeINSt7__cxx1112basic_stringIcSt11char_traitsIcESaIcEEESt4pairIKS5_N8nlohmann16json_abi_v3_11_310basic_jsonISt3mapSt6vectorS5_bxydSaNS9_14adl_serializerESC_IhSaIhEEvEEESt10_Select1stISH_ESt4lessIvESaISH_EE12_M_erase_auxESt23_Rb_tree_const_iteratorISH_E, symObjAddr: 0x2F3C8, symBinAddr: 0x100031500, symSize: 0x58 }
  - { offsetInCU: 0x53E75, offset: 0x53E75, size: 0x8, addend: 0x0, symName: __ZNKSt8_Rb_treeINSt7__cxx1112basic_stringIcSt11char_traitsIcESaIcEEESt4pairIKS5_N8nlohmann16json_abi_v3_11_310basic_jsonISt3mapSt6vectorS5_bxydSaNS9_14adl_serializerESC_IhSaIhEEvEEESt10_Select1stISH_ESt4lessIvESaISH_EE21_M_get_Node_allocatorEv, symObjAddr: 0x2F3B4, symBinAddr: 0x1000314EC, symSize: 0x14 }
  - { offsetInCU: 0x53E9B, offset: 0x53E9B, size: 0x8, addend: 0x0, symName: __ZSt12__relocate_aIPPN8nlohmann16json_abi_v3_11_310basic_jsonISt3mapSt6vectorNSt7__cxx1112basic_stringIcSt11char_traitsIcESaIcEEEbxydSaNS1_14adl_serializerES4_IhSaIhEEvEESG_SaISF_EET0_T_SJ_SI_RT1_, symObjAddr: 0x2F358, symBinAddr: 0x100031490, symSize: 0x5C }
  - { offsetInCU: 0x53F3B, offset: 0x53F3B, size: 0x8, addend: 0x0, symName: __ZNK9__gnu_cxx17__normal_iteratorIPPN8nlohmann16json_abi_v3_11_310basic_jsonISt3mapSt6vectorNSt7__cxx1112basic_stringIcSt11char_traitsIcESaIcEEEbxydSaNS2_14adl_serializerES5_IhSaIhEEvEES5_ISG_SaISG_EEE4baseEv, symObjAddr: 0x2F344, symBinAddr: 0x10003147C, symSize: 0x14 }
  - { offsetInCU: 0x53F65, offset: 0x53F65, size: 0x8, addend: 0x0, symName: __ZNKSt6vectorIPN8nlohmann16json_abi_v3_11_310basic_jsonISt3mapS_NSt7__cxx1112basic_stringIcSt11char_traitsIcESaIcEEEbxydSaNS1_14adl_serializerES_IhSaIhEEvEESaISE_EE8max_sizeEv, symObjAddr: 0x2F324, symBinAddr: 0x10003145C, symSize: 0x20 }
  - { offsetInCU: 0x53F8B, offset: 0x53F8B, size: 0x8, addend: 0x0, symName: __ZSt14__copy_move_a1ILb0ESt13_Bit_iteratorS0_ET1_T0_S2_S1_, symObjAddr: 0x2F2A4, symBinAddr: 0x1000313DC, symSize: 0x80 }
  - { offsetInCU: 0x53FF3, offset: 0x53FF3, size: 0x8, addend: 0x0, symName: __ZSt13__copy_move_aILb0ESt19_Bit_const_iteratorSt13_Bit_iteratorET1_T0_S3_S2_, symObjAddr: 0x2F1E0, symBinAddr: 0x100031318, symSize: 0xC4 }
  - { offsetInCU: 0x5405E, offset: 0x5405E, size: 0x8, addend: 0x0, symName: __ZSt12__miter_baseISt19_Bit_const_iteratorET_S1_, symObjAddr: 0x2F1A4, symBinAddr: 0x1000312DC, symSize: 0x3C }
  - { offsetInCU: 0x54091, offset: 0x54091, size: 0x8, addend: 0x0, symName: __ZSt13__copy_move_aILb0EPmS0_ET1_T0_S2_S1_, symObjAddr: 0x2F144, symBinAddr: 0x10003127C, symSize: 0x60 }
  - { offsetInCU: 0x540F9, offset: 0x540F9, size: 0x8, addend: 0x0, symName: __ZSt12__miter_baseIPmET_S1_, symObjAddr: 0x2F130, symBinAddr: 0x100031268, symSize: 0x14 }
  - { offsetInCU: 0x54130, offset: 0x54130, size: 0x8, addend: 0x0, symName: __ZNSt15__new_allocatorImE8allocateEmPKv, symObjAddr: 0x2F0B4, symBinAddr: 0x1000311EC, symSize: 0x7C }
  - { offsetInCU: 0x541D2, offset: 0x541D2, size: 0x8, addend: 0x0, symName: __ZNKSt13_Bvector_baseISaIbEE20_M_get_Bit_allocatorEv, symObjAddr: 0x2F0A0, symBinAddr: 0x1000311D8, symSize: 0x14 }
  - { offsetInCU: 0x541F8, offset: 0x541F8, size: 0x8, addend: 0x0, symName: __ZSt12__niter_wrapISt13_Bit_iteratorET_RKS1_S1_, symObjAddr: 0x2F064, symBinAddr: 0x10003119C, symSize: 0x3C }
  - { offsetInCU: 0x54234, offset: 0x54234, size: 0x8, addend: 0x0, symName: __ZSt23__copy_move_backward_a1ILb0ESt13_Bit_iteratorS0_ET1_T0_S2_S1_, symObjAddr: 0x2EFE4, symBinAddr: 0x10003111C, symSize: 0x80 }
  - { offsetInCU: 0x5429C, offset: 0x5429C, size: 0x8, addend: 0x0, symName: __ZSt12__niter_baseISt13_Bit_iteratorET_S1_, symObjAddr: 0x2EFA8, symBinAddr: 0x1000310E0, symSize: 0x3C }
  - { offsetInCU: 0x542CF, offset: 0x542CF, size: 0x8, addend: 0x0, symName: __ZN8nlohmann16json_abi_v3_11_36detail9dtoa_impl18compute_boundariesIdEENS2_10boundariesET_, symObjAddr: 0x2EDAC, symBinAddr: 0x100030EE4, symSize: 0x1FC }
  - { offsetInCU: 0x54424, offset: 0x54424, size: 0x8, addend: 0x0, symName: __ZN8nlohmann16json_abi_v3_11_36detail11concat_intoINSt7__cxx1112basic_stringIcSt11char_traitsIcESaIcEEERA5_KcJS8_ELi0EEEvRT_OT0_DpOT1_, symObjAddr: 0x2ED64, symBinAddr: 0x100030E9C, symSize: 0x48 }
  - { offsetInCU: 0x54490, offset: 0x54490, size: 0x8, addend: 0x0, symName: __ZNSt23_Sp_counted_ptr_inplaceIN8nlohmann16json_abi_v3_11_36detail21output_string_adapterIcNSt7__cxx1112basic_stringIcSt11char_traitsIcESaIcEEEEESaIvELN9__gnu_cxx12_Lock_policyE2EE6_M_ptrEv, symObjAddr: 0x2ED44, symBinAddr: 0x100030E7C, symSize: 0x20 }
  - { offsetInCU: 0x544BA, offset: 0x544BA, size: 0x8, addend: 0x0, symName: __ZNSt15__allocated_ptrISaISt23_Sp_counted_ptr_inplaceIN8nlohmann16json_abi_v3_11_36detail21output_string_adapterIcNSt7__cxx1112basic_stringIcSt11char_traitsIcESaIcEEEEESaIvELN9__gnu_cxx12_Lock_policyE2EEEEaSEDn, symObjAddr: 0x2ED24, symBinAddr: 0x100030E5C, symSize: 0x20 }
  - { offsetInCU: 0x545F0, offset: 0x545F0, size: 0x8, addend: 0x0, symName: __ZNSt23_Sp_counted_ptr_inplaceIN8nlohmann16json_abi_v3_11_36detail21output_string_adapterIcNSt7__cxx1112basic_stringIcSt11char_traitsIcESaIcEEEEESaIvELN9__gnu_cxx12_Lock_policyE2EEC1IJRS9_EEESB_DpOT_, symObjAddr: 0x2EC9C, symBinAddr: 0x100030DD4, symSize: 0x88 }
  - { offsetInCU: 0x545A9, offset: 0x545A9, size: 0x8, addend: 0x0, symName: __ZNSt15__allocated_ptrISaISt23_Sp_counted_ptr_inplaceIN8nlohmann16json_abi_v3_11_36detail21output_string_adapterIcNSt7__cxx1112basic_stringIcSt11char_traitsIcESaIcEEEEESaIvELN9__gnu_cxx12_Lock_policyE2EEEE3getEv, symObjAddr: 0x2EC7C, symBinAddr: 0x100030DB4, symSize: 0x20 }
  - { offsetInCU: 0x546C5, offset: 0x546C5, size: 0x8, addend: 0x0, symName: __ZNSt15__allocated_ptrISaISt23_Sp_counted_ptr_inplaceIN8nlohmann16json_abi_v3_11_36detail21output_string_adapterIcNSt7__cxx1112basic_stringIcSt11char_traitsIcESaIcEEEEESaIvELN9__gnu_cxx12_Lock_policyE2EEEED1Ev, symObjAddr: 0x2EC20, symBinAddr: 0x100030D58, symSize: 0x5C }
  - { offsetInCU: 0x5464E, offset: 0x5464E, size: 0x8, addend: 0x0, symName: __ZSt18__allocate_guardedISaISt23_Sp_counted_ptr_inplaceIN8nlohmann16json_abi_v3_11_36detail21output_string_adapterIcNSt7__cxx1112basic_stringIcSt11char_traitsIcESaIcEEEEESaIvELN9__gnu_cxx12_Lock_policyE2EEEESt15__allocated_ptrIT_ERSI_, symObjAddr: 0x2EBC8, symBinAddr: 0x100030D00, symSize: 0x58 }
  - { offsetInCU: 0x546EC, offset: 0x546EC, size: 0x8, addend: 0x0, symName: __ZSt22__uninitialized_copy_aIN9__gnu_cxx17__normal_iteratorIPKhSt6vectorIhSaIhEEEEPhhET0_T_SA_S9_RSaIT1_E, symObjAddr: 0x2EB98, symBinAddr: 0x100030CD0, symSize: 0x30 }
  - { offsetInCU: 0x547B7, offset: 0x547B7, size: 0x8, addend: 0x0, symName: __ZNSt12_Vector_baseIhSaIhEEC2EmRKS0_, symObjAddr: 0x2EB44, symBinAddr: 0x100030C7C, symSize: 0x54 }
  - { offsetInCU: 0x547E3, offset: 0x547E3, size: 0x8, addend: 0x0, symName: __ZNKSt12_Vector_baseIhSaIhEE19_M_get_Tp_allocatorEv, symObjAddr: 0x2EB30, symBinAddr: 0x100030C68, symSize: 0x14 }
  - { offsetInCU: 0x5480D, offset: 0x5480D, size: 0x8, addend: 0x0, symName: __ZNKSt6vectorIhSaIhEE4sizeEv, symObjAddr: 0x2EB0C, symBinAddr: 0x100030C44, symSize: 0x24 }
  - { offsetInCU: 0x54833, offset: 0x54833, size: 0x8, addend: 0x0, symName: __ZSt12__get_helperILm0EPN8nlohmann16json_abi_v3_11_327byte_container_with_subtypeISt6vectorIhSaIhEEEEJZNS1_10basic_jsonISt3mapS3_NSt7__cxx1112basic_stringIcSt11char_traitsIcESaIcEEEbxydSaNS1_14adl_serializerES5_vE6createIS6_JRKS6_EEEPT_DpOT0_EUlS7_E_EERKT0_RKSt11_Tuple_implIXT_EJSR_DpT1_EE, symObjAddr: 0x2EAF0, symBinAddr: 0x100030C28, symSize: 0x1C }
  - { offsetInCU: 0x54882, offset: 0x54882, size: 0x8, addend: 0x0, symName: __ZSt3getILm1EJPN8nlohmann16json_abi_v3_11_327byte_container_with_subtypeISt6vectorIhSaIhEEEEZNS1_10basic_jsonISt3mapS3_NSt7__cxx1112basic_stringIcSt11char_traitsIcESaIcEEEbxydSaNS1_14adl_serializerES5_vE6createIS6_JRKS6_EEEPT_DpOT0_EUlS7_E_EERNSt13tuple_elementIXT_ESt5tupleIJDpSN_EEE4typeERSU_, symObjAddr: 0x2EAD4, symBinAddr: 0x100030C0C, symSize: 0x1C }
  - { offsetInCU: 0x548C6, offset: 0x548C6, size: 0x8, addend: 0x0, symName: __ZSt12__get_helperILm0EPN8nlohmann16json_abi_v3_11_327byte_container_with_subtypeISt6vectorIhSaIhEEEEJZNS1_10basic_jsonISt3mapS3_NSt7__cxx1112basic_stringIcSt11char_traitsIcESaIcEEEbxydSaNS1_14adl_serializerES5_vE6createIS6_JRKS6_EEEPT_DpOT0_EUlS7_E_EERT0_RSt11_Tuple_implIXT_EJSR_DpT1_EE, symObjAddr: 0x2EAB8, symBinAddr: 0x100030BF0, symSize: 0x1C }
  - { offsetInCU: 0x54A6B, offset: 0x54A6B, size: 0x8, addend: 0x0, symName: __ZNSt11_Tuple_implILm0EJPN8nlohmann16json_abi_v3_11_327byte_container_with_subtypeISt6vectorIhSaIhEEEEZNS1_10basic_jsonISt3mapS3_NSt7__cxx1112basic_stringIcSt11char_traitsIcESaIcEEEbxydSaNS1_14adl_serializerES5_vE6createIS6_JRKS6_EEEPT_DpOT0_EUlS7_E_EEC2IRS7_JRKSQ_EvEEOSL_SP_, symObjAddr: 0x2EA5C, symBinAddr: 0x100030B94, symSize: 0x5C }
  - { offsetInCU: 0x549A9, offset: 0x549A9, size: 0x8, addend: 0x0, symName: __ZSt12__get_helperILm0EPNSt7__cxx1112basic_stringIcSt11char_traitsIcESaIcEEEJZN8nlohmann16json_abi_v3_11_310basic_jsonISt3mapSt6vectorS5_bxydSaNS8_14adl_serializerESB_IhSaIhEEvE6createIS5_JRKS5_EEEPT_DpOT0_EUlS6_E_EERKT0_RKSt11_Tuple_implIXT_EJSP_DpT1_EE, symObjAddr: 0x2EA40, symBinAddr: 0x100030B78, symSize: 0x1C }
  - { offsetInCU: 0x549F8, offset: 0x549F8, size: 0x8, addend: 0x0, symName: __ZSt3getILm1EJPNSt7__cxx1112basic_stringIcSt11char_traitsIcESaIcEEEZN8nlohmann16json_abi_v3_11_310basic_jsonISt3mapSt6vectorS5_bxydSaNS8_14adl_serializerESB_IhSaIhEEvE6createIS5_JRKS5_EEEPT_DpOT0_EUlS6_E_EERNSt13tuple_elementIXT_ESt5tupleIJDpSL_EEE4typeERSS_, symObjAddr: 0x2EA24, symBinAddr: 0x100030B5C, symSize: 0x1C }
  - { offsetInCU: 0x54A3C, offset: 0x54A3C, size: 0x8, addend: 0x0, symName: __ZSt12__get_helperILm0EPNSt7__cxx1112basic_stringIcSt11char_traitsIcESaIcEEEJZN8nlohmann16json_abi_v3_11_310basic_jsonISt3mapSt6vectorS5_bxydSaNS8_14adl_serializerESB_IhSaIhEEvE6createIS5_JRKS5_EEEPT_DpOT0_EUlS6_E_EERT0_RSt11_Tuple_implIXT_EJSP_DpT1_EE, symObjAddr: 0x2EA08, symBinAddr: 0x100030B40, symSize: 0x1C }
  - { offsetInCU: 0x54BBD, offset: 0x54BBD, size: 0x8, addend: 0x0, symName: __ZNSt11_Tuple_implILm0EJPNSt7__cxx1112basic_stringIcSt11char_traitsIcESaIcEEEZN8nlohmann16json_abi_v3_11_310basic_jsonISt3mapSt6vectorS5_bxydSaNS8_14adl_serializerESB_IhSaIhEEvE6createIS5_JRKS5_EEEPT_DpOT0_EUlS6_E_EEC2IRS6_JRKSO_EvEEOSJ_SN_, symObjAddr: 0x2E9AC, symBinAddr: 0x100030AE4, symSize: 0x5C }
  - { offsetInCU: 0x54B1F, offset: 0x54B1F, size: 0x8, addend: 0x0, symName: __ZSt22__uninitialized_copy_aIN9__gnu_cxx17__normal_iteratorIPKN8nlohmann16json_abi_v3_11_310basic_jsonISt3mapSt6vectorNSt7__cxx1112basic_stringIcSt11char_traitsIcESaIcEEEbxydSaNS3_14adl_serializerES6_IhSaIhEEvEES6_ISG_SaISG_EEEEPSG_SG_ET0_T_SO_SN_RSaIT1_E, symObjAddr: 0x2E97C, symBinAddr: 0x100030AB4, symSize: 0x30 }
  - { offsetInCU: 0x54C80, offset: 0x54C80, size: 0x8, addend: 0x0, symName: __ZNSt12_Vector_baseIN8nlohmann16json_abi_v3_11_310basic_jsonISt3mapSt6vectorNSt7__cxx1112basic_stringIcSt11char_traitsIcESaIcEEEbxydSaNS1_14adl_serializerES4_IhSaIhEEvEESaISE_EEC2EmRKSF_, symObjAddr: 0x2E928, symBinAddr: 0x100030A60, symSize: 0x54 }
  - { offsetInCU: 0x54C12, offset: 0x54C12, size: 0x8, addend: 0x0, symName: __ZSt12__get_helperILm0EPSt6vectorIN8nlohmann16json_abi_v3_11_310basic_jsonISt3mapS0_NSt7__cxx1112basic_stringIcSt11char_traitsIcESaIcEEEbxydSaNS2_14adl_serializerES0_IhSaIhEEvEESaISE_EEJZNSE_6createISG_JRKSG_EEEPT_DpOT0_EUlSH_E_EERKT0_RKSt11_Tuple_implIXT_EJSR_DpT1_EE, symObjAddr: 0x2E90C, symBinAddr: 0x100030A44, symSize: 0x1C }
  - { offsetInCU: 0x54C61, offset: 0x54C61, size: 0x8, addend: 0x0, symName: __ZSt3getILm1EJPSt6vectorIN8nlohmann16json_abi_v3_11_310basic_jsonISt3mapS0_NSt7__cxx1112basic_stringIcSt11char_traitsIcESaIcEEEbxydSaNS2_14adl_serializerES0_IhSaIhEEvEESaISE_EEZNSE_6createISG_JRKSG_EEEPT_DpOT0_EUlSH_E_EERNSt13tuple_elementIXT_ESt5tupleIJDpSN_EEE4typeERSU_, symObjAddr: 0x2E8F0, symBinAddr: 0x100030A28, symSize: 0x1C }
  - { offsetInCU: 0x54CA5, offset: 0x54CA5, size: 0x8, addend: 0x0, symName: __ZSt12__get_helperILm0EPSt6vectorIN8nlohmann16json_abi_v3_11_310basic_jsonISt3mapS0_NSt7__cxx1112basic_stringIcSt11char_traitsIcESaIcEEEbxydSaNS2_14adl_serializerES0_IhSaIhEEvEESaISE_EEJZNSE_6createISG_JRKSG_EEEPT_DpOT0_EUlSH_E_EERT0_RSt11_Tuple_implIXT_EJSR_DpT1_EE, symObjAddr: 0x2E8D4, symBinAddr: 0x100030A0C, symSize: 0x1C }
  - { offsetInCU: 0x54E34, offset: 0x54E34, size: 0x8, addend: 0x0, symName: __ZNSt11_Tuple_implILm0EJPSt6vectorIN8nlohmann16json_abi_v3_11_310basic_jsonISt3mapS0_NSt7__cxx1112basic_stringIcSt11char_traitsIcESaIcEEEbxydSaNS2_14adl_serializerES0_IhSaIhEEvEESaISE_EEZNSE_6createISG_JRKSG_EEEPT_DpOT0_EUlSH_E_EEC2IRSH_JRKSQ_EvEEOSL_SP_, symObjAddr: 0x2E878, symBinAddr: 0x1000309B0, symSize: 0x5C }
  - { offsetInCU: 0x54D8C, offset: 0x54D8C, size: 0x8, addend: 0x0, symName: __ZNSt8_Rb_treeINSt7__cxx1112basic_stringIcSt11char_traitsIcESaIcEEESt4pairIKS5_N8nlohmann16json_abi_v3_11_310basic_jsonISt3mapSt6vectorS5_bxydSaNS9_14adl_serializerESC_IhSaIhEEvEEESt10_Select1stISH_ESt4lessIvESaISH_EE7_M_copyERKSN_, symObjAddr: 0x2E840, symBinAddr: 0x100030978, symSize: 0x38 }
  - { offsetInCU: 0x54DD8, offset: 0x54DD8, size: 0x8, addend: 0x0, symName: __ZNSt8_Rb_treeINSt7__cxx1112basic_stringIcSt11char_traitsIcESaIcEEESt4pairIKS5_N8nlohmann16json_abi_v3_11_310basic_jsonISt3mapSt6vectorS5_bxydSaNS9_14adl_serializerESC_IhSaIhEEvEEESt10_Select1stISH_ESt4lessIvESaISH_EE7_M_rootEv, symObjAddr: 0x2E828, symBinAddr: 0x100030960, symSize: 0x18 }
  - { offsetInCU: 0x54E02, offset: 0x54E02, size: 0x8, addend: 0x0, symName: __ZNKSt8_Rb_treeINSt7__cxx1112basic_stringIcSt11char_traitsIcESaIcEEESt4pairIKS5_N8nlohmann16json_abi_v3_11_310basic_jsonISt3mapSt6vectorS5_bxydSaNS9_14adl_serializerESC_IhSaIhEEvEEESt10_Select1stISH_ESt4lessIvESaISH_EE7_M_rootEv, symObjAddr: 0x2E810, symBinAddr: 0x100030948, symSize: 0x18 }
  - { offsetInCU: 0x54F4A, offset: 0x54F4A, size: 0x8, addend: 0x0, symName: __ZNSt8_Rb_treeINSt7__cxx1112basic_stringIcSt11char_traitsIcESaIcEEESt4pairIKS5_N8nlohmann16json_abi_v3_11_310basic_jsonISt3mapSt6vectorS5_bxydSaNS9_14adl_serializerESC_IhSaIhEEvEEESt10_Select1stISH_ESt4lessIvESaISH_EE13_Rb_tree_implISL_Lb1EEC1ERKSP_, symObjAddr: 0x2E770, symBinAddr: 0x1000308A8, symSize: 0xA0 }
  - { offsetInCU: 0x54F99, offset: 0x54F99, size: 0x8, addend: 0x0, symName: __ZSt12__get_helperILm0EPSt3mapINSt7__cxx1112basic_stringIcSt11char_traitsIcESaIcEEEN8nlohmann16json_abi_v3_11_310basic_jsonIS0_St6vectorS6_bxydSaNS8_14adl_serializerESA_IhSaIhEEvEESt4lessIvESaISt4pairIKS6_SE_EEEJZNSE_6createISL_JRKSL_EEEPT_DpOT0_EUlSM_E_EERKT0_RKSt11_Tuple_implIXT_EJSW_DpT1_EE, symObjAddr: 0x2E754, symBinAddr: 0x10003088C, symSize: 0x1C }
  - { offsetInCU: 0x54FE8, offset: 0x54FE8, size: 0x8, addend: 0x0, symName: __ZSt3getILm1EJPSt3mapINSt7__cxx1112basic_stringIcSt11char_traitsIcESaIcEEEN8nlohmann16json_abi_v3_11_310basic_jsonIS0_St6vectorS6_bxydSaNS8_14adl_serializerESA_IhSaIhEEvEESt4lessIvESaISt4pairIKS6_SE_EEEZNSE_6createISL_JRKSL_EEEPT_DpOT0_EUlSM_E_EERNSt13tuple_elementIXT_ESt5tupleIJDpSS_EEE4typeERSZ_, symObjAddr: 0x2E738, symBinAddr: 0x100030870, symSize: 0x1C }
  - { offsetInCU: 0x5502C, offset: 0x5502C, size: 0x8, addend: 0x0, symName: __ZSt12__get_helperILm0EPSt3mapINSt7__cxx1112basic_stringIcSt11char_traitsIcESaIcEEEN8nlohmann16json_abi_v3_11_310basic_jsonIS0_St6vectorS6_bxydSaNS8_14adl_serializerESA_IhSaIhEEvEESt4lessIvESaISt4pairIKS6_SE_EEEJZNSE_6createISL_JRKSL_EEEPT_DpOT0_EUlSM_E_EERT0_RSt11_Tuple_implIXT_EJSW_DpT1_EE, symObjAddr: 0x2E71C, symBinAddr: 0x100030854, symSize: 0x1C }
  - { offsetInCU: 0x551D5, offset: 0x551D5, size: 0x8, addend: 0x0, symName: __ZNSt11_Tuple_implILm0EJPSt3mapINSt7__cxx1112basic_stringIcSt11char_traitsIcESaIcEEEN8nlohmann16json_abi_v3_11_310basic_jsonIS0_St6vectorS6_bxydSaNS8_14adl_serializerESA_IhSaIhEEvEESt4lessIvESaISt4pairIKS6_SE_EEEZNSE_6createISL_JRKSL_EEEPT_DpOT0_EUlSM_E_EEC2IRSM_JRKSV_EvEEOSQ_SU_, symObjAddr: 0x2E6C0, symBinAddr: 0x1000307F8, symSize: 0x5C }
  - { offsetInCU: 0x5510F, offset: 0x5510F, size: 0x8, addend: 0x0, symName: __ZSt12__niter_wrapIN9__gnu_cxx17__normal_iteratorIPSt4pairIiS2_IiiEESt6vectorIS4_SaIS4_EEEES5_ET_SA_T0_, symObjAddr: 0x2E66C, symBinAddr: 0x1000307A4, symSize: 0x54 }
  - { offsetInCU: 0x5515C, offset: 0x5515C, size: 0x8, addend: 0x0, symName: __ZSt23__copy_move_backward_a1ILb1EPSt4pairIiS0_IiiEES3_ET1_T0_S5_S4_, symObjAddr: 0x2E640, symBinAddr: 0x100030778, symSize: 0x2C }
  - { offsetInCU: 0x551C4, offset: 0x551C4, size: 0x8, addend: 0x0, symName: __ZSt12__niter_baseIPSt4pairIiS0_IiiEESt6vectorIS2_SaIS2_EEET_N9__gnu_cxx17__normal_iteratorIS7_T0_EE, symObjAddr: 0x2E620, symBinAddr: 0x100030758, symSize: 0x20 }
  - { offsetInCU: 0x55200, offset: 0x55200, size: 0x8, addend: 0x0, symName: __ZStltIiiEbRKSt4pairIT_T0_ES5_, symObjAddr: 0x2E5B8, symBinAddr: 0x1000306F0, symSize: 0x68 }
  - { offsetInCU: 0x5524D, offset: 0x5524D, size: 0x8, addend: 0x0, symName: __ZSt4swapIiSt4pairIiiEENSt9enable_ifIXsrSt6__and_IJSt14__is_swappableIT_ES4_IT0_EEE5valueEvE4typeERS0_IS5_S7_ESD_, symObjAddr: 0x2E590, symBinAddr: 0x1000306C8, symSize: 0x28 }
  - { offsetInCU: 0x5529A, offset: 0x5529A, size: 0x8, addend: 0x0, symName: __ZSt13__adjust_heapIN9__gnu_cxx17__normal_iteratorIPSt4pairIiS2_IiiEESt6vectorIS4_SaIS4_EEEElS4_NS0_5__ops15_Iter_less_iterEEvT_T0_SD_T1_T2_, symObjAddr: 0x2E398, symBinAddr: 0x1000304D0, symSize: 0x1F8 }
  - { offsetInCU: 0x5535C, offset: 0x5535C, size: 0x8, addend: 0x0, symName: __ZSt19__relocate_object_aISt4pairIiS0_IiiEES2_SaIS2_EEvPT_PT0_RT1_, symObjAddr: 0x2E2C4, symBinAddr: 0x1000303FC, symSize: 0xD4 }
  - { offsetInCU: 0x5548E, offset: 0x5548E, size: 0x8, addend: 0x0, symName: __ZSt11__addressofISt4pairIiS0_IiiEEEPT_RS3_, symObjAddr: 0x2E2B0, symBinAddr: 0x1000303E8, symSize: 0x14 }
  - { offsetInCU: 0x554DA, offset: 0x554DA, size: 0x8, addend: 0x0, symName: __ZN8nlohmann16json_abi_v3_11_36detail22iterator_input_adapterIN9__gnu_cxx17__normal_iteratorIPKcNSt7__cxx1112basic_stringIcSt11char_traitsIcESaIcEEEEEE13get_characterEv, symObjAddr: 0x2E208, symBinAddr: 0x100030340, symSize: 0xA8 }
  - { offsetInCU: 0x5557D, offset: 0x5557D, size: 0x8, addend: 0x0, symName: __ZSt13__copy_move_aILb0EN9__gnu_cxx17__normal_iteratorIPiSt6vectorIiSaIiEEEES2_ET1_T0_S8_S7_, symObjAddr: 0x2E1A8, symBinAddr: 0x1000302E0, symSize: 0x60 }
  - { offsetInCU: 0x555E5, offset: 0x555E5, size: 0x8, addend: 0x0, symName: __ZNSt20__copy_move_backwardILb1ELb1ESt26random_access_iterator_tagE13__copy_move_bIiiEEPT0_PT_S6_S4_, symObjAddr: 0x2E0FC, symBinAddr: 0x100030234, symSize: 0xAC }
  - { offsetInCU: 0x55654, offset: 0x55654, size: 0x8, addend: 0x0, symName: __ZSt4copyISt13move_iteratorIPiES1_ET0_T_S4_S3_, symObjAddr: 0x2E0B4, symBinAddr: 0x1000301EC, symSize: 0x48 }
  - { offsetInCU: 0x556B2, offset: 0x556B2, size: 0x8, addend: 0x0, symName: __ZNSt11__copy_moveILb1ELb1ESt26random_access_iterator_tagE8__copy_mIiiEEPT0_PT_S6_S4_, symObjAddr: 0x2E024, symBinAddr: 0x10003015C, symSize: 0x90 }
  - { offsetInCU: 0x55721, offset: 0x55721, size: 0x8, addend: 0x0, symName: __ZSt19__relocate_object_aIN8nlohmann16json_abi_v3_11_310basic_jsonISt3mapSt6vectorNSt7__cxx1112basic_stringIcSt11char_traitsIcESaIcEEEbxydSaNS1_14adl_serializerES4_IhSaIhEEvEESE_SaISE_EEvPT_PT0_RT1_, symObjAddr: 0x2DF54, symBinAddr: 0x10003008C, symSize: 0xD0 }
  - { offsetInCU: 0x55853, offset: 0x55853, size: 0x8, addend: 0x0, symName: __ZSt11__addressofIN8nlohmann16json_abi_v3_11_310basic_jsonISt3mapSt6vectorNSt7__cxx1112basic_stringIcSt11char_traitsIcESaIcEEEbxydSaNS1_14adl_serializerES4_IhSaIhEEvEEEPT_RSF_, symObjAddr: 0x2DF40, symBinAddr: 0x100030078, symSize: 0x14 }
  - { offsetInCU: 0x558ED, offset: 0x558ED, size: 0x8, addend: 0x0, symName: __ZNSt12_Vector_baseIhSaIhEE12_Vector_implC1Ev, symObjAddr: 0x2DF08, symBinAddr: 0x100030040, symSize: 0x38 }
  - { offsetInCU: 0x5592B, offset: 0x5592B, size: 0x8, addend: 0x0, symName: __ZSt12__get_helperILm0EPN8nlohmann16json_abi_v3_11_327byte_container_with_subtypeISt6vectorIhSaIhEEEEJZNS1_10basic_jsonISt3mapS3_NSt7__cxx1112basic_stringIcSt11char_traitsIcESaIcEEEbxydSaNS1_14adl_serializerES5_vE6createIS6_JEEEPT_DpOT0_EUlS7_E_EERKT0_RKSt11_Tuple_implIXT_EJSP_DpT1_EE, symObjAddr: 0x2DEEC, symBinAddr: 0x100030024, symSize: 0x1C }
  - { offsetInCU: 0x5597A, offset: 0x5597A, size: 0x8, addend: 0x0, symName: __ZSt3getILm1EJPN8nlohmann16json_abi_v3_11_327byte_container_with_subtypeISt6vectorIhSaIhEEEEZNS1_10basic_jsonISt3mapS3_NSt7__cxx1112basic_stringIcSt11char_traitsIcESaIcEEEbxydSaNS1_14adl_serializerES5_vE6createIS6_JEEEPT_DpOT0_EUlS7_E_EERNSt13tuple_elementIXT_ESt5tupleIJDpSL_EEE4typeERSS_, symObjAddr: 0x2DED0, symBinAddr: 0x100030008, symSize: 0x1C }
  - { offsetInCU: 0x559BE, offset: 0x559BE, size: 0x8, addend: 0x0, symName: __ZSt12__get_helperILm0EPN8nlohmann16json_abi_v3_11_327byte_container_with_subtypeISt6vectorIhSaIhEEEEJZNS1_10basic_jsonISt3mapS3_NSt7__cxx1112basic_stringIcSt11char_traitsIcESaIcEEEbxydSaNS1_14adl_serializerES5_vE6createIS6_JEEEPT_DpOT0_EUlS7_E_EERT0_RSt11_Tuple_implIXT_EJSP_DpT1_EE, symObjAddr: 0x2DEB4, symBinAddr: 0x10002FFEC, symSize: 0x1C }
  - { offsetInCU: 0x55B5E, offset: 0x55B5E, size: 0x8, addend: 0x0, symName: __ZNSt11_Tuple_implILm0EJPN8nlohmann16json_abi_v3_11_327byte_container_with_subtypeISt6vectorIhSaIhEEEEZNS1_10basic_jsonISt3mapS3_NSt7__cxx1112basic_stringIcSt11char_traitsIcESaIcEEEbxydSaNS1_14adl_serializerES5_vE6createIS6_JEEEPT_DpOT0_EUlS7_E_EEC2IRS7_JRKSO_EvEEOSJ_SN_, symObjAddr: 0x2DE58, symBinAddr: 0x10002FF90, symSize: 0x5C }
  - { offsetInCU: 0x55AA8, offset: 0x55AA8, size: 0x8, addend: 0x0, symName: __ZSt7forwardIRPN8nlohmann16json_abi_v3_11_327byte_container_with_subtypeISt6vectorIhSaIhEEEEEOT_RNSt16remove_referenceIS9_E4typeE, symObjAddr: 0x2DE44, symBinAddr: 0x10002FF7C, symSize: 0x14 }
  - { offsetInCU: 0x55ADA, offset: 0x55ADA, size: 0x8, addend: 0x0, symName: __ZSt12__get_helperILm0EPNSt7__cxx1112basic_stringIcSt11char_traitsIcESaIcEEEJZN8nlohmann16json_abi_v3_11_310basic_jsonISt3mapSt6vectorS5_bxydSaNS8_14adl_serializerESB_IhSaIhEEvE6createIS5_JRA1_KcEEEPT_DpOT0_EUlS6_E_EERKT0_RKSt11_Tuple_implIXT_EJSQ_DpT1_EE, symObjAddr: 0x2DE28, symBinAddr: 0x10002FF60, symSize: 0x1C }
  - { offsetInCU: 0x55B29, offset: 0x55B29, size: 0x8, addend: 0x0, symName: __ZSt3getILm1EJPNSt7__cxx1112basic_stringIcSt11char_traitsIcESaIcEEEZN8nlohmann16json_abi_v3_11_310basic_jsonISt3mapSt6vectorS5_bxydSaNS8_14adl_serializerESB_IhSaIhEEvE6createIS5_JRA1_KcEEEPT_DpOT0_EUlS6_E_EERNSt13tuple_elementIXT_ESt5tupleIJDpSM_EEE4typeERST_, symObjAddr: 0x2DE0C, symBinAddr: 0x10002FF44, symSize: 0x1C }
  - { offsetInCU: 0x55B6D, offset: 0x55B6D, size: 0x8, addend: 0x0, symName: __ZSt12__get_helperILm0EPNSt7__cxx1112basic_stringIcSt11char_traitsIcESaIcEEEJZN8nlohmann16json_abi_v3_11_310basic_jsonISt3mapSt6vectorS5_bxydSaNS8_14adl_serializerESB_IhSaIhEEvE6createIS5_JRA1_KcEEEPT_DpOT0_EUlS6_E_EERT0_RSt11_Tuple_implIXT_EJSQ_DpT1_EE, symObjAddr: 0x2DDF0, symBinAddr: 0x10002FF28, symSize: 0x1C }
  - { offsetInCU: 0x55CEF, offset: 0x55CEF, size: 0x8, addend: 0x0, symName: __ZNSt11_Tuple_implILm0EJPNSt7__cxx1112basic_stringIcSt11char_traitsIcESaIcEEEZN8nlohmann16json_abi_v3_11_310basic_jsonISt3mapSt6vectorS5_bxydSaNS8_14adl_serializerESB_IhSaIhEEvE6createIS5_JRA1_KcEEEPT_DpOT0_EUlS6_E_EEC2IRS6_JRKSP_EvEEOSK_SO_, symObjAddr: 0x2DD94, symBinAddr: 0x10002FECC, symSize: 0x5C }
  - { offsetInCU: 0x55C57, offset: 0x55C57, size: 0x8, addend: 0x0, symName: __ZSt7forwardIRPNSt7__cxx1112basic_stringIcSt11char_traitsIcESaIcEEEEOT_RNSt16remove_referenceIS8_E4typeE, symObjAddr: 0x2DD80, symBinAddr: 0x10002FEB8, symSize: 0x14 }
  - { offsetInCU: 0x55C89, offset: 0x55C89, size: 0x8, addend: 0x0, symName: __ZSt12__get_helperILm0EPSt6vectorIN8nlohmann16json_abi_v3_11_310basic_jsonISt3mapS0_NSt7__cxx1112basic_stringIcSt11char_traitsIcESaIcEEEbxydSaNS2_14adl_serializerES0_IhSaIhEEvEESaISE_EEJZNSE_6createISG_JEEEPT_DpOT0_EUlSH_E_EERKT0_RKSt11_Tuple_implIXT_EJSP_DpT1_EE, symObjAddr: 0x2DD64, symBinAddr: 0x10002FE9C, symSize: 0x1C }
  - { offsetInCU: 0x55CD8, offset: 0x55CD8, size: 0x8, addend: 0x0, symName: __ZSt3getILm1EJPSt6vectorIN8nlohmann16json_abi_v3_11_310basic_jsonISt3mapS0_NSt7__cxx1112basic_stringIcSt11char_traitsIcESaIcEEEbxydSaNS2_14adl_serializerES0_IhSaIhEEvEESaISE_EEZNSE_6createISG_JEEEPT_DpOT0_EUlSH_E_EERNSt13tuple_elementIXT_ESt5tupleIJDpSL_EEE4typeERSS_, symObjAddr: 0x2DD48, symBinAddr: 0x10002FE80, symSize: 0x1C }
  - { offsetInCU: 0x55D1C, offset: 0x55D1C, size: 0x8, addend: 0x0, symName: __ZSt12__get_helperILm0EPSt6vectorIN8nlohmann16json_abi_v3_11_310basic_jsonISt3mapS0_NSt7__cxx1112basic_stringIcSt11char_traitsIcESaIcEEEbxydSaNS2_14adl_serializerES0_IhSaIhEEvEESaISE_EEJZNSE_6createISG_JEEEPT_DpOT0_EUlSH_E_EERT0_RSt11_Tuple_implIXT_EJSP_DpT1_EE, symObjAddr: 0x2DD2C, symBinAddr: 0x10002FE64, symSize: 0x1C }
  - { offsetInCU: 0x55EA6, offset: 0x55EA6, size: 0x8, addend: 0x0, symName: __ZNSt11_Tuple_implILm0EJPSt6vectorIN8nlohmann16json_abi_v3_11_310basic_jsonISt3mapS0_NSt7__cxx1112basic_stringIcSt11char_traitsIcESaIcEEEbxydSaNS2_14adl_serializerES0_IhSaIhEEvEESaISE_EEZNSE_6createISG_JEEEPT_DpOT0_EUlSH_E_EEC2IRSH_JRKSO_EvEEOSJ_SN_, symObjAddr: 0x2DCD0, symBinAddr: 0x10002FE08, symSize: 0x5C }
  - { offsetInCU: 0x55E03, offset: 0x55E03, size: 0x8, addend: 0x0, symName: __ZNSt8_Rb_treeINSt7__cxx1112basic_stringIcSt11char_traitsIcESaIcEEESt4pairIKS5_N8nlohmann16json_abi_v3_11_310basic_jsonISt3mapSt6vectorS5_bxydSaNS9_14adl_serializerESC_IhSaIhEEvEEESt10_Select1stISH_ESt4lessIvESaISH_EE17_M_construct_nodeIJS5_DnEEEvPSt13_Rb_tree_nodeISH_EDpOT_, symObjAddr: 0x2DBE0, symBinAddr: 0x10002FD18, symSize: 0xF0 }
  - { offsetInCU: 0x55FDB, offset: 0x55FDB, size: 0x8, addend: 0x0, symName: __ZNSt15__new_allocatorISt13_Rb_tree_nodeISt4pairIKNSt7__cxx1112basic_stringIcSt11char_traitsIcESaIcEEEN8nlohmann16json_abi_v3_11_310basic_jsonISt3mapSt6vectorS7_bxydSaNSA_14adl_serializerESD_IhSaIhEEvEEEEED2Ev, symObjAddr: 0x2DBCC, symBinAddr: 0x10002FD04, symSize: 0x14 }
  - { offsetInCU: 0x55F75, offset: 0x55F75, size: 0x8, addend: 0x0, symName: __ZNSt20_Rb_tree_key_compareISt4lessIvEEC2Ev, symObjAddr: 0x2DBB8, symBinAddr: 0x10002FCF0, symSize: 0x14 }
  - { offsetInCU: 0x55F85, offset: 0x55F85, size: 0x8, addend: 0x0, symName: __ZSt12__get_helperILm0EPSt3mapINSt7__cxx1112basic_stringIcSt11char_traitsIcESaIcEEEN8nlohmann16json_abi_v3_11_310basic_jsonIS0_St6vectorS6_bxydSaNS8_14adl_serializerESA_IhSaIhEEvEESt4lessIvESaISt4pairIKS6_SE_EEEJZNSE_6createISL_JEEEPT_DpOT0_EUlSM_E_EERKT0_RKSt11_Tuple_implIXT_EJSU_DpT1_EE, symObjAddr: 0x2DB9C, symBinAddr: 0x10002FCD4, symSize: 0x1C }
  - { offsetInCU: 0x55FD4, offset: 0x55FD4, size: 0x8, addend: 0x0, symName: __ZSt3getILm1EJPSt3mapINSt7__cxx1112basic_stringIcSt11char_traitsIcESaIcEEEN8nlohmann16json_abi_v3_11_310basic_jsonIS0_St6vectorS6_bxydSaNS8_14adl_serializerESA_IhSaIhEEvEESt4lessIvESaISt4pairIKS6_SE_EEEZNSE_6createISL_JEEEPT_DpOT0_EUlSM_E_EERNSt13tuple_elementIXT_ESt5tupleIJDpSQ_EEE4typeERSX_, symObjAddr: 0x2DB80, symBinAddr: 0x10002FCB8, symSize: 0x1C }
  - { offsetInCU: 0x56018, offset: 0x56018, size: 0x8, addend: 0x0, symName: __ZSt12__get_helperILm0EPSt3mapINSt7__cxx1112basic_stringIcSt11char_traitsIcESaIcEEEN8nlohmann16json_abi_v3_11_310basic_jsonIS0_St6vectorS6_bxydSaNS8_14adl_serializerESA_IhSaIhEEvEESt4lessIvESaISt4pairIKS6_SE_EEEJZNSE_6createISL_JEEEPT_DpOT0_EUlSM_E_EERT0_RSt11_Tuple_implIXT_EJSU_DpT1_EE, symObjAddr: 0x2DB64, symBinAddr: 0x10002FC9C, symSize: 0x1C }
  - { offsetInCU: 0x561BC, offset: 0x561BC, size: 0x8, addend: 0x0, symName: __ZNSt11_Tuple_implILm0EJPSt3mapINSt7__cxx1112basic_stringIcSt11char_traitsIcESaIcEEEN8nlohmann16json_abi_v3_11_310basic_jsonIS0_St6vectorS6_bxydSaNS8_14adl_serializerESA_IhSaIhEEvEESt4lessIvESaISt4pairIKS6_SE_EEEZNSE_6createISL_JEEEPT_DpOT0_EUlSM_E_EEC2IRSM_JRKST_EvEEOSO_SS_, symObjAddr: 0x2DB08, symBinAddr: 0x10002FC40, symSize: 0x5C }
  - { offsetInCU: 0x56102, offset: 0x56102, size: 0x8, addend: 0x0, symName: __ZSt7forwardIRPSt3mapINSt7__cxx1112basic_stringIcSt11char_traitsIcESaIcEEEN8nlohmann16json_abi_v3_11_310basic_jsonIS0_St6vectorS6_bxydSaNS8_14adl_serializerESA_IhSaIhEEvEESt4lessIvESaISt4pairIKS6_SE_EEEEOT_RNSt16remove_referenceISO_E4typeE, symObjAddr: 0x2DAF4, symBinAddr: 0x10002FC2C, symSize: 0x14 }
  - { offsetInCU: 0x56134, offset: 0x56134, size: 0x8, addend: 0x0, symName: __ZSt19__relocate_object_aISt6vectorIiSaIiEES2_SaIS2_EEvPT_PT0_RT1_, symObjAddr: 0x2DA24, symBinAddr: 0x10002FB5C, symSize: 0xD0 }
  - { offsetInCU: 0x5626A, offset: 0x5626A, size: 0x8, addend: 0x0, symName: __ZNK8nlohmann16json_abi_v3_11_310basic_jsonISt3mapSt6vectorNSt7__cxx1112basic_stringIcSt11char_traitsIcESaIcEEEbxydSaNS0_14adl_serializerES3_IhSaIhEEvE12get_impl_ptrEPKS9_, symObjAddr: 0x2D9E8, symBinAddr: 0x10002FB20, symSize: 0x3C }
  - { offsetInCU: 0x562DE, offset: 0x562DE, size: 0x8, addend: 0x0, symName: __ZNSt6vectorIiSaIiEEC1ERKS1_, symObjAddr: 0x2D8D4, symBinAddr: 0x10002FA0C, symSize: 0x114 }
  - { offsetInCU: 0x563DB, offset: 0x563DB, size: 0x8, addend: 0x0, symName: __ZSt7forwardIRSt6vectorIiSaIiEEEOT_RNSt16remove_referenceIS4_E4typeE, symObjAddr: 0x2D8C0, symBinAddr: 0x10002F9F8, symSize: 0x14 }
  - { offsetInCU: 0x56411, offset: 0x56411, size: 0x8, addend: 0x0, symName: __ZNSt6vectorIiSaIiEEaSERKS1_, symObjAddr: 0x2D578, symBinAddr: 0x10002F6B0, symSize: 0x348 }
  - { offsetInCU: 0x56595, offset: 0x56595, size: 0x8, addend: 0x0, symName: __ZSt11__addressofIKSt6vectorIiSaIiEEEPT_RS4_, symObjAddr: 0x2D564, symBinAddr: 0x10002F69C, symSize: 0x14 }
  - { offsetInCU: 0x565CB, offset: 0x565CB, size: 0x8, addend: 0x0, symName: __ZNK9__gnu_cxx17__normal_iteratorIPKSt6vectorIiSaIiEES1_IS3_SaIS3_EEEdeEv, symObjAddr: 0x2D54C, symBinAddr: 0x10002F684, symSize: 0x18 }
  - { offsetInCU: 0x565F5, offset: 0x565F5, size: 0x8, addend: 0x0, symName: __ZN9__gnu_cxx17__normal_iteratorIPKSt6vectorIiSaIiEES1_IS3_SaIS3_EEEppEv, symObjAddr: 0x2D524, symBinAddr: 0x10002F65C, symSize: 0x28 }
  - { offsetInCU: 0x56622, offset: 0x56622, size: 0x8, addend: 0x0, symName: __ZN9__gnu_cxxneIPKSt6vectorIiSaIiEES1_IS3_SaIS3_EEEEbRKNS_17__normal_iteratorIT_T0_EESD_, symObjAddr: 0x2D4E0, symBinAddr: 0x10002F618, symSize: 0x44 }
  - { offsetInCU: 0x56678, offset: 0x56678, size: 0x8, addend: 0x0, symName: __ZNK9__gnu_cxx16__aligned_membufISt4pairIKiSt6vectorIS3_IiSaIiEESaIS5_EEEE7_M_addrEv, symObjAddr: 0x2D4CC, symBinAddr: 0x10002F604, symSize: 0x14 }
  - { offsetInCU: 0x5672C, offset: 0x5672C, size: 0x8, addend: 0x0, symName: __ZNSt5tupleIJRKiEEC1EOS2_, symObjAddr: 0x2D4A4, symBinAddr: 0x10002F5DC, symSize: 0x28 }
  - { offsetInCU: 0x56745, offset: 0x56745, size: 0x8, addend: 0x0, symName: __ZNSt15__new_allocatorISt13_Rb_tree_nodeISt4pairIKiSt6vectorIS3_IiSaIiEESaIS5_EEEEE8allocateEmPKv, symObjAddr: 0x2D428, symBinAddr: 0x10002F560, symSize: 0x7C }
  - { offsetInCU: 0x567CD, offset: 0x567CD, size: 0x8, addend: 0x0, symName: __ZSt10_ConstructISt6vectorIiSaIiEEJRKS2_EEvPT_DpOT0_, symObjAddr: 0x2D3AC, symBinAddr: 0x10002F4E4, symSize: 0x7C }
  - { offsetInCU: 0x56819, offset: 0x56819, size: 0x8, addend: 0x0, symName: __ZSt10__fill_n_aIPimiET_S1_T0_RKT1_St26random_access_iterator_tag, symObjAddr: 0x2D348, symBinAddr: 0x10002F480, symSize: 0x64 }
  - { offsetInCU: 0x568A3, offset: 0x568A3, size: 0x8, addend: 0x0, symName: __ZNSt6vectorIN8nlohmann16json_abi_v3_11_310basic_jsonISt3mapS_NSt7__cxx1112basic_stringIcSt11char_traitsIcESaIcEEEbxydSaNS1_14adl_serializerES_IhSaIhEEvEESaISD_EE19_M_range_initializeIPKNS1_6detail8json_refISD_EEEEvT_SM_St20forward_iterator_tag, symObjAddr: 0x2D258, symBinAddr: 0x10002F390, symSize: 0xF0 }
  - { offsetInCU: 0x56A9F, offset: 0x56A9F, size: 0x8, addend: 0x0, symName: __ZNSt12_Vector_baseIN8nlohmann16json_abi_v3_11_310basic_jsonISt3mapSt6vectorNSt7__cxx1112basic_stringIcSt11char_traitsIcESaIcEEEbxydSaNS1_14adl_serializerES4_IhSaIhEEvEESaISE_EEC2ERKSF_, symObjAddr: 0x2D230, symBinAddr: 0x10002F368, symSize: 0x28 }
  - { offsetInCU: 0x56A14, offset: 0x56A14, size: 0x8, addend: 0x0, symName: __ZSt12__get_helperILm0EPSt6vectorIN8nlohmann16json_abi_v3_11_310basic_jsonISt3mapS0_NSt7__cxx1112basic_stringIcSt11char_traitsIcESaIcEEEbxydSaNS2_14adl_serializerES0_IhSaIhEEvEESaISE_EEJZNSE_6createISG_JPKNS2_6detail8json_refISE_EESN_EEEPT_DpOT0_EUlSH_E_EERKT0_RKSt11_Tuple_implIXT_EJSU_DpT1_EE, symObjAddr: 0x2D214, symBinAddr: 0x10002F34C, symSize: 0x1C }
  - { offsetInCU: 0x56A63, offset: 0x56A63, size: 0x8, addend: 0x0, symName: __ZSt3getILm1EJPSt6vectorIN8nlohmann16json_abi_v3_11_310basic_jsonISt3mapS0_NSt7__cxx1112basic_stringIcSt11char_traitsIcESaIcEEEbxydSaNS2_14adl_serializerES0_IhSaIhEEvEESaISE_EEZNSE_6createISG_JPKNS2_6detail8json_refISE_EESN_EEEPT_DpOT0_EUlSH_E_EERNSt13tuple_elementIXT_ESt5tupleIJDpSQ_EEE4typeERSX_, symObjAddr: 0x2D1F8, symBinAddr: 0x10002F330, symSize: 0x1C }
  - { offsetInCU: 0x56AA7, offset: 0x56AA7, size: 0x8, addend: 0x0, symName: __ZSt12__get_helperILm0EPSt6vectorIN8nlohmann16json_abi_v3_11_310basic_jsonISt3mapS0_NSt7__cxx1112basic_stringIcSt11char_traitsIcESaIcEEEbxydSaNS2_14adl_serializerES0_IhSaIhEEvEESaISE_EEJZNSE_6createISG_JPKNS2_6detail8json_refISE_EESN_EEEPT_DpOT0_EUlSH_E_EERT0_RSt11_Tuple_implIXT_EJSU_DpT1_EE, symObjAddr: 0x2D1DC, symBinAddr: 0x10002F314, symSize: 0x1C }
  - { offsetInCU: 0x56C50, offset: 0x56C50, size: 0x8, addend: 0x0, symName: __ZNSt11_Tuple_implILm0EJPSt6vectorIN8nlohmann16json_abi_v3_11_310basic_jsonISt3mapS0_NSt7__cxx1112basic_stringIcSt11char_traitsIcESaIcEEEbxydSaNS2_14adl_serializerES0_IhSaIhEEvEESaISE_EEZNSE_6createISG_JPKNS2_6detail8json_refISE_EESN_EEEPT_DpOT0_EUlSH_E_EEC2IRSH_JRKST_EvEEOSO_SS_, symObjAddr: 0x2D180, symBinAddr: 0x10002F2B8, symSize: 0x5C }
  - { offsetInCU: 0x56B91, offset: 0x56B91, size: 0x8, addend: 0x0, symName: __ZSt7forwardIRPSt6vectorIN8nlohmann16json_abi_v3_11_310basic_jsonISt3mapS0_NSt7__cxx1112basic_stringIcSt11char_traitsIcESaIcEEEbxydSaNS2_14adl_serializerES0_IhSaIhEEvEESaISE_EEEOT_RNSt16remove_referenceISJ_E4typeE, symObjAddr: 0x2D16C, symBinAddr: 0x10002F2A4, symSize: 0x14 }
  - { offsetInCU: 0x56BD1, offset: 0x56BD1, size: 0x8, addend: 0x0, symName: __ZSt7forwardIRPSt13_Rb_tree_nodeISt4pairIKNSt7__cxx1112basic_stringIcSt11char_traitsIcESaIcEEEN8nlohmann16json_abi_v3_11_310basic_jsonISt3mapSt6vectorS7_bxydSaNSA_14adl_serializerESD_IhSaIhEEvEEEEEOT_RNSt16remove_referenceISM_E4typeE, symObjAddr: 0x2D158, symBinAddr: 0x10002F290, symSize: 0x14 }
  - { offsetInCU: 0x56C07, offset: 0x56C07, size: 0x8, addend: 0x0, symName: __ZNKSt10_Select1stISt4pairIKNSt7__cxx1112basic_stringIcSt11char_traitsIcESaIcEEEN8nlohmann16json_abi_v3_11_310basic_jsonISt3mapSt6vectorS6_bxydSaNS9_14adl_serializerESC_IhSaIhEEvEEEEclERKSH_, symObjAddr: 0x2D140, symBinAddr: 0x10002F278, symSize: 0x18 }
  - { offsetInCU: 0x56C42, offset: 0x56C42, size: 0x8, addend: 0x0, symName: __ZNSt8_Rb_treeINSt7__cxx1112basic_stringIcSt11char_traitsIcESaIcEEESt4pairIKS5_N8nlohmann16json_abi_v3_11_310basic_jsonISt3mapSt6vectorS5_bxydSaNS9_14adl_serializerESC_IhSaIhEEvEEESt10_Select1stISH_ESt4lessIvESaISH_EE11_M_put_nodeEPSt13_Rb_tree_nodeISH_E, symObjAddr: 0x2D0F4, symBinAddr: 0x10002F22C, symSize: 0x4C }
  - { offsetInCU: 0x56CB3, offset: 0x56CB3, size: 0x8, addend: 0x0, symName: __ZNSt8_Rb_treeINSt7__cxx1112basic_stringIcSt11char_traitsIcESaIcEEESt4pairIKS5_N8nlohmann16json_abi_v3_11_310basic_jsonISt3mapSt6vectorS5_bxydSaNS9_14adl_serializerESC_IhSaIhEEvEEESt10_Select1stISH_ESt4lessIvESaISH_EE15_M_destroy_nodeEPSt13_Rb_tree_nodeISH_E, symObjAddr: 0x2D094, symBinAddr: 0x10002F1CC, symSize: 0x60 }
  - { offsetInCU: 0x56D48, offset: 0x56D48, size: 0x8, addend: 0x0, symName: __ZNSt8_Rb_treeINSt7__cxx1112basic_stringIcSt11char_traitsIcESaIcEEESt4pairIKS5_N8nlohmann16json_abi_v3_11_310basic_jsonISt3mapSt6vectorS5_bxydSaNS9_14adl_serializerESC_IhSaIhEEvEEESt10_Select1stISH_ESt4lessIvESaISH_EE17_M_construct_nodeIJS5_SG_EEEvPSt13_Rb_tree_nodeISH_EDpOT_, symObjAddr: 0x2CFA4, symBinAddr: 0x10002F0DC, symSize: 0xF0 }
  - { offsetInCU: 0x56E2E, offset: 0x56E2E, size: 0x8, addend: 0x0, symName: __ZNSt8_Rb_treeINSt7__cxx1112basic_stringIcSt11char_traitsIcESaIcEEESt4pairIKS5_N8nlohmann16json_abi_v3_11_310basic_jsonISt3mapSt6vectorS5_bxydSaNS9_14adl_serializerESC_IhSaIhEEvEEESt10_Select1stISH_ESt4lessIvESaISH_EE11_M_get_nodeEv, symObjAddr: 0x2CF68, symBinAddr: 0x10002F0A0, symSize: 0x3C }
  - { offsetInCU: 0x56E85, offset: 0x56E85, size: 0x8, addend: 0x0, symName: __ZNSt8_Rb_treeINSt7__cxx1112basic_stringIcSt11char_traitsIcESaIcEEESt4pairIKS5_N8nlohmann16json_abi_v3_11_310basic_jsonISt3mapSt6vectorS5_bxydSaNS9_14adl_serializerESC_IhSaIhEEvEEESt10_Select1stISH_ESt4lessIvESaISH_EE11_M_leftmostEv, symObjAddr: 0x2CF50, symBinAddr: 0x10002F088, symSize: 0x18 }
  - { offsetInCU: 0x56EAF, offset: 0x56EAF, size: 0x8, addend: 0x0, symName: __ZNSt8_Rb_treeINSt7__cxx1112basic_stringIcSt11char_traitsIcESaIcEEESt4pairIKS5_N8nlohmann16json_abi_v3_11_310basic_jsonISt3mapSt6vectorS5_bxydSaNS9_14adl_serializerESC_IhSaIhEEvEEESt10_Select1stISH_ESt4lessIvESaISH_EE12_M_rightmostEv, symObjAddr: 0x2CF38, symBinAddr: 0x10002F070, symSize: 0x18 }
  - { offsetInCU: 0x56ED9, offset: 0x56ED9, size: 0x8, addend: 0x0, symName: __ZNKSt23_Rb_tree_const_iteratorISt4pairIKNSt7__cxx1112basic_stringIcSt11char_traitsIcESaIcEEEN8nlohmann16json_abi_v3_11_310basic_jsonISt3mapSt6vectorS6_bxydSaNS9_14adl_serializerESC_IhSaIhEEvEEEE13_M_const_castEv, symObjAddr: 0x2CF10, symBinAddr: 0x10002F048, symSize: 0x28 }
  - { offsetInCU: 0x56F03, offset: 0x56F03, size: 0x8, addend: 0x0, symName: __ZN9__gnu_cxx5__ops12_Iter_negateIZN8nlohmann16json_abi_v3_11_310basic_jsonISt3mapSt6vectorNSt7__cxx1112basic_stringIcSt11char_traitsIcESaIcEEEbxydSaNS3_14adl_serializerES6_IhSaIhEEvEC4ESt16initializer_listINS3_6detail8json_refISG_EEEbNSI_7value_tEEUlRKSK_E_EclIPSN_EEbT_, symObjAddr: 0x2CEE4, symBinAddr: 0x10002F01C, symSize: 0x2C }
  - { offsetInCU: 0x57075, offset: 0x57075, size: 0x8, addend: 0x0, symName: __ZN9__gnu_cxx5__ops12_Iter_negateIZN8nlohmann16json_abi_v3_11_310basic_jsonISt3mapSt6vectorNSt7__cxx1112basic_stringIcSt11char_traitsIcESaIcEEEbxydSaNS3_14adl_serializerES6_IhSaIhEEvEC4ESt16initializer_listINS3_6detail8json_refISG_EEEbNSI_7value_tEEUlRKSK_E_EC1ESP_, symObjAddr: 0x2CEC0, symBinAddr: 0x10002EFF8, symSize: 0x24 }
  - { offsetInCU: 0x56F9A, offset: 0x56F9A, size: 0x8, addend: 0x0, symName: __ZSt13__copy_move_aILb0EPKiPiET1_T0_S4_S3_, symObjAddr: 0x2CE60, symBinAddr: 0x10002EF98, symSize: 0x60 }
  - { offsetInCU: 0x57002, offset: 0x57002, size: 0x8, addend: 0x0, symName: __ZSt12__miter_baseIPKiET_S2_, symObjAddr: 0x2CE4C, symBinAddr: 0x10002EF84, symSize: 0x14 }
  - { offsetInCU: 0x5708A, offset: 0x5708A, size: 0x8, addend: 0x0, symName: __ZNSt14_Sp_ebo_helperILi0ESaIvELb1EEC2ERKS0_, symObjAddr: 0x2CE34, symBinAddr: 0x10002EF6C, symSize: 0x18 }
  - { offsetInCU: 0x570CB, offset: 0x570CB, size: 0x8, addend: 0x0, symName: __ZNSt12_Vector_baseIhSaIhEE19_M_get_Tp_allocatorEv, symObjAddr: 0x2CE20, symBinAddr: 0x10002EF58, symSize: 0x14 }
  - { offsetInCU: 0x57135, offset: 0x57135, size: 0x8, addend: 0x0, symName: __ZNSt12_Vector_baseIhSaIhEED2Ev, symObjAddr: 0x2CDD4, symBinAddr: 0x10002EF0C, symSize: 0x4C }
  - { offsetInCU: 0x5717D, offset: 0x5717D, size: 0x8, addend: 0x0, symName: __ZSt14__copy_move_a2ILb1EPN8nlohmann16json_abi_v3_11_310basic_jsonISt3mapSt6vectorNSt7__cxx1112basic_stringIcSt11char_traitsIcESaIcEEEbxydSaNS1_14adl_serializerES4_IhSaIhEEvEESt20back_insert_iteratorIS4_ISE_SaISE_EEEET1_T0_SL_SK_, symObjAddr: 0x2CDA8, symBinAddr: 0x10002EEE0, symSize: 0x2C }
  - { offsetInCU: 0x571FB, offset: 0x571FB, size: 0x8, addend: 0x0, symName: __ZNSt12_Destroy_auxILb0EE9__destroyIPN8nlohmann16json_abi_v3_11_310basic_jsonISt3mapSt6vectorNSt7__cxx1112basic_stringIcSt11char_traitsIcESaIcEEEbxydSaNS3_14adl_serializerES6_IhSaIhEEvEEEEvT_SI_, symObjAddr: 0x2CD5C, symBinAddr: 0x10002EE94, symSize: 0x4C }
  - { offsetInCU: 0x57241, offset: 0x57241, size: 0x8, addend: 0x0, symName: __ZNSt6vectorIN8nlohmann16json_abi_v3_11_310basic_jsonISt3mapS_NSt7__cxx1112basic_stringIcSt11char_traitsIcESaIcEEEbxydSaNS1_14adl_serializerES_IhSaIhEEvEESaISD_EE17_M_realloc_appendIJRyEEEvDpOT_, symObjAddr: 0x2CB9C, symBinAddr: 0x10002ECD4, symSize: 0x1C0 }
  - { offsetInCU: 0x5749C, offset: 0x5749C, size: 0x8, addend: 0x0, symName: __ZZNSt6vectorIN8nlohmann16json_abi_v3_11_310basic_jsonISt3mapS_NSt7__cxx1112basic_stringIcSt11char_traitsIcESaIcEEEbxydSaNS1_14adl_serializerES_IhSaIhEEvEESaISD_EE17_M_realloc_appendIJRyEEEvDpOT_EN6_GuardC1EPSD_mRSE_, symObjAddr: 0x2CAF8, symBinAddr: 0x10002EC30, symSize: 0x44 }
  - { offsetInCU: 0x574D9, offset: 0x574D9, size: 0x8, addend: 0x0, symName: __ZZNSt6vectorIN8nlohmann16json_abi_v3_11_310basic_jsonISt3mapS_NSt7__cxx1112basic_stringIcSt11char_traitsIcESaIcEEEbxydSaNS1_14adl_serializerES_IhSaIhEEvEESaISD_EE17_M_realloc_appendIJRyEEEvDpOT_EN6_GuardD1Ev, symObjAddr: 0x2CB3C, symBinAddr: 0x10002EC74, symSize: 0x60 }
  - { offsetInCU: 0x57543, offset: 0x57543, size: 0x8, addend: 0x0, symName: __ZNSt6vectorIN8nlohmann16json_abi_v3_11_310basic_jsonISt3mapS_NSt7__cxx1112basic_stringIcSt11char_traitsIcESaIcEEEbxydSaNS1_14adl_serializerES_IhSaIhEEvEESaISD_EE17_M_realloc_appendIJRS9_EEEvDpOT_, symObjAddr: 0x2C8FC, symBinAddr: 0x10002EA34, symSize: 0x1FC }
  - { offsetInCU: 0x577A0, offset: 0x577A0, size: 0x8, addend: 0x0, symName: __ZZNSt6vectorIN8nlohmann16json_abi_v3_11_310basic_jsonISt3mapS_NSt7__cxx1112basic_stringIcSt11char_traitsIcESaIcEEEbxydSaNS1_14adl_serializerES_IhSaIhEEvEESaISD_EE17_M_realloc_appendIJRS9_EEEvDpOT_EN6_GuardC1EPSD_mRSE_, symObjAddr: 0x2C858, symBinAddr: 0x10002E990, symSize: 0x44 }
  - { offsetInCU: 0x577DD, offset: 0x577DD, size: 0x8, addend: 0x0, symName: __ZZNSt6vectorIN8nlohmann16json_abi_v3_11_310basic_jsonISt3mapS_NSt7__cxx1112basic_stringIcSt11char_traitsIcESaIcEEEbxydSaNS1_14adl_serializerES_IhSaIhEEvEESaISD_EE17_M_realloc_appendIJRS9_EEEvDpOT_EN6_GuardD1Ev, symObjAddr: 0x2C89C, symBinAddr: 0x10002E9D4, symSize: 0x60 }
  - { offsetInCU: 0x57841, offset: 0x57841, size: 0x8, addend: 0x0, symName: __ZNSt6vectorIN8nlohmann16json_abi_v3_11_310basic_jsonISt3mapS_NSt7__cxx1112basic_stringIcSt11char_traitsIcESaIcEEEbxydSaNS1_14adl_serializerES_IhSaIhEEvEESaISD_EE17_M_realloc_appendIJRxEEEvDpOT_, symObjAddr: 0x2C698, symBinAddr: 0x10002E7D0, symSize: 0x1C0 }
  - { offsetInCU: 0x57A9C, offset: 0x57A9C, size: 0x8, addend: 0x0, symName: __ZZNSt6vectorIN8nlohmann16json_abi_v3_11_310basic_jsonISt3mapS_NSt7__cxx1112basic_stringIcSt11char_traitsIcESaIcEEEbxydSaNS1_14adl_serializerES_IhSaIhEEvEESaISD_EE17_M_realloc_appendIJRxEEEvDpOT_EN6_GuardC1EPSD_mRSE_, symObjAddr: 0x2C5F4, symBinAddr: 0x10002E72C, symSize: 0x44 }
  - { offsetInCU: 0x57AD9, offset: 0x57AD9, size: 0x8, addend: 0x0, symName: __ZZNSt6vectorIN8nlohmann16json_abi_v3_11_310basic_jsonISt3mapS_NSt7__cxx1112basic_stringIcSt11char_traitsIcESaIcEEEbxydSaNS1_14adl_serializerES_IhSaIhEEvEESaISD_EE17_M_realloc_appendIJRxEEEvDpOT_EN6_GuardD1Ev, symObjAddr: 0x2C638, symBinAddr: 0x10002E770, symSize: 0x60 }
  - { offsetInCU: 0x57B43, offset: 0x57B43, size: 0x8, addend: 0x0, symName: __ZNSt6vectorIN8nlohmann16json_abi_v3_11_310basic_jsonISt3mapS_NSt7__cxx1112basic_stringIcSt11char_traitsIcESaIcEEEbxydSaNS1_14adl_serializerES_IhSaIhEEvEESaISD_EE17_M_realloc_appendIJDnEEEvDpOT_, symObjAddr: 0x2C430, symBinAddr: 0x10002E568, symSize: 0x1C4 }
  - { offsetInCU: 0x57D9E, offset: 0x57D9E, size: 0x8, addend: 0x0, symName: __ZZNSt6vectorIN8nlohmann16json_abi_v3_11_310basic_jsonISt3mapS_NSt7__cxx1112basic_stringIcSt11char_traitsIcESaIcEEEbxydSaNS1_14adl_serializerES_IhSaIhEEvEESaISD_EE17_M_realloc_appendIJDnEEEvDpOT_EN6_GuardC1EPSD_mRSE_, symObjAddr: 0x2C38C, symBinAddr: 0x10002E4C4, symSize: 0x44 }
  - { offsetInCU: 0x57DDB, offset: 0x57DDB, size: 0x8, addend: 0x0, symName: __ZZNSt6vectorIN8nlohmann16json_abi_v3_11_310basic_jsonISt3mapS_NSt7__cxx1112basic_stringIcSt11char_traitsIcESaIcEEEbxydSaNS1_14adl_serializerES_IhSaIhEEvEESaISD_EE17_M_realloc_appendIJDnEEEvDpOT_EN6_GuardD1Ev, symObjAddr: 0x2C3D0, symBinAddr: 0x10002E508, symSize: 0x60 }
  - { offsetInCU: 0x57E45, offset: 0x57E45, size: 0x8, addend: 0x0, symName: __ZNSt6vectorIN8nlohmann16json_abi_v3_11_310basic_jsonISt3mapS_NSt7__cxx1112basic_stringIcSt11char_traitsIcESaIcEEEbxydSaNS1_14adl_serializerES_IhSaIhEEvEESaISD_EE17_M_realloc_appendIJRbEEEvDpOT_, symObjAddr: 0x2C1CC, symBinAddr: 0x10002E304, symSize: 0x1C0 }
  - { offsetInCU: 0x580A0, offset: 0x580A0, size: 0x8, addend: 0x0, symName: __ZZNSt6vectorIN8nlohmann16json_abi_v3_11_310basic_jsonISt3mapS_NSt7__cxx1112basic_stringIcSt11char_traitsIcESaIcEEEbxydSaNS1_14adl_serializerES_IhSaIhEEvEESaISD_EE17_M_realloc_appendIJRbEEEvDpOT_EN6_GuardC1EPSD_mRSE_, symObjAddr: 0x2C128, symBinAddr: 0x10002E260, symSize: 0x44 }
  - { offsetInCU: 0x580DD, offset: 0x580DD, size: 0x8, addend: 0x0, symName: __ZZNSt6vectorIN8nlohmann16json_abi_v3_11_310basic_jsonISt3mapS_NSt7__cxx1112basic_stringIcSt11char_traitsIcESaIcEEEbxydSaNS1_14adl_serializerES_IhSaIhEEvEESaISD_EE17_M_realloc_appendIJRbEEEvDpOT_EN6_GuardD1Ev, symObjAddr: 0x2C16C, symBinAddr: 0x10002E2A4, symSize: 0x60 }
  - { offsetInCU: 0x58147, offset: 0x58147, size: 0x8, addend: 0x0, symName: __ZNSt6vectorIN8nlohmann16json_abi_v3_11_310basic_jsonISt3mapS_NSt7__cxx1112basic_stringIcSt11char_traitsIcESaIcEEEbxydSaNS1_14adl_serializerES_IhSaIhEEvEESaISD_EE17_M_realloc_appendIJRdEEEvDpOT_, symObjAddr: 0x2BF68, symBinAddr: 0x10002E0A0, symSize: 0x1C0 }
  - { offsetInCU: 0x583A2, offset: 0x583A2, size: 0x8, addend: 0x0, symName: __ZZNSt6vectorIN8nlohmann16json_abi_v3_11_310basic_jsonISt3mapS_NSt7__cxx1112basic_stringIcSt11char_traitsIcESaIcEEEbxydSaNS1_14adl_serializerES_IhSaIhEEvEESaISD_EE17_M_realloc_appendIJRdEEEvDpOT_EN6_GuardC1EPSD_mRSE_, symObjAddr: 0x2BEC4, symBinAddr: 0x10002DFFC, symSize: 0x44 }
  - { offsetInCU: 0x583DF, offset: 0x583DF, size: 0x8, addend: 0x0, symName: __ZZNSt6vectorIN8nlohmann16json_abi_v3_11_310basic_jsonISt3mapS_NSt7__cxx1112basic_stringIcSt11char_traitsIcESaIcEEEbxydSaNS1_14adl_serializerES_IhSaIhEEvEESaISD_EE17_M_realloc_appendIJRdEEEvDpOT_EN6_GuardD1Ev, symObjAddr: 0x2BF08, symBinAddr: 0x10002E040, symSize: 0x60 }
  - { offsetInCU: 0x58449, offset: 0x58449, size: 0x8, addend: 0x0, symName: __ZNSt6vectorIPN8nlohmann16json_abi_v3_11_310basic_jsonISt3mapS_NSt7__cxx1112basic_stringIcSt11char_traitsIcESaIcEEEbxydSaNS1_14adl_serializerES_IhSaIhEEvEESaISE_EE17_M_realloc_appendIJSE_EEEvDpOT_, symObjAddr: 0x2BD08, symBinAddr: 0x10002DE40, symSize: 0x1BC }
  - { offsetInCU: 0x586A6, offset: 0x586A6, size: 0x8, addend: 0x0, symName: __ZZNSt6vectorIPN8nlohmann16json_abi_v3_11_310basic_jsonISt3mapS_NSt7__cxx1112basic_stringIcSt11char_traitsIcESaIcEEEbxydSaNS1_14adl_serializerES_IhSaIhEEvEESaISE_EE17_M_realloc_appendIJSE_EEEvDpOT_EN6_GuardC1EPSE_mRSF_, symObjAddr: 0x2BC64, symBinAddr: 0x10002DD9C, symSize: 0x44 }
  - { offsetInCU: 0x586E3, offset: 0x586E3, size: 0x8, addend: 0x0, symName: __ZZNSt6vectorIPN8nlohmann16json_abi_v3_11_310basic_jsonISt3mapS_NSt7__cxx1112basic_stringIcSt11char_traitsIcESaIcEEEbxydSaNS1_14adl_serializerES_IhSaIhEEvEESaISE_EE17_M_realloc_appendIJSE_EEEvDpOT_EN6_GuardD1Ev, symObjAddr: 0x2BCA8, symBinAddr: 0x10002DDE0, symSize: 0x60 }
  - { offsetInCU: 0x5874B, offset: 0x5874B, size: 0x8, addend: 0x0, symName: __ZNSt6vectorIN8nlohmann16json_abi_v3_11_310basic_jsonISt3mapS_NSt7__cxx1112basic_stringIcSt11char_traitsIcESaIcEEEbxydSaNS1_14adl_serializerES_IhSaIhEEvEESaISD_EE17_M_realloc_appendIJNS1_6detail7value_tEEEEvDpOT_, symObjAddr: 0x2BA64, symBinAddr: 0x10002DB9C, symSize: 0x200 }
  - { offsetInCU: 0x589B8, offset: 0x589B8, size: 0x8, addend: 0x0, symName: __ZZNSt6vectorIN8nlohmann16json_abi_v3_11_310basic_jsonISt3mapS_NSt7__cxx1112basic_stringIcSt11char_traitsIcESaIcEEEbxydSaNS1_14adl_serializerES_IhSaIhEEvEESaISD_EE17_M_realloc_appendIJNS1_6detail7value_tEEEEvDpOT_EN6_GuardC1EPSD_mRSE_, symObjAddr: 0x2B9C0, symBinAddr: 0x10002DAF8, symSize: 0x44 }
  - { offsetInCU: 0x589F5, offset: 0x589F5, size: 0x8, addend: 0x0, symName: __ZZNSt6vectorIN8nlohmann16json_abi_v3_11_310basic_jsonISt3mapS_NSt7__cxx1112basic_stringIcSt11char_traitsIcESaIcEEEbxydSaNS1_14adl_serializerES_IhSaIhEEvEESaISD_EE17_M_realloc_appendIJNS1_6detail7value_tEEEEvDpOT_EN6_GuardD1Ev, symObjAddr: 0x2BA04, symBinAddr: 0x10002DB3C, symSize: 0x60 }
  - { offsetInCU: 0x58A45, offset: 0x58A45, size: 0x8, addend: 0x0, symName: __ZN8nlohmann16json_abi_v3_11_36detail11concat_intoINSt7__cxx1112basic_stringIcSt11char_traitsIcESaIcEEES8_JRA3_KcS8_RKS8_ELi0EEEvRT_OT0_DpOT1_, symObjAddr: 0x2B948, symBinAddr: 0x10002DA80, symSize: 0x78 }
  - { offsetInCU: 0x58AC9, offset: 0x58AC9, size: 0x8, addend: 0x0, symName: __ZN8nlohmann16json_abi_v3_11_36detail13concat_lengthINSt7__cxx1112basic_stringIcSt11char_traitsIcESaIcEEEJA3_cS8_S8_EEEmRKT_DpRKT0_, symObjAddr: 0x2B900, symBinAddr: 0x10002DA38, symSize: 0x48 }
  - { offsetInCU: 0x58B37, offset: 0x58B37, size: 0x8, addend: 0x0, symName: __ZNKSt16initializer_listIjE3endEv, symObjAddr: 0x2B8C8, symBinAddr: 0x10002DA00, symSize: 0x38 }
  - { offsetInCU: 0x58B61, offset: 0x58B61, size: 0x8, addend: 0x0, symName: __ZNKSt16initializer_listIjE5beginEv, symObjAddr: 0x2B8B0, symBinAddr: 0x10002D9E8, symSize: 0x18 }
  - { offsetInCU: 0x58B8B, offset: 0x58B8B, size: 0x8, addend: 0x0, symName: __ZNSt6vectorIcSaIcEE5clearEv, symObjAddr: 0x2B884, symBinAddr: 0x10002D9BC, symSize: 0x2C }
  - { offsetInCU: 0x58BB5, offset: 0x58BB5, size: 0x8, addend: 0x0, symName: __ZNSt6vectorIcSaIcEE8pop_backEv, symObjAddr: 0x2B830, symBinAddr: 0x10002D968, symSize: 0x54 }
  - { offsetInCU: 0x58C39, offset: 0x58C39, size: 0x8, addend: 0x0, symName: __ZNKSt6vectorIcSaIcEE5emptyEv, symObjAddr: 0x2B7F8, symBinAddr: 0x10002D930, symSize: 0x38 }
  - { offsetInCU: 0x58C63, offset: 0x58C63, size: 0x8, addend: 0x0, symName: __ZNSt6vectorIcSaIcEE9push_backEOc, symObjAddr: 0x2B7C8, symBinAddr: 0x10002D900, symSize: 0x30 }
  - { offsetInCU: 0x58C9A, offset: 0x58C9A, size: 0x8, addend: 0x0, symName: __ZN8nlohmann16json_abi_v3_11_314adl_serializerIyvE7to_jsonINS0_10basic_jsonISt3mapSt6vectorNSt7__cxx1112basic_stringIcSt11char_traitsIcESaIcEEEbxydSaS1_S6_IhSaIhEEvEERyEEDTcmclL_ZNS0_7to_jsonEEfp_cl7forwardIT0_Efp0_EEcvv_EERT_OSH_, symObjAddr: 0x2B784, symBinAddr: 0x10002D8BC, symSize: 0x44 }
  - { offsetInCU: 0x58CE7, offset: 0x58CE7, size: 0x8, addend: 0x0, symName: __ZN8nlohmann16json_abi_v3_11_314adl_serializerIxvE7to_jsonINS0_10basic_jsonISt3mapSt6vectorNSt7__cxx1112basic_stringIcSt11char_traitsIcESaIcEEEbxydSaS1_S6_IhSaIhEEvEERxEEDTcmclL_ZNS0_7to_jsonEEfp_cl7forwardIT0_Efp0_EEcvv_EERT_OSH_, symObjAddr: 0x2B740, symBinAddr: 0x10002D878, symSize: 0x44 }
  - { offsetInCU: 0x58D34, offset: 0x58D34, size: 0x8, addend: 0x0, symName: __ZN8nlohmann16json_abi_v3_11_314adl_serializerIbvE7to_jsonINS0_10basic_jsonISt3mapSt6vectorNSt7__cxx1112basic_stringIcSt11char_traitsIcESaIcEEEbxydSaS1_S6_IhSaIhEEvEERbEEDTcmclL_ZNS0_7to_jsonEEfp_cl7forwardIT0_Efp0_EEcvv_EERT_OSH_, symObjAddr: 0x2B6FC, symBinAddr: 0x10002D834, symSize: 0x44 }
  - { offsetInCU: 0x58D81, offset: 0x58D81, size: 0x8, addend: 0x0, symName: __ZN8nlohmann16json_abi_v3_11_314adl_serializerIdvE7to_jsonINS0_10basic_jsonISt3mapSt6vectorNSt7__cxx1112basic_stringIcSt11char_traitsIcESaIcEEEbxydSaS1_S6_IhSaIhEEvEERdEEDTcmclL_ZNS0_7to_jsonEEfp_cl7forwardIT0_Efp0_EEcvv_EERT_OSH_, symObjAddr: 0x2B6B8, symBinAddr: 0x10002D7F0, symSize: 0x44 }
  - { offsetInCU: 0x58DCE, offset: 0x58DCE, size: 0x8, addend: 0x0, symName: __ZN8nlohmann16json_abi_v3_11_36detail11concat_intoINSt7__cxx1112basic_stringIcSt11char_traitsIcESaIcEEEcJELi0EEEvRT_OT0_DpOT1_, symObjAddr: 0x2B67C, symBinAddr: 0x10002D7B4, symSize: 0x3C }
  - { offsetInCU: 0x58E26, offset: 0x58E26, size: 0x8, addend: 0x0, symName: __ZN8nlohmann16json_abi_v3_11_36detail13concat_lengthIJEEEmcDpRKT_, symObjAddr: 0x2B660, symBinAddr: 0x10002D798, symSize: 0x1C }
  - { offsetInCU: 0x58FCE, offset: 0x58FCE, size: 0x8, addend: 0x0, symName: __ZNSt8_Rb_treeINSt7__cxx1112basic_stringIcSt11char_traitsIcESaIcEEESt4pairIKS5_N8nlohmann16json_abi_v3_11_310basic_jsonISt3mapSt6vectorS5_bxydSaNS9_14adl_serializerESC_IhSaIhEEvEEESt10_Select1stISH_ESt4lessIvESaISH_EE10_Auto_nodeC1IJRKSt21piecewise_construct_tSt5tupleIJRS7_EEST_IJEEEEERSN_DpOT_, symObjAddr: 0x2B5E4, symBinAddr: 0x10002D71C, symSize: 0x7C }
  - { offsetInCU: 0x58F13, offset: 0x58F13, size: 0x8, addend: 0x0, symName: __ZSt7forwardISt5tupleIJRKNSt7__cxx1112basic_stringIcSt11char_traitsIcESaIcEEEEEEOT_RNSt16remove_referenceISA_E4typeE, symObjAddr: 0x2B5D0, symBinAddr: 0x10002D708, symSize: 0x14 }
  - { offsetInCU: 0x58FC4, offset: 0x58FC4, size: 0x8, addend: 0x0, symName: __ZNSt11_Tuple_implILm0EJRKNSt7__cxx1112basic_stringIcSt11char_traitsIcESaIcEEEEEC2ES7_, symObjAddr: 0x2B5A8, symBinAddr: 0x10002D6E0, symSize: 0x28 }
  - { offsetInCU: 0x58FA0, offset: 0x58FA0, size: 0x8, addend: 0x0, symName: __ZNK8nlohmann16json_abi_v3_11_36detail10to_json_fnclINS0_10basic_jsonISt3mapSt6vectorNSt7__cxx1112basic_stringIcSt11char_traitsIcESaIcEEEbxydSaNS0_14adl_serializerES6_IhSaIhEEvEERSC_EEDTcmcl7to_jsonfp_cl7forwardIT0_Efp0_EEcvv_EERT_OSI_, symObjAddr: 0x2B574, symBinAddr: 0x10002D6AC, symSize: 0x34 }
  - { offsetInCU: 0x59001, offset: 0x59001, size: 0x8, addend: 0x0, symName: __ZN8nlohmann16json_abi_v3_11_36detail11concat_intoINSt7__cxx1112basic_stringIcSt11char_traitsIcESaIcEEERA25_KcJPS9_ELi0EEEvRT_OT0_DpOT1_, symObjAddr: 0x2B52C, symBinAddr: 0x10002D664, symSize: 0x48 }
  - { offsetInCU: 0x59070, offset: 0x59070, size: 0x8, addend: 0x0, symName: __ZSt7forwardIRA25_KcEOT_RNSt16remove_referenceIS3_E4typeE, symObjAddr: 0x2B518, symBinAddr: 0x10002D650, symSize: 0x14 }
  - { offsetInCU: 0x590A6, offset: 0x590A6, size: 0x8, addend: 0x0, symName: __ZNSt6vectorIN8nlohmann16json_abi_v3_11_310basic_jsonISt3mapS_NSt7__cxx1112basic_stringIcSt11char_traitsIcESaIcEEEbxydSaNS1_14adl_serializerES_IhSaIhEEvEESaISD_EE8_M_eraseEN9__gnu_cxx17__normal_iteratorIPSD_SF_EE, symObjAddr: 0x2B450, symBinAddr: 0x10002D588, symSize: 0xC8 }
  - { offsetInCU: 0x59139, offset: 0x59139, size: 0x8, addend: 0x0, symName: __ZNK9__gnu_cxx17__normal_iteratorIPN8nlohmann16json_abi_v3_11_310basic_jsonISt3mapSt6vectorNSt7__cxx1112basic_stringIcSt11char_traitsIcESaIcEEEbxydSaNS2_14adl_serializerES5_IhSaIhEEvEES5_ISF_SaISF_EEEplEl, symObjAddr: 0x2B410, symBinAddr: 0x10002D548, symSize: 0x40 }
  - { offsetInCU: 0x59177, offset: 0x59177, size: 0x8, addend: 0x0, symName: __ZN9__gnu_cxxmiIPKN8nlohmann16json_abi_v3_11_310basic_jsonISt3mapSt6vectorNSt7__cxx1112basic_stringIcSt11char_traitsIcESaIcEEEbxydSaNS2_14adl_serializerES5_IhSaIhEEvEES5_ISF_SaISF_EEEENS_17__normal_iteratorIT_T0_E15difference_typeERKSN_SQ_, symObjAddr: 0x2B3D0, symBinAddr: 0x10002D508, symSize: 0x40 }
  - { offsetInCU: 0x591C8, offset: 0x591C8, size: 0x8, addend: 0x0, symName: __ZNSt8_Rb_treeINSt7__cxx1112basic_stringIcSt11char_traitsIcESaIcEEESt4pairIKS5_N8nlohmann16json_abi_v3_11_310basic_jsonISt3mapSt6vectorS5_bxydSaNS9_14adl_serializerESC_IhSaIhEEvEEESt10_Select1stISH_ESt4lessIvESaISH_EE5eraseB5cxx11ESt17_Rb_tree_iteratorISH_E, symObjAddr: 0x2B344, symBinAddr: 0x10002D47C, symSize: 0x8C }
  - { offsetInCU: 0x5925A, offset: 0x5925A, size: 0x8, addend: 0x0, symName: __ZNK9__gnu_cxx17__normal_iteratorIPKPN8nlohmann16json_abi_v3_11_310basic_jsonISt3mapSt6vectorNSt7__cxx1112basic_stringIcSt11char_traitsIcESaIcEEEbxydSaNS2_14adl_serializerES5_IhSaIhEEvEES5_ISG_SaISG_EEE4baseEv, symObjAddr: 0x2B330, symBinAddr: 0x10002D468, symSize: 0x14 }
  - { offsetInCU: 0x5937A, offset: 0x5937A, size: 0x8, addend: 0x0, symName: __ZN9__gnu_cxx17__normal_iteratorIPKPN8nlohmann16json_abi_v3_11_310basic_jsonISt3mapSt6vectorNSt7__cxx1112basic_stringIcSt11char_traitsIcESaIcEEEbxydSaNS2_14adl_serializerES5_IhSaIhEEvEES5_ISG_SaISG_EEEC1ERKSI_, symObjAddr: 0x2B308, symBinAddr: 0x10002D440, symSize: 0x28 }
  - { offsetInCU: 0x592DB, offset: 0x592DB, size: 0x8, addend: 0x0, symName: __ZNKSt8_Rb_treeINSt7__cxx1112basic_stringIcSt11char_traitsIcESaIcEEESt4pairIKS5_N8nlohmann16json_abi_v3_11_310basic_jsonISt3mapSt6vectorS5_bxydSaNS9_14adl_serializerESC_IhSaIhEEvEEESt10_Select1stISH_ESt4lessIvESaISH_EE8max_sizeEv, symObjAddr: 0x2B2C8, symBinAddr: 0x10002D400, symSize: 0x40 }
  - { offsetInCU: 0x59465, offset: 0x59465, size: 0x8, addend: 0x0, symName: __ZN9__gnu_cxx17__normal_iteratorIPPN8nlohmann16json_abi_v3_11_310basic_jsonISt3mapSt6vectorNSt7__cxx1112basic_stringIcSt11char_traitsIcESaIcEEEbxydSaNS2_14adl_serializerES5_IhSaIhEEvEES5_ISG_SaISG_EEEC1ERKSH_, symObjAddr: 0x2B2A0, symBinAddr: 0x10002D3D8, symSize: 0x28 }
  - { offsetInCU: 0x593C3, offset: 0x593C3, size: 0x8, addend: 0x0, symName: __ZNSt6vectorIPN8nlohmann16json_abi_v3_11_310basic_jsonISt3mapS_NSt7__cxx1112basic_stringIcSt11char_traitsIcESaIcEEEbxydSaNS1_14adl_serializerES_IhSaIhEEvEESaISE_EE11_S_relocateEPSE_SH_SH_RSF_, symObjAddr: 0x2B26C, symBinAddr: 0x10002D3A4, symSize: 0x34 }
  - { offsetInCU: 0x59420, offset: 0x59420, size: 0x8, addend: 0x0, symName: __ZSt12__to_addressIPN8nlohmann16json_abi_v3_11_310basic_jsonISt3mapSt6vectorNSt7__cxx1112basic_stringIcSt11char_traitsIcESaIcEEEbxydSaNS1_14adl_serializerES4_IhSaIhEEvEEEPT_SH_, symObjAddr: 0x2B258, symBinAddr: 0x10002D390, symSize: 0x14 }
  - { offsetInCU: 0x59456, offset: 0x59456, size: 0x8, addend: 0x0, symName: __ZNSt12_Vector_baseIPN8nlohmann16json_abi_v3_11_310basic_jsonISt3mapSt6vectorNSt7__cxx1112basic_stringIcSt11char_traitsIcESaIcEEEbxydSaNS1_14adl_serializerES4_IhSaIhEEvEESaISF_EE11_M_allocateEm, symObjAddr: 0x2B208, symBinAddr: 0x10002D340, symSize: 0x50 }
  - { offsetInCU: 0x594C1, offset: 0x594C1, size: 0x8, addend: 0x0, symName: __ZN9__gnu_cxxmiIPPN8nlohmann16json_abi_v3_11_310basic_jsonISt3mapSt6vectorNSt7__cxx1112basic_stringIcSt11char_traitsIcESaIcEEEbxydSaNS2_14adl_serializerES5_IhSaIhEEvEES5_ISG_SaISG_EEEENS_17__normal_iteratorIT_T0_E15difference_typeERKSN_SQ_, symObjAddr: 0x2B1C8, symBinAddr: 0x10002D300, symSize: 0x40 }
  - { offsetInCU: 0x59512, offset: 0x59512, size: 0x8, addend: 0x0, symName: __ZNSt6vectorIPN8nlohmann16json_abi_v3_11_310basic_jsonISt3mapS_NSt7__cxx1112basic_stringIcSt11char_traitsIcESaIcEEEbxydSaNS1_14adl_serializerES_IhSaIhEEvEESaISE_EE5beginEv, symObjAddr: 0x2B1A4, symBinAddr: 0x10002D2DC, symSize: 0x24 }
  - { offsetInCU: 0x5953C, offset: 0x5953C, size: 0x8, addend: 0x0, symName: __ZNKSt6vectorIPN8nlohmann16json_abi_v3_11_310basic_jsonISt3mapS_NSt7__cxx1112basic_stringIcSt11char_traitsIcESaIcEEEbxydSaNS1_14adl_serializerES_IhSaIhEEvEESaISE_EE12_M_check_lenEmPKc, symObjAddr: 0x2B0D4, symBinAddr: 0x10002D20C, symSize: 0xD0 }
  - { offsetInCU: 0x595DE, offset: 0x595DE, size: 0x8, addend: 0x0, symName: __ZSt7forwardIRKPN8nlohmann16json_abi_v3_11_310basic_jsonISt3mapSt6vectorNSt7__cxx1112basic_stringIcSt11char_traitsIcESaIcEEEbxydSaNS1_14adl_serializerES4_IhSaIhEEvEEEOT_RNSt16remove_referenceISI_E4typeE, symObjAddr: 0x2B0C0, symBinAddr: 0x10002D1F8, symSize: 0x14 }
  - { offsetInCU: 0x59617, offset: 0x59617, size: 0x8, addend: 0x0, symName: __ZSt7forwardIRPN8nlohmann16json_abi_v3_11_310basic_jsonISt3mapSt6vectorNSt7__cxx1112basic_stringIcSt11char_traitsIcESaIcEEEbxydSaNS1_14adl_serializerES4_IhSaIhEEvEEEOT_RNSt16remove_referenceISH_E4typeE, symObjAddr: 0x2B0AC, symBinAddr: 0x10002D1E4, symSize: 0x14 }
  - { offsetInCU: 0x59650, offset: 0x59650, size: 0x8, addend: 0x0, symName: __ZSt7forwardIPN8nlohmann16json_abi_v3_11_310basic_jsonISt3mapSt6vectorNSt7__cxx1112basic_stringIcSt11char_traitsIcESaIcEEEbxydSaNS1_14adl_serializerES4_IhSaIhEEvEEEOT_RNSt16remove_referenceISG_E4typeE, symObjAddr: 0x2B098, symBinAddr: 0x10002D1D0, symSize: 0x14 }
  - { offsetInCU: 0x59682, offset: 0x59682, size: 0x8, addend: 0x0, symName: __ZSt13__copy_move_aILb0ESt13_Bit_iteratorS0_ET1_T0_S2_S1_, symObjAddr: 0x2AFD4, symBinAddr: 0x10002D10C, symSize: 0xC4 }
  - { offsetInCU: 0x596ED, offset: 0x596ED, size: 0x8, addend: 0x0, symName: __ZSt4copyISt19_Bit_const_iteratorSt13_Bit_iteratorET0_T_S3_S2_, symObjAddr: 0x2AF34, symBinAddr: 0x10002D06C, symSize: 0xA0 }
  - { offsetInCU: 0x5974D, offset: 0x5974D, size: 0x8, addend: 0x0, symName: __ZSt4copyIPmS0_ET0_T_S2_S1_, symObjAddr: 0x2AEEC, symBinAddr: 0x10002D024, symSize: 0x48 }
  - { offsetInCU: 0x597D3, offset: 0x597D3, size: 0x8, addend: 0x0, symName: __ZNKSt6vectorIbSaIbEE4sizeEv, symObjAddr: 0x2AEB4, symBinAddr: 0x10002CFEC, symSize: 0x38 }
  - { offsetInCU: 0x597FD, offset: 0x597FD, size: 0x8, addend: 0x0, symName: __ZNKSt6vectorIbSaIbEE8max_sizeEv, symObjAddr: 0x2AE4C, symBinAddr: 0x10002CF84, symSize: 0x68 }
  - { offsetInCU: 0x598B0, offset: 0x598B0, size: 0x8, addend: 0x0, symName: __ZSt22__copy_move_backward_aILb0ESt13_Bit_iteratorS0_ET1_T0_S2_S1_, symObjAddr: 0x2AD88, symBinAddr: 0x10002CEC0, symSize: 0xC4 }
  - { offsetInCU: 0x5991B, offset: 0x5991B, size: 0x8, addend: 0x0, symName: __ZSt12__miter_baseISt13_Bit_iteratorET_S1_, symObjAddr: 0x2AD4C, symBinAddr: 0x10002CE84, symSize: 0x3C }
  - { offsetInCU: 0x59952, offset: 0x59952, size: 0x8, addend: 0x0, symName: __ZNSt15__new_allocatorIPN8nlohmann16json_abi_v3_11_310basic_jsonISt3mapSt6vectorNSt7__cxx1112basic_stringIcSt11char_traitsIcESaIcEEEbxydSaNS1_14adl_serializerES4_IhSaIhEEvEEE10deallocateEPSF_m, symObjAddr: 0x2AD1C, symBinAddr: 0x10002CE54, symSize: 0x30 }
  - { offsetInCU: 0x599AE, offset: 0x599AE, size: 0x8, addend: 0x0, symName: __ZN8nlohmann16json_abi_v3_11_36detail9dtoa_impl6grisu2IdEEvPcRiS5_T_, symObjAddr: 0x2AC40, symBinAddr: 0x10002CD78, symSize: 0xDC }
  - { offsetInCU: 0x59A52, offset: 0x59A52, size: 0x8, addend: 0x0, symName: __ZNSt23_Rb_tree_const_iteratorISt4pairIKNSt7__cxx1112basic_stringIcSt11char_traitsIcESaIcEEEN8nlohmann16json_abi_v3_11_310basic_jsonISt3mapSt6vectorS6_bxydSaNS9_14adl_serializerESC_IhSaIhEEvEEEEmmEv, symObjAddr: 0x2AC10, symBinAddr: 0x10002CD48, symSize: 0x30 }
  - { offsetInCU: 0x59A81, offset: 0x59A81, size: 0x8, addend: 0x0, symName: __ZNK9__gnu_cxx16__aligned_membufISt4pairIKNSt7__cxx1112basic_stringIcSt11char_traitsIcESaIcEEEN8nlohmann16json_abi_v3_11_310basic_jsonISt3mapSt6vectorS7_bxydSaNSA_14adl_serializerESD_IhSaIhEEvEEEE7_M_addrEv, symObjAddr: 0x2ABFC, symBinAddr: 0x10002CD34, symSize: 0x14 }
  - { offsetInCU: 0x59AA6, offset: 0x59AA6, size: 0x8, addend: 0x0, symName: __ZN8nlohmann16json_abi_v3_11_36detail11concat_intoINSt7__cxx1112basic_stringIcSt11char_traitsIcESaIcEEES8_JRA5_KcS8_ELi0EEEvRT_OT0_DpOT1_, symObjAddr: 0x2AB98, symBinAddr: 0x10002CCD0, symSize: 0x64 }
  - { offsetInCU: 0x59B1C, offset: 0x59B1C, size: 0x8, addend: 0x0, symName: __ZN8nlohmann16json_abi_v3_11_36detail13concat_lengthINSt7__cxx1112basic_stringIcSt11char_traitsIcESaIcEEEJA5_cS8_EEEmRKT_DpRKT0_, symObjAddr: 0x2AB58, symBinAddr: 0x10002CC90, symSize: 0x40 }
  - { offsetInCU: 0x59B7C, offset: 0x59B7C, size: 0x8, addend: 0x0, symName: __ZNSt12__shared_ptrIN8nlohmann16json_abi_v3_11_36detail21output_string_adapterIcNSt7__cxx1112basic_stringIcSt11char_traitsIcESaIcEEEEELN9__gnu_cxx12_Lock_policyE2EE31_M_enable_shared_from_this_withISA_SA_EENSt9enable_ifIXntsrNSD_15__has_esft_baseIT0_vEE5valueEvE4typeEPT_, symObjAddr: 0x2AB40, symBinAddr: 0x10002CC78, symSize: 0x18 }
  - { offsetInCU: 0x59D50, offset: 0x59D50, size: 0x8, addend: 0x0, symName: __ZNSt14__shared_countILN9__gnu_cxx12_Lock_policyE2EEC1IN8nlohmann16json_abi_v3_11_36detail21output_string_adapterIcNSt7__cxx1112basic_stringIcSt11char_traitsIcESaIcEEEEESaIvEJRSD_EEERPT_St20_Sp_alloc_shared_tagIT0_EDpOT1_, symObjAddr: 0x2AA58, symBinAddr: 0x10002CB90, symSize: 0xE8 }
  - { offsetInCU: 0x59DFD, offset: 0x59DFD, size: 0x8, addend: 0x0, symName: __ZNSt6vectorIhSaIhEEC2ERKS1_, symObjAddr: 0x2A944, symBinAddr: 0x10002CA7C, symSize: 0x114 }
  - { offsetInCU: 0x59EFA, offset: 0x59EFA, size: 0x8, addend: 0x0, symName: __ZSt3getILm0EJPN8nlohmann16json_abi_v3_11_327byte_container_with_subtypeISt6vectorIhSaIhEEEEZNS1_10basic_jsonISt3mapS3_NSt7__cxx1112basic_stringIcSt11char_traitsIcESaIcEEEbxydSaNS1_14adl_serializerES5_vE6createIS6_JRKS6_EEEPT_DpOT0_EUlS7_E_EERKNSt13tuple_elementIXT_ESt5tupleIJDpSN_EEE4typeERKSU_, symObjAddr: 0x2A928, symBinAddr: 0x10002CA60, symSize: 0x1C }
  - { offsetInCU: 0x59F42, offset: 0x59F42, size: 0x8, addend: 0x0, symName: __ZNSt15__uniq_ptr_implIN8nlohmann16json_abi_v3_11_327byte_container_with_subtypeISt6vectorIhSaIhEEEEZNS1_10basic_jsonISt3mapS3_NSt7__cxx1112basic_stringIcSt11char_traitsIcESaIcEEEbxydSaNS1_14adl_serializerES5_vE6createIS6_JRKS6_EEEPT_DpOT0_EUlPS6_E_E10_M_deleterEv, symObjAddr: 0x2A90C, symBinAddr: 0x10002CA44, symSize: 0x1C }
  - { offsetInCU: 0x59F6F, offset: 0x59F6F, size: 0x8, addend: 0x0, symName: __ZSt3getILm0EJPN8nlohmann16json_abi_v3_11_327byte_container_with_subtypeISt6vectorIhSaIhEEEEZNS1_10basic_jsonISt3mapS3_NSt7__cxx1112basic_stringIcSt11char_traitsIcESaIcEEEbxydSaNS1_14adl_serializerES5_vE6createIS6_JRKS6_EEEPT_DpOT0_EUlS7_E_EERNSt13tuple_elementIXT_ESt5tupleIJDpSN_EEE4typeERSU_, symObjAddr: 0x2A8F0, symBinAddr: 0x10002CA28, symSize: 0x1C }
  - { offsetInCU: 0x5A107, offset: 0x5A107, size: 0x8, addend: 0x0, symName: __ZNSt5tupleIJPN8nlohmann16json_abi_v3_11_327byte_container_with_subtypeISt6vectorIhSaIhEEEEZNS1_10basic_jsonISt3mapS3_NSt7__cxx1112basic_stringIcSt11char_traitsIcESaIcEEEbxydSaNS1_14adl_serializerES5_vE6createIS6_JRKS6_EEEPT_DpOT0_EUlS7_E_EEC1IRS7_RKSQ_Lb1EEEOSL_OT0_, symObjAddr: 0x2A8A0, symBinAddr: 0x10002C9D8, symSize: 0x50 }
  - { offsetInCU: 0x5A04C, offset: 0x5A04C, size: 0x8, addend: 0x0, symName: __ZSt7forwardIRKZN8nlohmann16json_abi_v3_11_310basic_jsonISt3mapSt6vectorNSt7__cxx1112basic_stringIcSt11char_traitsIcESaIcEEEbxydSaNS1_14adl_serializerES4_IhSaIhEEvE6createINS1_27byte_container_with_subtypeISD_EEJRKSH_EEEPT_DpOT0_EUlPSH_E_EOSK_RNSt16remove_referenceISK_E4typeE, symObjAddr: 0x2A88C, symBinAddr: 0x10002C9C4, symSize: 0x14 }
  - { offsetInCU: 0x5A085, offset: 0x5A085, size: 0x8, addend: 0x0, symName: __ZSt3getILm0EJPNSt7__cxx1112basic_stringIcSt11char_traitsIcESaIcEEEZN8nlohmann16json_abi_v3_11_310basic_jsonISt3mapSt6vectorS5_bxydSaNS8_14adl_serializerESB_IhSaIhEEvE6createIS5_JRKS5_EEEPT_DpOT0_EUlS6_E_EERKNSt13tuple_elementIXT_ESt5tupleIJDpSL_EEE4typeERKSS_, symObjAddr: 0x2A870, symBinAddr: 0x10002C9A8, symSize: 0x1C }
  - { offsetInCU: 0x5A0CD, offset: 0x5A0CD, size: 0x8, addend: 0x0, symName: __ZNSt15__uniq_ptr_implINSt7__cxx1112basic_stringIcSt11char_traitsIcESaIcEEEZN8nlohmann16json_abi_v3_11_310basic_jsonISt3mapSt6vectorS5_bxydSaNS7_14adl_serializerESA_IhSaIhEEvE6createIS5_JRKS5_EEEPT_DpOT0_EUlPS5_E_E10_M_deleterEv, symObjAddr: 0x2A854, symBinAddr: 0x10002C98C, symSize: 0x1C }
  - { offsetInCU: 0x5A0FA, offset: 0x5A0FA, size: 0x8, addend: 0x0, symName: __ZSt3getILm0EJPNSt7__cxx1112basic_stringIcSt11char_traitsIcESaIcEEEZN8nlohmann16json_abi_v3_11_310basic_jsonISt3mapSt6vectorS5_bxydSaNS8_14adl_serializerESB_IhSaIhEEvE6createIS5_JRKS5_EEEPT_DpOT0_EUlS6_E_EERNSt13tuple_elementIXT_ESt5tupleIJDpSL_EEE4typeERSS_, symObjAddr: 0x2A838, symBinAddr: 0x10002C970, symSize: 0x1C }
  - { offsetInCU: 0x5A26E, offset: 0x5A26E, size: 0x8, addend: 0x0, symName: __ZNSt5tupleIJPNSt7__cxx1112basic_stringIcSt11char_traitsIcESaIcEEEZN8nlohmann16json_abi_v3_11_310basic_jsonISt3mapSt6vectorS5_bxydSaNS8_14adl_serializerESB_IhSaIhEEvE6createIS5_JRKS5_EEEPT_DpOT0_EUlS6_E_EEC1IRS6_RKSO_Lb1EEEOSJ_OT0_, symObjAddr: 0x2A7E8, symBinAddr: 0x10002C920, symSize: 0x50 }
  - { offsetInCU: 0x5A1D7, offset: 0x5A1D7, size: 0x8, addend: 0x0, symName: __ZSt7forwardIRKZN8nlohmann16json_abi_v3_11_310basic_jsonISt3mapSt6vectorNSt7__cxx1112basic_stringIcSt11char_traitsIcESaIcEEEbxydSaNS1_14adl_serializerES4_IhSaIhEEvE6createISA_JRKSA_EEEPT_DpOT0_EUlPSA_E_EOSI_RNSt16remove_referenceISI_E4typeE, symObjAddr: 0x2A7D4, symBinAddr: 0x10002C90C, symSize: 0x14 }
  - { offsetInCU: 0x5A2DC, offset: 0x5A2DC, size: 0x8, addend: 0x0, symName: __ZNSt6vectorIN8nlohmann16json_abi_v3_11_310basic_jsonISt3mapS_NSt7__cxx1112basic_stringIcSt11char_traitsIcESaIcEEEbxydSaNS1_14adl_serializerES_IhSaIhEEvEESaISD_EEC1ERKSF_, symObjAddr: 0x2A6C0, symBinAddr: 0x10002C7F8, symSize: 0x114 }
  - { offsetInCU: 0x5A34B, offset: 0x5A34B, size: 0x8, addend: 0x0, symName: __ZSt3getILm0EJPSt6vectorIN8nlohmann16json_abi_v3_11_310basic_jsonISt3mapS0_NSt7__cxx1112basic_stringIcSt11char_traitsIcESaIcEEEbxydSaNS2_14adl_serializerES0_IhSaIhEEvEESaISE_EEZNSE_6createISG_JRKSG_EEEPT_DpOT0_EUlSH_E_EERKNSt13tuple_elementIXT_ESt5tupleIJDpSN_EEE4typeERKSU_, symObjAddr: 0x2A6A4, symBinAddr: 0x10002C7DC, symSize: 0x1C }
  - { offsetInCU: 0x5A393, offset: 0x5A393, size: 0x8, addend: 0x0, symName: __ZNSt15__uniq_ptr_implISt6vectorIN8nlohmann16json_abi_v3_11_310basic_jsonISt3mapS0_NSt7__cxx1112basic_stringIcSt11char_traitsIcESaIcEEEbxydSaNS2_14adl_serializerES0_IhSaIhEEvEESaISE_EEZNSE_6createISG_JRKSG_EEEPT_DpOT0_EUlPSG_E_E10_M_deleterEv, symObjAddr: 0x2A688, symBinAddr: 0x10002C7C0, symSize: 0x1C }
  - { offsetInCU: 0x5A3C0, offset: 0x5A3C0, size: 0x8, addend: 0x0, symName: __ZSt3getILm0EJPSt6vectorIN8nlohmann16json_abi_v3_11_310basic_jsonISt3mapS0_NSt7__cxx1112basic_stringIcSt11char_traitsIcESaIcEEEbxydSaNS2_14adl_serializerES0_IhSaIhEEvEESaISE_EEZNSE_6createISG_JRKSG_EEEPT_DpOT0_EUlSH_E_EERNSt13tuple_elementIXT_ESt5tupleIJDpSN_EEE4typeERSU_, symObjAddr: 0x2A66C, symBinAddr: 0x10002C7A4, symSize: 0x1C }
  - { offsetInCU: 0x5A542, offset: 0x5A542, size: 0x8, addend: 0x0, symName: __ZNSt5tupleIJPSt6vectorIN8nlohmann16json_abi_v3_11_310basic_jsonISt3mapS0_NSt7__cxx1112basic_stringIcSt11char_traitsIcESaIcEEEbxydSaNS2_14adl_serializerES0_IhSaIhEEvEESaISE_EEZNSE_6createISG_JRKSG_EEEPT_DpOT0_EUlSH_E_EEC1IRSH_RKSQ_Lb1EEEOSL_OT0_, symObjAddr: 0x2A61C, symBinAddr: 0x10002C754, symSize: 0x50 }
  - { offsetInCU: 0x5A49D, offset: 0x5A49D, size: 0x8, addend: 0x0, symName: __ZSt7forwardIRKZN8nlohmann16json_abi_v3_11_310basic_jsonISt3mapSt6vectorNSt7__cxx1112basic_stringIcSt11char_traitsIcESaIcEEEbxydSaNS1_14adl_serializerES4_IhSaIhEEvE6createIS4_ISE_SaISE_EEJRKSH_EEEPT_DpOT0_EUlPSH_E_EOSK_RNSt16remove_referenceISK_E4typeE, symObjAddr: 0x2A608, symBinAddr: 0x10002C740, symSize: 0x14 }
  - { offsetInCU: 0x5A5D9, offset: 0x5A5D9, size: 0x8, addend: 0x0, symName: __ZNSt8_Rb_treeINSt7__cxx1112basic_stringIcSt11char_traitsIcESaIcEEESt4pairIKS5_N8nlohmann16json_abi_v3_11_310basic_jsonISt3mapSt6vectorS5_bxydSaNS9_14adl_serializerESC_IhSaIhEEvEEESt10_Select1stISH_ESt4lessIvESaISH_EEC1ERKSN_, symObjAddr: 0x2A584, symBinAddr: 0x10002C6BC, symSize: 0x84 }
  - { offsetInCU: 0x5A52D, offset: 0x5A52D, size: 0x8, addend: 0x0, symName: __ZSt3getILm0EJPSt3mapINSt7__cxx1112basic_stringIcSt11char_traitsIcESaIcEEEN8nlohmann16json_abi_v3_11_310basic_jsonIS0_St6vectorS6_bxydSaNS8_14adl_serializerESA_IhSaIhEEvEESt4lessIvESaISt4pairIKS6_SE_EEEZNSE_6createISL_JRKSL_EEEPT_DpOT0_EUlSM_E_EERKNSt13tuple_elementIXT_ESt5tupleIJDpSS_EEE4typeERKSZ_, symObjAddr: 0x2A568, symBinAddr: 0x10002C6A0, symSize: 0x1C }
  - { offsetInCU: 0x5A575, offset: 0x5A575, size: 0x8, addend: 0x0, symName: __ZNSt15__uniq_ptr_implISt3mapINSt7__cxx1112basic_stringIcSt11char_traitsIcESaIcEEEN8nlohmann16json_abi_v3_11_310basic_jsonIS0_St6vectorS6_bxydSaNS8_14adl_serializerESA_IhSaIhEEvEESt4lessIvESaISt4pairIKS6_SE_EEEZNSE_6createISL_JRKSL_EEEPT_DpOT0_EUlPSL_E_E10_M_deleterEv, symObjAddr: 0x2A54C, symBinAddr: 0x10002C684, symSize: 0x1C }
  - { offsetInCU: 0x5A5A2, offset: 0x5A5A2, size: 0x8, addend: 0x0, symName: __ZSt3getILm0EJPSt3mapINSt7__cxx1112basic_stringIcSt11char_traitsIcESaIcEEEN8nlohmann16json_abi_v3_11_310basic_jsonIS0_St6vectorS6_bxydSaNS8_14adl_serializerESA_IhSaIhEEvEESt4lessIvESaISt4pairIKS6_SE_EEEZNSE_6createISL_JRKSL_EEEPT_DpOT0_EUlSM_E_EERNSt13tuple_elementIXT_ESt5tupleIJDpSS_EEE4typeERSZ_, symObjAddr: 0x2A530, symBinAddr: 0x10002C668, symSize: 0x1C }
  - { offsetInCU: 0x5A73E, offset: 0x5A73E, size: 0x8, addend: 0x0, symName: __ZNSt5tupleIJPSt3mapINSt7__cxx1112basic_stringIcSt11char_traitsIcESaIcEEEN8nlohmann16json_abi_v3_11_310basic_jsonIS0_St6vectorS6_bxydSaNS8_14adl_serializerESA_IhSaIhEEvEESt4lessIvESaISt4pairIKS6_SE_EEEZNSE_6createISL_JRKSL_EEEPT_DpOT0_EUlSM_E_EEC1IRSM_RKSV_Lb1EEEOSQ_OT0_, symObjAddr: 0x2A4E0, symBinAddr: 0x10002C618, symSize: 0x50 }
  - { offsetInCU: 0x5A67F, offset: 0x5A67F, size: 0x8, addend: 0x0, symName: __ZSt7forwardIRKZN8nlohmann16json_abi_v3_11_310basic_jsonISt3mapSt6vectorNSt7__cxx1112basic_stringIcSt11char_traitsIcESaIcEEEbxydSaNS1_14adl_serializerES4_IhSaIhEEvE6createIS3_ISA_SE_St4lessIvESaISt4pairIKSA_SE_EEEJRKSM_EEEPT_DpOT0_EUlPSM_E_EOSP_RNSt16remove_referenceISP_E4typeE, symObjAddr: 0x2A4CC, symBinAddr: 0x10002C604, symSize: 0x14 }
  - { offsetInCU: 0x5A6C1, offset: 0x5A6C1, size: 0x8, addend: 0x0, symName: __ZNK9__gnu_cxx5__ops14_Val_less_iterclISt4pairIiS3_IiiEENS_17__normal_iteratorIPS5_St6vectorIS5_SaIS5_EEEEEEbRT_T0_, symObjAddr: 0x2A49C, symBinAddr: 0x10002C5D4, symSize: 0x30 }
  - { offsetInCU: 0x5A71D, offset: 0x5A71D, size: 0x8, addend: 0x0, symName: __ZNSt4pairIiiEaSEOS0_, symObjAddr: 0x2A454, symBinAddr: 0x10002C58C, symSize: 0x48 }
  - { offsetInCU: 0x5A75B, offset: 0x5A75B, size: 0x8, addend: 0x0, symName: __ZSt7forwardISt4pairIiiEEOT_RNSt16remove_referenceIS2_E4typeE, symObjAddr: 0x2A440, symBinAddr: 0x10002C578, symSize: 0x14 }
  - { offsetInCU: 0x5A78D, offset: 0x5A78D, size: 0x8, addend: 0x0, symName: __ZSt22__copy_move_backward_aILb1EN9__gnu_cxx17__normal_iteratorIPSt4pairIiS2_IiiEESt6vectorIS4_SaIS4_EEEES9_ET1_T0_SB_SA_, symObjAddr: 0x2A3E0, symBinAddr: 0x10002C518, symSize: 0x60 }
  - { offsetInCU: 0x5A7F5, offset: 0x5A7F5, size: 0x8, addend: 0x0, symName: __ZSt12__miter_baseIN9__gnu_cxx17__normal_iteratorIPSt4pairIiS2_IiiEESt6vectorIS4_SaIS4_EEEEET_SA_, symObjAddr: 0x2A3CC, symBinAddr: 0x10002C504, symSize: 0x14 }
  - { offsetInCU: 0x5A828, offset: 0x5A828, size: 0x8, addend: 0x0, symName: __ZStltIiSt4pairIiiEEbRKS0_IT_T0_ES6_, symObjAddr: 0x2A350, symBinAddr: 0x10002C488, symSize: 0x7C }
  - { offsetInCU: 0x5A875, offset: 0x5A875, size: 0x8, addend: 0x0, symName: __ZSt9iter_swapIN9__gnu_cxx17__normal_iteratorIPSt4pairIiS2_IiiEESt6vectorIS4_SaIS4_EEEES9_EvT_T0_, symObjAddr: 0x2A30C, symBinAddr: 0x10002C444, symSize: 0x44 }
  - { offsetInCU: 0x5A8C4, offset: 0x5A8C4, size: 0x8, addend: 0x0, symName: __ZN9__gnu_cxx17__normal_iteratorIPSt4pairIiS1_IiiEESt6vectorIS3_SaIS3_EEEmmEv, symObjAddr: 0x2A2E4, symBinAddr: 0x10002C41C, symSize: 0x28 }
  - { offsetInCU: 0x5A8EA, offset: 0x5A8EA, size: 0x8, addend: 0x0, symName: __ZSt10__pop_heapIN9__gnu_cxx17__normal_iteratorIPSt4pairIiS2_IiiEESt6vectorIS4_SaIS4_EEEENS0_5__ops15_Iter_less_iterEEvT_SC_SC_RT0_, symObjAddr: 0x2A238, symBinAddr: 0x10002C370, symSize: 0xAC }
  - { offsetInCU: 0x5A987, offset: 0x5A987, size: 0x8, addend: 0x0, symName: __ZN9__gnu_cxxltIPSt4pairIiS1_IiiEESt6vectorIS3_SaIS3_EEEEbRKNS_17__normal_iteratorIT_T0_EESD_, symObjAddr: 0x2A1F4, symBinAddr: 0x10002C32C, symSize: 0x44 }
  - { offsetInCU: 0x5A9D4, offset: 0x5A9D4, size: 0x8, addend: 0x0, symName: __ZSt11__make_heapIN9__gnu_cxx17__normal_iteratorIPSt4pairIiS2_IiiEESt6vectorIS4_SaIS4_EEEENS0_5__ops15_Iter_less_iterEEvT_SC_RT0_, symObjAddr: 0x2A0FC, symBinAddr: 0x10002C234, symSize: 0xF8 }
  - { offsetInCU: 0x5AA8C, offset: 0x5AA8C, size: 0x8, addend: 0x0, symName: __ZSt14__relocate_a_1IPSt4pairIiS0_IiiEES3_SaIS2_EET0_T_S6_S5_RT1_, symObjAddr: 0x2A078, symBinAddr: 0x10002C1B0, symSize: 0x84 }
  - { offsetInCU: 0x5AB15, offset: 0x5AB15, size: 0x8, addend: 0x0, symName: __ZSt12__niter_baseIPSt4pairIiS0_IiiEEET_S4_, symObjAddr: 0x2A064, symBinAddr: 0x10002C19C, symSize: 0x14 }
  - { offsetInCU: 0x5AB4C, offset: 0x5AB4C, size: 0x8, addend: 0x0, symName: __ZNSt15__new_allocatorISt4pairIiS0_IiiEEE8allocateEmPKv, symObjAddr: 0x29FD4, symBinAddr: 0x10002C10C, symSize: 0x90 }
  - { offsetInCU: 0x5ABD8, offset: 0x5ABD8, size: 0x8, addend: 0x0, symName: __ZNKSt12_Vector_baseISt4pairIiS0_IiiEESaIS2_EE19_M_get_Tp_allocatorEv, symObjAddr: 0x29FC0, symBinAddr: 0x10002C0F8, symSize: 0x14 }
  - { offsetInCU: 0x5ABFE, offset: 0x5ABFE, size: 0x8, addend: 0x0, symName: __ZNSt6vectorISt4pairIiS0_IiiEESaIS2_EE11_S_max_sizeERKS3_, symObjAddr: 0x29F64, symBinAddr: 0x10002C09C, symSize: 0x5C }
  - { offsetInCU: 0x5ACB5, offset: 0x5ACB5, size: 0x8, addend: 0x0, symName: __ZN8nlohmann16json_abi_v3_11_36detail5lexerINS0_10basic_jsonISt3mapSt6vectorNSt7__cxx1112basic_stringIcSt11char_traitsIcESaIcEEEbxydSaNS0_14adl_serializerES5_IhSaIhEEvEENS1_22iterator_input_adapterIN9__gnu_cxx17__normal_iteratorIPKcSB_EEEEE6strtofERdSK_PPc, symObjAddr: 0x29F2C, symBinAddr: 0x10002C064, symSize: 0x38 }
  - { offsetInCU: 0x5AD05, offset: 0x5AD05, size: 0x8, addend: 0x0, symName: __ZN8nlohmann16json_abi_v3_11_36detail5lexerINS0_10basic_jsonISt3mapSt6vectorNSt7__cxx1112basic_stringIcSt11char_traitsIcESaIcEEEbxydSaNS0_14adl_serializerES5_IhSaIhEEvEENS1_22iterator_input_adapterIN9__gnu_cxx17__normal_iteratorIPKcSB_EEEEE18next_byte_in_rangeESt16initializer_listIiE, symObjAddr: 0x29D4C, symBinAddr: 0x10002BE84, symSize: 0x1E0 }
  - { offsetInCU: 0x5AD78, offset: 0x5AD78, size: 0x8, addend: 0x0, symName: __ZN8nlohmann16json_abi_v3_11_36detail5lexerINS0_10basic_jsonISt3mapSt6vectorNSt7__cxx1112basic_stringIcSt11char_traitsIcESaIcEEEbxydSaNS0_14adl_serializerES5_IhSaIhEEvEENS1_22iterator_input_adapterIN9__gnu_cxx17__normal_iteratorIPKcSB_EEEEE13get_codepointEv, symObjAddr: 0x29B34, symBinAddr: 0x10002BC6C, symSize: 0x218 }
  - { offsetInCU: 0x5AE3E, offset: 0x5AE3E, size: 0x8, addend: 0x0, symName: __ZN8nlohmann16json_abi_v3_11_36detail5lexerINS0_10basic_jsonISt3mapSt6vectorNSt7__cxx1112basic_stringIcSt11char_traitsIcESaIcEEEbxydSaNS0_14adl_serializerES5_IhSaIhEEvEENS1_22iterator_input_adapterIN9__gnu_cxx17__normal_iteratorIPKcSB_EEEEE3addEi, symObjAddr: 0x29B04, symBinAddr: 0x10002BC3C, symSize: 0x30 }
  - { offsetInCU: 0x5AE79, offset: 0x5AE79, size: 0x8, addend: 0x0, symName: __ZN8nlohmann16json_abi_v3_11_36detail5lexerINS0_10basic_jsonISt3mapSt6vectorNSt7__cxx1112basic_stringIcSt11char_traitsIcESaIcEEEbxydSaNS0_14adl_serializerES5_IhSaIhEEvEENS1_22iterator_input_adapterIN9__gnu_cxx17__normal_iteratorIPKcSB_EEEEE5resetEv, symObjAddr: 0x29AA4, symBinAddr: 0x10002BBDC, symSize: 0x60 }
  - { offsetInCU: 0x5AEA3, offset: 0x5AEA3, size: 0x8, addend: 0x0, symName: __ZN8nlohmann16json_abi_v3_11_36detail5lexerINS0_10basic_jsonISt3mapSt6vectorNSt7__cxx1112basic_stringIcSt11char_traitsIcESaIcEEEbxydSaNS0_14adl_serializerES5_IhSaIhEEvEENS1_22iterator_input_adapterIN9__gnu_cxx17__normal_iteratorIPKcSB_EEEEE5ungetEv, symObjAddr: 0x299A0, symBinAddr: 0x10002BAD8, symSize: 0x104 }
  - { offsetInCU: 0x5AEE1, offset: 0x5AEE1, size: 0x8, addend: 0x0, symName: __ZN8nlohmann16json_abi_v3_11_36detail5lexerINS0_10basic_jsonISt3mapSt6vectorNSt7__cxx1112basic_stringIcSt11char_traitsIcESaIcEEEbxydSaNS0_14adl_serializerES5_IhSaIhEEvEENS1_22iterator_input_adapterIN9__gnu_cxx17__normal_iteratorIPKcSB_EEEEE3getEv, symObjAddr: 0x29898, symBinAddr: 0x10002B9D0, symSize: 0x108 }
  - { offsetInCU: 0x5AFDE, offset: 0x5AFDE, size: 0x8, addend: 0x0, symName: __ZN8nlohmann16json_abi_v3_11_36detail22iterator_input_adapterIN9__gnu_cxx17__normal_iteratorIPKcNSt7__cxx1112basic_stringIcSt11char_traitsIcESaIcEEEEEEC1ESD_SD_, symObjAddr: 0x29848, symBinAddr: 0x10002B980, symSize: 0x50 }
  - { offsetInCU: 0x5AF7C, offset: 0x5AF7C, size: 0x8, addend: 0x0, symName: __ZSt4moveIRN9__gnu_cxx17__normal_iteratorIPKcNSt7__cxx1112basic_stringIcSt11char_traitsIcESaIcEEEEEEONSt16remove_referenceIT_E4typeEOSD_, symObjAddr: 0x29834, symBinAddr: 0x10002B96C, symSize: 0x14 }
  - { offsetInCU: 0x5AFAE, offset: 0x5AFAE, size: 0x8, addend: 0x0, symName: __ZSt4copyIN9__gnu_cxx17__normal_iteratorIPiSt6vectorIiSaIiEEEES2_ET0_T_S8_S7_, symObjAddr: 0x297EC, symBinAddr: 0x10002B924, symSize: 0x48 }
  - { offsetInCU: 0x5B00C, offset: 0x5B00C, size: 0x8, addend: 0x0, symName: __ZSt23__copy_move_backward_a2ILb1EPiS0_ET1_T0_S2_S1_, symObjAddr: 0x297C0, symBinAddr: 0x10002B8F8, symSize: 0x2C }
  - { offsetInCU: 0x5B074, offset: 0x5B074, size: 0x8, addend: 0x0, symName: __ZNSt20__uninitialized_copyILb1EE13__uninit_copyISt13move_iteratorIPiES3_EET0_T_S6_S5_, symObjAddr: 0x29794, symBinAddr: 0x10002B8CC, symSize: 0x2C }
  - { offsetInCU: 0x5B0CF, offset: 0x5B0CF, size: 0x8, addend: 0x0, symName: __ZSt14__copy_move_a2ILb1EPiS0_ET1_T0_S2_S1_, symObjAddr: 0x29768, symBinAddr: 0x10002B8A0, symSize: 0x2C }
  - { offsetInCU: 0x5B137, offset: 0x5B137, size: 0x8, addend: 0x0, symName: __ZNSt11__copy_moveILb0ELb0ESt26random_access_iterator_tagE12__assign_oneIiiEEvPT_PT0_, symObjAddr: 0x29740, symBinAddr: 0x10002B878, symSize: 0x28 }
  - { offsetInCU: 0x5B184, offset: 0x5B184, size: 0x8, addend: 0x0, symName: __ZSt14__relocate_a_1IPN8nlohmann16json_abi_v3_11_310basic_jsonISt3mapSt6vectorNSt7__cxx1112basic_stringIcSt11char_traitsIcESaIcEEEbxydSaNS1_14adl_serializerES4_IhSaIhEEvEESF_SaISE_EET0_T_SI_SH_RT1_, symObjAddr: 0x296BC, symBinAddr: 0x10002B7F4, symSize: 0x84 }
  - { offsetInCU: 0x5B20D, offset: 0x5B20D, size: 0x8, addend: 0x0, symName: __ZSt12__niter_baseIPN8nlohmann16json_abi_v3_11_310basic_jsonISt3mapSt6vectorNSt7__cxx1112basic_stringIcSt11char_traitsIcESaIcEEEbxydSaNS1_14adl_serializerES4_IhSaIhEEvEEET_SG_, symObjAddr: 0x296A8, symBinAddr: 0x10002B7E0, symSize: 0x14 }
  - { offsetInCU: 0x5B244, offset: 0x5B244, size: 0x8, addend: 0x0, symName: __ZNSt15__new_allocatorIN8nlohmann16json_abi_v3_11_310basic_jsonISt3mapSt6vectorNSt7__cxx1112basic_stringIcSt11char_traitsIcESaIcEEEbxydSaNS1_14adl_serializerES4_IhSaIhEEvEEE8allocateEmPKv, symObjAddr: 0x2962C, symBinAddr: 0x10002B764, symSize: 0x7C }
  - { offsetInCU: 0x5B339, offset: 0x5B339, size: 0x8, addend: 0x0, symName: __ZN8nlohmann16json_abi_v3_11_327byte_container_with_subtypeISt6vectorIhSaIhEEEC1Ev, symObjAddr: 0x295F0, symBinAddr: 0x10002B728, symSize: 0x3C }
  - { offsetInCU: 0x5B33F, offset: 0x5B33F, size: 0x8, addend: 0x0, symName: __ZNSt6vectorIhSaIhEEC2Ev, symObjAddr: 0x295D0, symBinAddr: 0x10002B708, symSize: 0x20 }
  - { offsetInCU: 0x5B386, offset: 0x5B386, size: 0x8, addend: 0x0, symName: __ZNSt12_Vector_baseIhSaIhEEC2Ev, symObjAddr: 0x295B0, symBinAddr: 0x10002B6E8, symSize: 0x20 }
  - { offsetInCU: 0x5B3E1, offset: 0x5B3E1, size: 0x8, addend: 0x0, symName: __ZNSt12_Vector_baseIhSaIhEE12_Vector_implD1Ev, symObjAddr: 0x29584, symBinAddr: 0x10002B6BC, symSize: 0x2C }
  - { offsetInCU: 0x5B403, offset: 0x5B403, size: 0x8, addend: 0x0, symName: __ZSt3getILm0EJPN8nlohmann16json_abi_v3_11_327byte_container_with_subtypeISt6vectorIhSaIhEEEEZNS1_10basic_jsonISt3mapS3_NSt7__cxx1112basic_stringIcSt11char_traitsIcESaIcEEEbxydSaNS1_14adl_serializerES5_vE6createIS6_JEEEPT_DpOT0_EUlS7_E_EERKNSt13tuple_elementIXT_ESt5tupleIJDpSL_EEE4typeERKSS_, symObjAddr: 0x29568, symBinAddr: 0x10002B6A0, symSize: 0x1C }
  - { offsetInCU: 0x5B44B, offset: 0x5B44B, size: 0x8, addend: 0x0, symName: __ZNSt15__uniq_ptr_implIN8nlohmann16json_abi_v3_11_327byte_container_with_subtypeISt6vectorIhSaIhEEEEZNS1_10basic_jsonISt3mapS3_NSt7__cxx1112basic_stringIcSt11char_traitsIcESaIcEEEbxydSaNS1_14adl_serializerES5_vE6createIS6_JEEEPT_DpOT0_EUlPS6_E_E10_M_deleterEv, symObjAddr: 0x2954C, symBinAddr: 0x10002B684, symSize: 0x1C }
  - { offsetInCU: 0x5B478, offset: 0x5B478, size: 0x8, addend: 0x0, symName: __ZSt3getILm0EJPN8nlohmann16json_abi_v3_11_327byte_container_with_subtypeISt6vectorIhSaIhEEEEZNS1_10basic_jsonISt3mapS3_NSt7__cxx1112basic_stringIcSt11char_traitsIcESaIcEEEbxydSaNS1_14adl_serializerES5_vE6createIS6_JEEEPT_DpOT0_EUlS7_E_EERNSt13tuple_elementIXT_ESt5tupleIJDpSL_EEE4typeERSS_, symObjAddr: 0x29530, symBinAddr: 0x10002B668, symSize: 0x1C }
  - { offsetInCU: 0x5B60B, offset: 0x5B60B, size: 0x8, addend: 0x0, symName: __ZNSt5tupleIJPN8nlohmann16json_abi_v3_11_327byte_container_with_subtypeISt6vectorIhSaIhEEEEZNS1_10basic_jsonISt3mapS3_NSt7__cxx1112basic_stringIcSt11char_traitsIcESaIcEEEbxydSaNS1_14adl_serializerES5_vE6createIS6_JEEEPT_DpOT0_EUlS7_E_EEC1IRS7_RKSO_Lb1EEEOSJ_OT0_, symObjAddr: 0x294E0, symBinAddr: 0x10002B618, symSize: 0x50 }
  - { offsetInCU: 0x5B555, offset: 0x5B555, size: 0x8, addend: 0x0, symName: __ZSt7forwardIRKZN8nlohmann16json_abi_v3_11_310basic_jsonISt3mapSt6vectorNSt7__cxx1112basic_stringIcSt11char_traitsIcESaIcEEEbxydSaNS1_14adl_serializerES4_IhSaIhEEvE6createINS1_27byte_container_with_subtypeISD_EEJEEEPT_DpOT0_EUlPSH_E_EOSI_RNSt16remove_referenceISI_E4typeE, symObjAddr: 0x294CC, symBinAddr: 0x10002B604, symSize: 0x14 }
  - { offsetInCU: 0x5B58E, offset: 0x5B58E, size: 0x8, addend: 0x0, symName: __ZSt3getILm0EJPNSt7__cxx1112basic_stringIcSt11char_traitsIcESaIcEEEZN8nlohmann16json_abi_v3_11_310basic_jsonISt3mapSt6vectorS5_bxydSaNS8_14adl_serializerESB_IhSaIhEEvE6createIS5_JRA1_KcEEEPT_DpOT0_EUlS6_E_EERKNSt13tuple_elementIXT_ESt5tupleIJDpSM_EEE4typeERKST_, symObjAddr: 0x294B0, symBinAddr: 0x10002B5E8, symSize: 0x1C }
  - { offsetInCU: 0x5B5D6, offset: 0x5B5D6, size: 0x8, addend: 0x0, symName: __ZNSt15__uniq_ptr_implINSt7__cxx1112basic_stringIcSt11char_traitsIcESaIcEEEZN8nlohmann16json_abi_v3_11_310basic_jsonISt3mapSt6vectorS5_bxydSaNS7_14adl_serializerESA_IhSaIhEEvE6createIS5_JRA1_KcEEEPT_DpOT0_EUlPS5_E_E10_M_deleterEv, symObjAddr: 0x29494, symBinAddr: 0x10002B5CC, symSize: 0x1C }
  - { offsetInCU: 0x5B603, offset: 0x5B603, size: 0x8, addend: 0x0, symName: __ZSt3getILm0EJPNSt7__cxx1112basic_stringIcSt11char_traitsIcESaIcEEEZN8nlohmann16json_abi_v3_11_310basic_jsonISt3mapSt6vectorS5_bxydSaNS8_14adl_serializerESB_IhSaIhEEvE6createIS5_JRA1_KcEEEPT_DpOT0_EUlS6_E_EERNSt13tuple_elementIXT_ESt5tupleIJDpSM_EEE4typeERST_, symObjAddr: 0x29478, symBinAddr: 0x10002B5B0, symSize: 0x1C }
  - { offsetInCU: 0x5B778, offset: 0x5B778, size: 0x8, addend: 0x0, symName: __ZNSt5tupleIJPNSt7__cxx1112basic_stringIcSt11char_traitsIcESaIcEEEZN8nlohmann16json_abi_v3_11_310basic_jsonISt3mapSt6vectorS5_bxydSaNS8_14adl_serializerESB_IhSaIhEEvE6createIS5_JRA1_KcEEEPT_DpOT0_EUlS6_E_EEC1IRS6_RKSP_Lb1EEEOSK_OT0_, symObjAddr: 0x29428, symBinAddr: 0x10002B560, symSize: 0x50 }
  - { offsetInCU: 0x5B6E0, offset: 0x5B6E0, size: 0x8, addend: 0x0, symName: __ZSt7forwardIRKZN8nlohmann16json_abi_v3_11_310basic_jsonISt3mapSt6vectorNSt7__cxx1112basic_stringIcSt11char_traitsIcESaIcEEEbxydSaNS1_14adl_serializerES4_IhSaIhEEvE6createISA_JRA1_KcEEEPT_DpOT0_EUlPSA_E_EOSJ_RNSt16remove_referenceISJ_E4typeE, symObjAddr: 0x29414, symBinAddr: 0x10002B54C, symSize: 0x14 }
  - { offsetInCU: 0x5B719, offset: 0x5B719, size: 0x8, addend: 0x0, symName: __ZSt3getILm0EJPSt6vectorIN8nlohmann16json_abi_v3_11_310basic_jsonISt3mapS0_NSt7__cxx1112basic_stringIcSt11char_traitsIcESaIcEEEbxydSaNS2_14adl_serializerES0_IhSaIhEEvEESaISE_EEZNSE_6createISG_JEEEPT_DpOT0_EUlSH_E_EERKNSt13tuple_elementIXT_ESt5tupleIJDpSL_EEE4typeERKSS_, symObjAddr: 0x293F8, symBinAddr: 0x10002B530, symSize: 0x1C }
  - { offsetInCU: 0x5B761, offset: 0x5B761, size: 0x8, addend: 0x0, symName: __ZNSt15__uniq_ptr_implISt6vectorIN8nlohmann16json_abi_v3_11_310basic_jsonISt3mapS0_NSt7__cxx1112basic_stringIcSt11char_traitsIcESaIcEEEbxydSaNS2_14adl_serializerES0_IhSaIhEEvEESaISE_EEZNSE_6createISG_JEEEPT_DpOT0_EUlPSG_E_E10_M_deleterEv, symObjAddr: 0x293DC, symBinAddr: 0x10002B514, symSize: 0x1C }
  - { offsetInCU: 0x5B78E, offset: 0x5B78E, size: 0x8, addend: 0x0, symName: __ZSt3getILm0EJPSt6vectorIN8nlohmann16json_abi_v3_11_310basic_jsonISt3mapS0_NSt7__cxx1112basic_stringIcSt11char_traitsIcESaIcEEEbxydSaNS2_14adl_serializerES0_IhSaIhEEvEESaISE_EEZNSE_6createISG_JEEEPT_DpOT0_EUlSH_E_EERNSt13tuple_elementIXT_ESt5tupleIJDpSL_EEE4typeERSS_, symObjAddr: 0x293C0, symBinAddr: 0x10002B4F8, symSize: 0x1C }
  - { offsetInCU: 0x5B90B, offset: 0x5B90B, size: 0x8, addend: 0x0, symName: __ZNSt5tupleIJPSt6vectorIN8nlohmann16json_abi_v3_11_310basic_jsonISt3mapS0_NSt7__cxx1112basic_stringIcSt11char_traitsIcESaIcEEEbxydSaNS2_14adl_serializerES0_IhSaIhEEvEESaISE_EEZNSE_6createISG_JEEEPT_DpOT0_EUlSH_E_EEC1IRSH_RKSO_Lb1EEEOSJ_OT0_, symObjAddr: 0x29370, symBinAddr: 0x10002B4A8, symSize: 0x50 }
  - { offsetInCU: 0x5B86B, offset: 0x5B86B, size: 0x8, addend: 0x0, symName: __ZSt7forwardIRKZN8nlohmann16json_abi_v3_11_310basic_jsonISt3mapSt6vectorNSt7__cxx1112basic_stringIcSt11char_traitsIcESaIcEEEbxydSaNS1_14adl_serializerES4_IhSaIhEEvE6createIS4_ISE_SaISE_EEJEEEPT_DpOT0_EUlPSH_E_EOSI_RNSt16remove_referenceISI_E4typeE, symObjAddr: 0x2935C, symBinAddr: 0x10002B494, symSize: 0x14 }
  - { offsetInCU: 0x5B8A1, offset: 0x5B8A1, size: 0x8, addend: 0x0, symName: __ZNSt8_Rb_treeINSt7__cxx1112basic_stringIcSt11char_traitsIcESaIcEEESt4pairIKS5_N8nlohmann16json_abi_v3_11_310basic_jsonISt3mapSt6vectorS5_bxydSaNS9_14adl_serializerESC_IhSaIhEEvEEESt10_Select1stISH_ESt4lessIvESaISH_EE14_M_create_nodeIJS5_DnEEEPSt13_Rb_tree_nodeISH_EDpOT_, symObjAddr: 0x29300, symBinAddr: 0x10002B438, symSize: 0x5C }
  - { offsetInCU: 0x5BA31, offset: 0x5BA31, size: 0x8, addend: 0x0, symName: __ZNSt8_Rb_treeINSt7__cxx1112basic_stringIcSt11char_traitsIcESaIcEEESt4pairIKS5_N8nlohmann16json_abi_v3_11_310basic_jsonISt3mapSt6vectorS5_bxydSaNS9_14adl_serializerESC_IhSaIhEEvEEESt10_Select1stISH_ESt4lessIvESaISH_EE13_Rb_tree_implISL_Lb1EEC1Ev, symObjAddr: 0x292BC, symBinAddr: 0x10002B3F4, symSize: 0x44 }
  - { offsetInCU: 0x5B9AF, offset: 0x5B9AF, size: 0x8, addend: 0x0, symName: __ZSt3getILm0EJPSt3mapINSt7__cxx1112basic_stringIcSt11char_traitsIcESaIcEEEN8nlohmann16json_abi_v3_11_310basic_jsonIS0_St6vectorS6_bxydSaNS8_14adl_serializerESA_IhSaIhEEvEESt4lessIvESaISt4pairIKS6_SE_EEEZNSE_6createISL_JEEEPT_DpOT0_EUlSM_E_EERKNSt13tuple_elementIXT_ESt5tupleIJDpSQ_EEE4typeERKSX_, symObjAddr: 0x292A0, symBinAddr: 0x10002B3D8, symSize: 0x1C }
  - { offsetInCU: 0x5B9F7, offset: 0x5B9F7, size: 0x8, addend: 0x0, symName: __ZNSt15__uniq_ptr_implISt3mapINSt7__cxx1112basic_stringIcSt11char_traitsIcESaIcEEEN8nlohmann16json_abi_v3_11_310basic_jsonIS0_St6vectorS6_bxydSaNS8_14adl_serializerESA_IhSaIhEEvEESt4lessIvESaISt4pairIKS6_SE_EEEZNSE_6createISL_JEEEPT_DpOT0_EUlPSL_E_E10_M_deleterEv, symObjAddr: 0x29284, symBinAddr: 0x10002B3BC, symSize: 0x1C }
  - { offsetInCU: 0x5BA24, offset: 0x5BA24, size: 0x8, addend: 0x0, symName: __ZSt3getILm0EJPSt3mapINSt7__cxx1112basic_stringIcSt11char_traitsIcESaIcEEEN8nlohmann16json_abi_v3_11_310basic_jsonIS0_St6vectorS6_bxydSaNS8_14adl_serializerESA_IhSaIhEEvEESt4lessIvESaISt4pairIKS6_SE_EEEZNSE_6createISL_JEEEPT_DpOT0_EUlSM_E_EERNSt13tuple_elementIXT_ESt5tupleIJDpSQ_EEE4typeERSX_, symObjAddr: 0x29268, symBinAddr: 0x10002B3A0, symSize: 0x1C }
  - { offsetInCU: 0x5BBBB, offset: 0x5BBBB, size: 0x8, addend: 0x0, symName: __ZNSt5tupleIJPSt3mapINSt7__cxx1112basic_stringIcSt11char_traitsIcESaIcEEEN8nlohmann16json_abi_v3_11_310basic_jsonIS0_St6vectorS6_bxydSaNS8_14adl_serializerESA_IhSaIhEEvEESt4lessIvESaISt4pairIKS6_SE_EEEZNSE_6createISL_JEEEPT_DpOT0_EUlSM_E_EEC1IRSM_RKST_Lb1EEEOSO_OT0_, symObjAddr: 0x29218, symBinAddr: 0x10002B350, symSize: 0x50 }
  - { offsetInCU: 0x5BB01, offset: 0x5BB01, size: 0x8, addend: 0x0, symName: __ZSt7forwardIRKZN8nlohmann16json_abi_v3_11_310basic_jsonISt3mapSt6vectorNSt7__cxx1112basic_stringIcSt11char_traitsIcESaIcEEEbxydSaNS1_14adl_serializerES4_IhSaIhEEvE6createIS3_ISA_SE_St4lessIvESaISt4pairIKSA_SE_EEEJEEEPT_DpOT0_EUlPSM_E_EOSN_RNSt16remove_referenceISN_E4typeE, symObjAddr: 0x29204, symBinAddr: 0x10002B33C, symSize: 0x14 }
  - { offsetInCU: 0x5BB33, offset: 0x5BB33, size: 0x8, addend: 0x0, symName: __ZSt14__relocate_a_1IPSt6vectorIiSaIiEES3_SaIS2_EET0_T_S6_S5_RT1_, symObjAddr: 0x29180, symBinAddr: 0x10002B2B8, symSize: 0x84 }
  - { offsetInCU: 0x5BBC0, offset: 0x5BBC0, size: 0x8, addend: 0x0, symName: __ZNK8nlohmann16json_abi_v3_11_310basic_jsonISt3mapSt6vectorNSt7__cxx1112basic_stringIcSt11char_traitsIcESaIcEEEbxydSaNS0_14adl_serializerES3_IhSaIhEEvE7get_ptrIPKS9_Li0EEEDTcldtclL_ZSt7declvalIRKSD_EDTcl9__declvalIT_ELi0EEEvEE12get_impl_ptrcl7declvalISK_EEEEv, symObjAddr: 0x29160, symBinAddr: 0x10002B298, symSize: 0x20 }
  - { offsetInCU: 0x5BBEF, offset: 0x5BBEF, size: 0x8, addend: 0x0, symName: __ZN8nlohmann16json_abi_v3_11_36detail11concat_intoINSt7__cxx1112basic_stringIcSt11char_traitsIcESaIcEEERKS8_JELi0EEEvRT_OT0_DpOT1_, symObjAddr: 0x29128, symBinAddr: 0x10002B260, symSize: 0x38 }
  - { offsetInCU: 0x5BC4B, offset: 0x5BC4B, size: 0x8, addend: 0x0, symName: __ZNKSt8_Rb_treeINSt7__cxx1112basic_stringIcSt11char_traitsIcESaIcEEESt4pairIKS5_N8nlohmann16json_abi_v3_11_310basic_jsonISt3mapSt6vectorS5_bxydSaNS9_14adl_serializerESC_IhSaIhEEvEEESt10_Select1stISH_ESt4lessIvESaISH_EE9_M_mbeginEv, symObjAddr: 0x29110, symBinAddr: 0x10002B248, symSize: 0x18 }
  - { offsetInCU: 0x5BC71, offset: 0x5BC71, size: 0x8, addend: 0x0, symName: __ZSt10_ConstructISt6vectorIiSaIiEEJRS2_EEvPT_DpOT0_, symObjAddr: 0x29094, symBinAddr: 0x10002B1CC, symSize: 0x7C }
  - { offsetInCU: 0x5BCBD, offset: 0x5BCBD, size: 0x8, addend: 0x0, symName: __ZNSt11__copy_moveILb0ELb0ESt26random_access_iterator_tagE8__copy_mIPSt6vectorIiSaIiEES6_EET0_T_S8_S7_, symObjAddr: 0x29014, symBinAddr: 0x10002B14C, symSize: 0x80 }
  - { offsetInCU: 0x5BD4C, offset: 0x5BD4C, size: 0x8, addend: 0x0, symName: __ZNSt11__copy_moveILb0ELb0ESt26random_access_iterator_tagE8__copy_mIPKSt6vectorIiSaIiEEPS5_EET0_T_SA_S9_, symObjAddr: 0x28F94, symBinAddr: 0x10002B0CC, symSize: 0x80 }
  - { offsetInCU: 0x5BDDB, offset: 0x5BDDB, size: 0x8, addend: 0x0, symName: __ZSt16__do_uninit_copyIN9__gnu_cxx17__normal_iteratorIPKSt6vectorIiSaIiEES2_IS4_SaIS4_EEEEPS4_ET0_T_SC_SB_, symObjAddr: 0x28EEC, symBinAddr: 0x10002B024, symSize: 0xA8 }
  - { offsetInCU: 0x5BE4A, offset: 0x5BE4A, size: 0x8, addend: 0x0, symName: __ZNK9__gnu_cxx16__aligned_membufISt4pairIKiSt6vectorIS3_IiSaIiEESaIS5_EEEE6_M_ptrEv, symObjAddr: 0x28ED0, symBinAddr: 0x10002B008, symSize: 0x1C }
  - { offsetInCU: 0x5BE7E, offset: 0x5BE7E, size: 0x8, addend: 0x0, symName: __ZSt7forwardIRPSt13_Rb_tree_nodeISt4pairIKiSt6vectorIS3_IiSaIiEESaIS5_EEEEEOT_RNSt16remove_referenceISC_E4typeE, symObjAddr: 0x28EBC, symBinAddr: 0x10002AFF4, symSize: 0x14 }
  - { offsetInCU: 0x5BF2C, offset: 0x5BF2C, size: 0x8, addend: 0x0, symName: __ZSt18__do_uninit_fill_nIPSt6vectorIiSaIiEEmS2_ET_S4_T0_RKT1_, symObjAddr: 0x28E2C, symBinAddr: 0x10002AF64, symSize: 0x90 }
  - { offsetInCU: 0x5BFA4, offset: 0x5BFA4, size: 0x8, addend: 0x0, symName: __ZSt6fill_nIPimiET_S1_T0_RKT1_, symObjAddr: 0x28DE4, symBinAddr: 0x10002AF1C, symSize: 0x48 }
  - { offsetInCU: 0x5C030, offset: 0x5C030, size: 0x8, addend: 0x0, symName: __ZNSt15__new_allocatorISt13_Rb_tree_nodeISt4pairIKiSt6vectorIS3_IiSaIiEESaIS5_EEEEE10deallocateEPS9_m, symObjAddr: 0x28DB4, symBinAddr: 0x10002AEEC, symSize: 0x30 }
  - { offsetInCU: 0x5C0FA, offset: 0x5C0FA, size: 0x8, addend: 0x0, symName: __ZNSt4pairIKiSt6vectorIS1_IiSaIiEESaIS3_EEED1Ev, symObjAddr: 0x28D90, symBinAddr: 0x10002AEC8, symSize: 0x24 }
  - { offsetInCU: 0x5C20C, offset: 0x5C20C, size: 0x8, addend: 0x0, symName: __ZNSt6vectorIN8nlohmann16json_abi_v3_11_310basic_jsonISt3mapS_NSt7__cxx1112basic_stringIcSt11char_traitsIcESaIcEEEbxydSaNS1_14adl_serializerES_IhSaIhEEvEESaISD_EEC1IPKNS1_6detail8json_refISD_EEvEET_SM_RKSE_, symObjAddr: 0x28D28, symBinAddr: 0x10002AE60, symSize: 0x68 }
  - { offsetInCU: 0x5C1AF, offset: 0x5C1AF, size: 0x8, addend: 0x0, symName: __ZSt3getILm0EJPSt6vectorIN8nlohmann16json_abi_v3_11_310basic_jsonISt3mapS0_NSt7__cxx1112basic_stringIcSt11char_traitsIcESaIcEEEbxydSaNS2_14adl_serializerES0_IhSaIhEEvEESaISE_EEZNSE_6createISG_JPKNS2_6detail8json_refISE_EESN_EEEPT_DpOT0_EUlSH_E_EERKNSt13tuple_elementIXT_ESt5tupleIJDpSQ_EEE4typeERKSX_, symObjAddr: 0x28D0C, symBinAddr: 0x10002AE44, symSize: 0x1C }
  - { offsetInCU: 0x5C1F7, offset: 0x5C1F7, size: 0x8, addend: 0x0, symName: __ZNSt15__uniq_ptr_implISt6vectorIN8nlohmann16json_abi_v3_11_310basic_jsonISt3mapS0_NSt7__cxx1112basic_stringIcSt11char_traitsIcESaIcEEEbxydSaNS2_14adl_serializerES0_IhSaIhEEvEESaISE_EEZNSE_6createISG_JPKNS2_6detail8json_refISE_EESM_EEEPT_DpOT0_EUlPSG_E_E10_M_deleterEv, symObjAddr: 0x28CF0, symBinAddr: 0x10002AE28, symSize: 0x1C }
  - { offsetInCU: 0x5C224, offset: 0x5C224, size: 0x8, addend: 0x0, symName: __ZSt3getILm0EJPSt6vectorIN8nlohmann16json_abi_v3_11_310basic_jsonISt3mapS0_NSt7__cxx1112basic_stringIcSt11char_traitsIcESaIcEEEbxydSaNS2_14adl_serializerES0_IhSaIhEEvEESaISE_EEZNSE_6createISG_JPKNS2_6detail8json_refISE_EESN_EEEPT_DpOT0_EUlSH_E_EERNSt13tuple_elementIXT_ESt5tupleIJDpSQ_EEE4typeERSX_, symObjAddr: 0x28CD4, symBinAddr: 0x10002AE0C, symSize: 0x1C }
  - { offsetInCU: 0x5C3C0, offset: 0x5C3C0, size: 0x8, addend: 0x0, symName: __ZNSt5tupleIJPSt6vectorIN8nlohmann16json_abi_v3_11_310basic_jsonISt3mapS0_NSt7__cxx1112basic_stringIcSt11char_traitsIcESaIcEEEbxydSaNS2_14adl_serializerES0_IhSaIhEEvEESaISE_EEZNSE_6createISG_JPKNS2_6detail8json_refISE_EESN_EEEPT_DpOT0_EUlSH_E_EEC1IRSH_RKST_Lb1EEEOSO_OT0_, symObjAddr: 0x28C84, symBinAddr: 0x10002ADBC, symSize: 0x50 }
  - { offsetInCU: 0x5C301, offset: 0x5C301, size: 0x8, addend: 0x0, symName: __ZSt7forwardIRKZN8nlohmann16json_abi_v3_11_310basic_jsonISt3mapSt6vectorNSt7__cxx1112basic_stringIcSt11char_traitsIcESaIcEEEbxydSaNS1_14adl_serializerES4_IhSaIhEEvE6createIS4_ISE_SaISE_EEJPKNS1_6detail8json_refISE_EESM_EEEPT_DpOT0_EUlPSH_E_EOSN_RNSt16remove_referenceISN_E4typeE, symObjAddr: 0x28C70, symBinAddr: 0x10002ADA8, symSize: 0x14 }
  - { offsetInCU: 0x5C337, offset: 0x5C337, size: 0x8, addend: 0x0, symName: __ZNSt8_Rb_treeINSt7__cxx1112basic_stringIcSt11char_traitsIcESaIcEEESt4pairIKS5_N8nlohmann16json_abi_v3_11_310basic_jsonISt3mapSt6vectorS5_bxydSaNS9_14adl_serializerESC_IhSaIhEEvEEESt10_Select1stISH_ESt4lessIvESaISH_EE14_M_insert_nodeEPSt18_Rb_tree_node_baseSP_PSt13_Rb_tree_nodeISH_E, symObjAddr: 0x28BA0, symBinAddr: 0x10002ACD8, symSize: 0xD0 }
  - { offsetInCU: 0x5C4D6, offset: 0x5C4D6, size: 0x8, addend: 0x0, symName: __ZNSt4pairIPSt18_Rb_tree_node_baseS1_EC1IRPSt13_Rb_tree_nodeIS_IKNSt7__cxx1112basic_stringIcSt11char_traitsIcESaIcEEEN8nlohmann16json_abi_v3_11_310basic_jsonISt3mapSt6vectorSA_bxydSaNSD_14adl_serializerESG_IhSaIhEEvEEEERS1_Lb1EEEOT_OT0_, symObjAddr: 0x28B58, symBinAddr: 0x10002AC90, symSize: 0x48 }
  - { offsetInCU: 0x5C433, offset: 0x5C433, size: 0x8, addend: 0x0, symName: __ZNSt8_Rb_treeINSt7__cxx1112basic_stringIcSt11char_traitsIcESaIcEEESt4pairIKS5_N8nlohmann16json_abi_v3_11_310basic_jsonISt3mapSt6vectorS5_bxydSaNS9_14adl_serializerESC_IhSaIhEEvEEESt10_Select1stISH_ESt4lessIvESaISH_EE8_S_rightEPSt18_Rb_tree_node_base, symObjAddr: 0x28B40, symBinAddr: 0x10002AC78, symSize: 0x18 }
  - { offsetInCU: 0x5C45D, offset: 0x5C45D, size: 0x8, addend: 0x0, symName: __ZNSt8_Rb_treeINSt7__cxx1112basic_stringIcSt11char_traitsIcESaIcEEESt4pairIKS5_N8nlohmann16json_abi_v3_11_310basic_jsonISt3mapSt6vectorS5_bxydSaNS9_14adl_serializerESC_IhSaIhEEvEEESt10_Select1stISH_ESt4lessIvESaISH_EE7_S_leftEPSt18_Rb_tree_node_base, symObjAddr: 0x28B28, symBinAddr: 0x10002AC60, symSize: 0x18 }
  - { offsetInCU: 0x5C487, offset: 0x5C487, size: 0x8, addend: 0x0, symName: __ZNSt8_Rb_treeINSt7__cxx1112basic_stringIcSt11char_traitsIcESaIcEEESt4pairIKS5_N8nlohmann16json_abi_v3_11_310basic_jsonISt3mapSt6vectorS5_bxydSaNS9_14adl_serializerESC_IhSaIhEEvEEESt10_Select1stISH_ESt4lessIvESaISH_EE6_S_keyEPKSt13_Rb_tree_nodeISH_E, symObjAddr: 0x28B00, symBinAddr: 0x10002AC38, symSize: 0x28 }
  - { offsetInCU: 0x5C4B5, offset: 0x5C4B5, size: 0x8, addend: 0x0, symName: __ZNSt8_Rb_treeINSt7__cxx1112basic_stringIcSt11char_traitsIcESaIcEEESt4pairIKS5_N8nlohmann16json_abi_v3_11_310basic_jsonISt3mapSt6vectorS5_bxydSaNS9_14adl_serializerESC_IhSaIhEEvEEESt10_Select1stISH_ESt4lessIvESaISH_EE12_M_drop_nodeEPSt13_Rb_tree_nodeISH_E, symObjAddr: 0x28ACC, symBinAddr: 0x10002AC04, symSize: 0x34 }
  - { offsetInCU: 0x5C4F0, offset: 0x5C4F0, size: 0x8, addend: 0x0, symName: __ZNSt8_Rb_treeINSt7__cxx1112basic_stringIcSt11char_traitsIcESaIcEEESt4pairIKS5_N8nlohmann16json_abi_v3_11_310basic_jsonISt3mapSt6vectorS5_bxydSaNS9_14adl_serializerESC_IhSaIhEEvEEESt10_Select1stISH_ESt4lessIvESaISH_EE14_M_create_nodeIJS5_SG_EEEPSt13_Rb_tree_nodeISH_EDpOT_, symObjAddr: 0x28A70, symBinAddr: 0x10002ABA8, symSize: 0x5C }
  - { offsetInCU: 0x5C554, offset: 0x5C554, size: 0x8, addend: 0x0, symName: __ZNSt8_Rb_treeINSt7__cxx1112basic_stringIcSt11char_traitsIcESaIcEEESt4pairIKS5_N8nlohmann16json_abi_v3_11_310basic_jsonISt3mapSt6vectorS5_bxydSaNS9_14adl_serializerESC_IhSaIhEEvEEESt10_Select1stISH_ESt4lessIvESaISH_EE29_M_get_insert_hint_unique_posESt23_Rb_tree_const_iteratorISH_ERS7_, symObjAddr: 0x2874C, symBinAddr: 0x10002A884, symSize: 0x324 }
  - { offsetInCU: 0x5C5FB, offset: 0x5C5FB, size: 0x8, addend: 0x0, symName: __ZSt9__find_ifIPKN8nlohmann16json_abi_v3_11_36detail8json_refINS1_10basic_jsonISt3mapSt6vectorNSt7__cxx1112basic_stringIcSt11char_traitsIcESaIcEEEbxydSaNS1_14adl_serializerES6_IhSaIhEEvEEEEN9__gnu_cxx5__ops12_Iter_negateIZNSG_C4ESt16initializer_listISH_EbNS2_7value_tEEUlRSI_E_EEET_ST_ST_T0_St26random_access_iterator_tag, symObjAddr: 0x28574, symBinAddr: 0x10002A6AC, symSize: 0x1D8 }
  - { offsetInCU: 0x5C690, offset: 0x5C690, size: 0x8, addend: 0x0, symName: __ZN9__gnu_cxx5__ops8__negateIZN8nlohmann16json_abi_v3_11_310basic_jsonISt3mapSt6vectorNSt7__cxx1112basic_stringIcSt11char_traitsIcESaIcEEEbxydSaNS3_14adl_serializerES6_IhSaIhEEvEC4ESt16initializer_listINS3_6detail8json_refISG_EEEbNSI_7value_tEEUlRKSK_E_EENS0_12_Iter_negateIT_EENS0_10_Iter_predISR_EE, symObjAddr: 0x2853C, symBinAddr: 0x10002A674, symSize: 0x38 }
  - { offsetInCU: 0x5C7F3, offset: 0x5C7F3, size: 0x8, addend: 0x0, symName: __ZN9__gnu_cxx5__ops10_Iter_predIZN8nlohmann16json_abi_v3_11_310basic_jsonISt3mapSt6vectorNSt7__cxx1112basic_stringIcSt11char_traitsIcESaIcEEEbxydSaNS3_14adl_serializerES6_IhSaIhEEvEC4ESt16initializer_listINS3_6detail8json_refISG_EEEbNSI_7value_tEEUlRKSK_E_EC1ESP_, symObjAddr: 0x28518, symBinAddr: 0x10002A650, symSize: 0x24 }
  - { offsetInCU: 0x5C721, offset: 0x5C721, size: 0x8, addend: 0x0, symName: __ZSt4moveIRZN8nlohmann16json_abi_v3_11_310basic_jsonISt3mapSt6vectorNSt7__cxx1112basic_stringIcSt11char_traitsIcESaIcEEEbxydSaNS1_14adl_serializerES4_IhSaIhEEvEC4ESt16initializer_listINS1_6detail8json_refISE_EEEbNSG_7value_tEEUlRKSI_E_EONSt16remove_referenceIT_E4typeEOSQ_, symObjAddr: 0x28504, symBinAddr: 0x10002A63C, symSize: 0x14 }
  - { offsetInCU: 0x5C753, offset: 0x5C753, size: 0x8, addend: 0x0, symName: __ZSt4copyIPKiPiET0_T_S4_S3_, symObjAddr: 0x284BC, symBinAddr: 0x10002A5F4, symSize: 0x48 }
  - { offsetInCU: 0x5C806, offset: 0x5C806, size: 0x8, addend: 0x0, symName: __ZNSt16_Sp_counted_baseILN9__gnu_cxx12_Lock_policyE2EEC2Ev, symObjAddr: 0x2847C, symBinAddr: 0x10002A5B4, symSize: 0x40 }
  - { offsetInCU: 0x5C82E, offset: 0x5C82E, size: 0x8, addend: 0x0, symName: __ZNSt6vectorIhSaIhEED2Ev, symObjAddr: 0x28420, symBinAddr: 0x10002A558, symSize: 0x5C }
  - { offsetInCU: 0x5C973, offset: 0x5C973, size: 0x8, addend: 0x0, symName: __ZNSt8_Rb_treeINSt7__cxx1112basic_stringIcSt11char_traitsIcESaIcEEESt4pairIKS5_N8nlohmann16json_abi_v3_11_310basic_jsonISt3mapSt6vectorS5_bxydSaNS9_14adl_serializerESC_IhSaIhEEvEEESt10_Select1stISH_ESt4lessIvESaISH_EED1Ev, symObjAddr: 0x283EC, symBinAddr: 0x10002A524, symSize: 0x34 }
  - { offsetInCU: 0x5C8BF, offset: 0x5C8BF, size: 0x8, addend: 0x0, symName: __ZNSt8_Rb_treeINSt7__cxx1112basic_stringIcSt11char_traitsIcESaIcEEESt4pairIKS5_N8nlohmann16json_abi_v3_11_310basic_jsonISt3mapSt6vectorS5_bxydSaNS9_14adl_serializerESC_IhSaIhEEvEEESt10_Select1stISH_ESt4lessIvESaISH_EE8_M_eraseEPSt13_Rb_tree_nodeISH_E, symObjAddr: 0x28388, symBinAddr: 0x10002A4C0, symSize: 0x64 }
  - { offsetInCU: 0x5C94A, offset: 0x5C94A, size: 0x8, addend: 0x0, symName: __ZNSt6vectorIN8nlohmann16json_abi_v3_11_310basic_jsonISt3mapS_NSt7__cxx1112basic_stringIcSt11char_traitsIcESaIcEEEbxydSaNS1_14adl_serializerES_IhSaIhEEvEESaISD_EE17_M_realloc_appendIJSD_EEEvDpOT_, symObjAddr: 0x281C8, symBinAddr: 0x10002A300, symSize: 0x1C0 }
  - { offsetInCU: 0x5CBA6, offset: 0x5CBA6, size: 0x8, addend: 0x0, symName: __ZZNSt6vectorIN8nlohmann16json_abi_v3_11_310basic_jsonISt3mapS_NSt7__cxx1112basic_stringIcSt11char_traitsIcESaIcEEEbxydSaNS1_14adl_serializerES_IhSaIhEEvEESaISD_EE17_M_realloc_appendIJSD_EEEvDpOT_EN6_GuardC1EPSD_mRSE_, symObjAddr: 0x28124, symBinAddr: 0x10002A25C, symSize: 0x44 }
  - { offsetInCU: 0x5CBE3, offset: 0x5CBE3, size: 0x8, addend: 0x0, symName: __ZZNSt6vectorIN8nlohmann16json_abi_v3_11_310basic_jsonISt3mapS_NSt7__cxx1112basic_stringIcSt11char_traitsIcESaIcEEEbxydSaNS1_14adl_serializerES_IhSaIhEEvEESaISD_EE17_M_realloc_appendIJSD_EEEvDpOT_EN6_GuardD1Ev, symObjAddr: 0x28168, symBinAddr: 0x10002A2A0, symSize: 0x60 }
  - { offsetInCU: 0x5CC48, offset: 0x5CC48, size: 0x8, addend: 0x0, symName: __ZSt12__niter_wrapISt20back_insert_iteratorISt6vectorIN8nlohmann16json_abi_v3_11_310basic_jsonISt3mapS1_NSt7__cxx1112basic_stringIcSt11char_traitsIcESaIcEEEbxydSaNS3_14adl_serializerES1_IhSaIhEEvEESaISF_EEEET_RKSJ_SJ_, symObjAddr: 0x2810C, symBinAddr: 0x10002A244, symSize: 0x18 }
  - { offsetInCU: 0x5CC84, offset: 0x5CC84, size: 0x8, addend: 0x0, symName: __ZSt14__copy_move_a1ILb1EPN8nlohmann16json_abi_v3_11_310basic_jsonISt3mapSt6vectorNSt7__cxx1112basic_stringIcSt11char_traitsIcESaIcEEEbxydSaNS1_14adl_serializerES4_IhSaIhEEvEESt20back_insert_iteratorIS4_ISE_SaISE_EEEET1_T0_SL_SK_, symObjAddr: 0x280E0, symBinAddr: 0x10002A218, symSize: 0x2C }
  - { offsetInCU: 0x5CCEC, offset: 0x5CCEC, size: 0x8, addend: 0x0, symName: __ZSt12__niter_baseISt20back_insert_iteratorISt6vectorIN8nlohmann16json_abi_v3_11_310basic_jsonISt3mapS1_NSt7__cxx1112basic_stringIcSt11char_traitsIcESaIcEEEbxydSaNS3_14adl_serializerES1_IhSaIhEEvEESaISF_EEEET_SJ_, symObjAddr: 0x280CC, symBinAddr: 0x10002A204, symSize: 0x14 }
  - { offsetInCU: 0x5CD1F, offset: 0x5CD1F, size: 0x8, addend: 0x0, symName: __ZSt12__niter_baseIPN8nlohmann16json_abi_v3_11_310basic_jsonISt3mapSt6vectorNSt7__cxx1112basic_stringIcSt11char_traitsIcESaIcEEEbxydSaNS1_14adl_serializerES4_IhSaIhEEvEES4_ISE_SaISE_EEET_N9__gnu_cxx17__normal_iteratorISI_T0_EE, symObjAddr: 0x280AC, symBinAddr: 0x10002A1E4, symSize: 0x20 }
  - { offsetInCU: 0x5CD5B, offset: 0x5CD5B, size: 0x8, addend: 0x0, symName: __ZSt11__addressofISt6vectorIN8nlohmann16json_abi_v3_11_310basic_jsonISt3mapS0_NSt7__cxx1112basic_stringIcSt11char_traitsIcESaIcEEEbxydSaNS2_14adl_serializerES0_IhSaIhEEvEESaISE_EEEPT_RSH_, symObjAddr: 0x28098, symBinAddr: 0x10002A1D0, symSize: 0x14 }
  - { offsetInCU: 0x5CD91, offset: 0x5CD91, size: 0x8, addend: 0x0, symName: __ZNKSt12_Vector_baseIN8nlohmann16json_abi_v3_11_310basic_jsonISt3mapSt6vectorNSt7__cxx1112basic_stringIcSt11char_traitsIcESaIcEEEbxydSaNS1_14adl_serializerES4_IhSaIhEEvEESaISE_EE19_M_get_Tp_allocatorEv, symObjAddr: 0x28084, symBinAddr: 0x10002A1BC, symSize: 0x14 }
  - { offsetInCU: 0x5CDB7, offset: 0x5CDB7, size: 0x8, addend: 0x0, symName: __ZNSt6vectorIN8nlohmann16json_abi_v3_11_310basic_jsonISt3mapS_NSt7__cxx1112basic_stringIcSt11char_traitsIcESaIcEEEbxydSaNS1_14adl_serializerES_IhSaIhEEvEESaISD_EE11_S_max_sizeERKSE_, symObjAddr: 0x28030, symBinAddr: 0x10002A168, symSize: 0x54 }
  - { offsetInCU: 0x5CE6E, offset: 0x5CE6E, size: 0x8, addend: 0x0, symName: __ZSt8_DestroyIPN8nlohmann16json_abi_v3_11_310basic_jsonISt3mapSt6vectorNSt7__cxx1112basic_stringIcSt11char_traitsIcESaIcEEEbxydSaNS1_14adl_serializerES4_IhSaIhEEvEEEvT_SG_, symObjAddr: 0x28008, symBinAddr: 0x10002A140, symSize: 0x28 }
  - { offsetInCU: 0x5CEB4, offset: 0x5CEB4, size: 0x8, addend: 0x0, symName: __ZNSt6vectorIN8nlohmann16json_abi_v3_11_310basic_jsonISt3mapS_NSt7__cxx1112basic_stringIcSt11char_traitsIcESaIcEEEbxydSaNS1_14adl_serializerES_IhSaIhEEvEESaISD_EE12emplace_backIJRyEEERSD_DpOT_, symObjAddr: 0x27F2C, symBinAddr: 0x10002A064, symSize: 0xDC }
  - { offsetInCU: 0x5CF63, offset: 0x5CF63, size: 0x8, addend: 0x0, symName: __ZNSt6vectorIN8nlohmann16json_abi_v3_11_310basic_jsonISt3mapS_NSt7__cxx1112basic_stringIcSt11char_traitsIcESaIcEEEbxydSaNS1_14adl_serializerES_IhSaIhEEvEESaISD_EE12emplace_backIJRS9_EEERSD_DpOT_, symObjAddr: 0x27E20, symBinAddr: 0x100029F58, symSize: 0x10C }
  - { offsetInCU: 0x5D00A, offset: 0x5D00A, size: 0x8, addend: 0x0, symName: __ZNSt6vectorIN8nlohmann16json_abi_v3_11_310basic_jsonISt3mapS_NSt7__cxx1112basic_stringIcSt11char_traitsIcESaIcEEEbxydSaNS1_14adl_serializerES_IhSaIhEEvEESaISD_EE12emplace_backIJRxEEERSD_DpOT_, symObjAddr: 0x27D44, symBinAddr: 0x100029E7C, symSize: 0xDC }
  - { offsetInCU: 0x5D0B9, offset: 0x5D0B9, size: 0x8, addend: 0x0, symName: __ZNSt6vectorIN8nlohmann16json_abi_v3_11_310basic_jsonISt3mapS_NSt7__cxx1112basic_stringIcSt11char_traitsIcESaIcEEEbxydSaNS1_14adl_serializerES_IhSaIhEEvEESaISD_EE12emplace_backIJDnEEERSD_DpOT_, symObjAddr: 0x27C64, symBinAddr: 0x100029D9C, symSize: 0xE0 }
  - { offsetInCU: 0x5D168, offset: 0x5D168, size: 0x8, addend: 0x0, symName: __ZNSt6vectorIN8nlohmann16json_abi_v3_11_310basic_jsonISt3mapS_NSt7__cxx1112basic_stringIcSt11char_traitsIcESaIcEEEbxydSaNS1_14adl_serializerES_IhSaIhEEvEESaISD_EE12emplace_backIJRbEEERSD_DpOT_, symObjAddr: 0x27B88, symBinAddr: 0x100029CC0, symSize: 0xDC }
  - { offsetInCU: 0x5D217, offset: 0x5D217, size: 0x8, addend: 0x0, symName: __ZNSt6vectorIN8nlohmann16json_abi_v3_11_310basic_jsonISt3mapS_NSt7__cxx1112basic_stringIcSt11char_traitsIcESaIcEEEbxydSaNS1_14adl_serializerES_IhSaIhEEvEESaISD_EE12emplace_backIJRdEEERSD_DpOT_, symObjAddr: 0x27AAC, symBinAddr: 0x100029BE4, symSize: 0xDC }
  - { offsetInCU: 0x5D2C6, offset: 0x5D2C6, size: 0x8, addend: 0x0, symName: __ZNSt6vectorIPN8nlohmann16json_abi_v3_11_310basic_jsonISt3mapS_NSt7__cxx1112basic_stringIcSt11char_traitsIcESaIcEEEbxydSaNS1_14adl_serializerES_IhSaIhEEvEESaISE_EE12emplace_backIJSE_EEERSE_DpOT_, symObjAddr: 0x279D4, symBinAddr: 0x100029B0C, symSize: 0xD8 }
  - { offsetInCU: 0x5D378, offset: 0x5D378, size: 0x8, addend: 0x0, symName: __ZSt4moveIRPN8nlohmann16json_abi_v3_11_310basic_jsonISt3mapSt6vectorNSt7__cxx1112basic_stringIcSt11char_traitsIcESaIcEEEbxydSaNS1_14adl_serializerES4_IhSaIhEEvEEEONSt16remove_referenceIT_E4typeEOSI_, symObjAddr: 0x279C0, symBinAddr: 0x100029AF8, symSize: 0x14 }
  - { offsetInCU: 0x5D3AE, offset: 0x5D3AE, size: 0x8, addend: 0x0, symName: __ZNSt6vectorIN8nlohmann16json_abi_v3_11_310basic_jsonISt3mapS_NSt7__cxx1112basic_stringIcSt11char_traitsIcESaIcEEEbxydSaNS1_14adl_serializerES_IhSaIhEEvEESaISD_EE12emplace_backIJNS1_6detail7value_tEEEERSD_DpOT_, symObjAddr: 0x278B0, symBinAddr: 0x1000299E8, symSize: 0x110 }
  - { offsetInCU: 0x5D458, offset: 0x5D458, size: 0x8, addend: 0x0, symName: __ZN8nlohmann16json_abi_v3_11_36detail11concat_intoINSt7__cxx1112basic_stringIcSt11char_traitsIcESaIcEEERA12_KcJS8_RA3_S9_S8_RKS8_ELi0EEEvRT_OT0_DpOT1_, symObjAddr: 0x2781C, symBinAddr: 0x100029954, symSize: 0x94 }
  - { offsetInCU: 0x5D4EA, offset: 0x5D4EA, size: 0x8, addend: 0x0, symName: __ZN8nlohmann16json_abi_v3_11_36detail13concat_lengthIJNSt7__cxx1112basic_stringIcSt11char_traitsIcESaIcEEEA3_cS8_S8_EEEmPKcDpRKT_, symObjAddr: 0x277CC, symBinAddr: 0x100029904, symSize: 0x50 }
  - { offsetInCU: 0x5D560, offset: 0x5D560, size: 0x8, addend: 0x0, symName: __ZN8nlohmann16json_abi_v3_11_36detail11concat_intoINSt7__cxx1112basic_stringIcSt11char_traitsIcESaIcEEERA15_KcJS8_cELi0EEEvRT_OT0_DpOT1_, symObjAddr: 0x27768, symBinAddr: 0x1000298A0, symSize: 0x64 }
  - { offsetInCU: 0x5D5D6, offset: 0x5D5D6, size: 0x8, addend: 0x0, symName: __ZN8nlohmann16json_abi_v3_11_36detail11concat_intoINSt7__cxx1112basic_stringIcSt11char_traitsIcESaIcEEERKS8_JcELi0EEEvRT_OT0_DpOT1_, symObjAddr: 0x27720, symBinAddr: 0x100029858, symSize: 0x48 }
  - { offsetInCU: 0x5D71E, offset: 0x5D71E, size: 0x8, addend: 0x0, symName: __ZN8nlohmann16json_abi_v3_11_310basic_jsonISt3mapSt6vectorNSt7__cxx1112basic_stringIcSt11char_traitsIcESaIcEEEbxydSaNS0_14adl_serializerES3_IhSaIhEEvEC1IRyyLi0EEEOT_, symObjAddr: 0x276C4, symBinAddr: 0x1000297FC, symSize: 0x5C }
  - { offsetInCU: 0x5D6C0, offset: 0x5D6C0, size: 0x8, addend: 0x0, symName: __ZSt7forwardIRyEOT_RNSt16remove_referenceIS1_E4typeE, symObjAddr: 0x276B0, symBinAddr: 0x1000297E8, symSize: 0x14 }
  - { offsetInCU: 0x5D7D2, offset: 0x5D7D2, size: 0x8, addend: 0x0, symName: __ZN8nlohmann16json_abi_v3_11_310basic_jsonISt3mapSt6vectorNSt7__cxx1112basic_stringIcSt11char_traitsIcESaIcEEEbxydSaNS0_14adl_serializerES3_IhSaIhEEvEC1IRxxLi0EEEOT_, symObjAddr: 0x27654, symBinAddr: 0x10002978C, symSize: 0x5C }
  - { offsetInCU: 0x5D84D, offset: 0x5D84D, size: 0x8, addend: 0x0, symName: __ZN8nlohmann16json_abi_v3_11_310basic_jsonISt3mapSt6vectorNSt7__cxx1112basic_stringIcSt11char_traitsIcESaIcEEEbxydSaNS0_14adl_serializerES3_IhSaIhEEvEC1IRbbLi0EEEOT_, symObjAddr: 0x275F8, symBinAddr: 0x100029730, symSize: 0x5C }
  - { offsetInCU: 0x5D7EF, offset: 0x5D7EF, size: 0x8, addend: 0x0, symName: __ZSt7forwardIRbEOT_RNSt16remove_referenceIS1_E4typeE, symObjAddr: 0x275E4, symBinAddr: 0x10002971C, symSize: 0x14 }
  - { offsetInCU: 0x5D901, offset: 0x5D901, size: 0x8, addend: 0x0, symName: __ZN8nlohmann16json_abi_v3_11_310basic_jsonISt3mapSt6vectorNSt7__cxx1112basic_stringIcSt11char_traitsIcESaIcEEEbxydSaNS0_14adl_serializerES3_IhSaIhEEvEC1IRddLi0EEEOT_, symObjAddr: 0x27588, symBinAddr: 0x1000296C0, symSize: 0x5C }
  - { offsetInCU: 0x5D8A3, offset: 0x5D8A3, size: 0x8, addend: 0x0, symName: __ZSt7forwardIRdEOT_RNSt16remove_referenceIS1_E4typeE, symObjAddr: 0x27574, symBinAddr: 0x1000296AC, symSize: 0x14 }
  - { offsetInCU: 0x5D8D5, offset: 0x5D8D5, size: 0x8, addend: 0x0, symName: __ZN8nlohmann16json_abi_v3_11_36detail11concat_intoINSt7__cxx1112basic_stringIcSt11char_traitsIcESaIcEEES8_JcELi0EEEvRT_OT0_DpOT1_, symObjAddr: 0x2752C, symBinAddr: 0x100029664, symSize: 0x48 }
  - { offsetInCU: 0x5D93D, offset: 0x5D93D, size: 0x8, addend: 0x0, symName: __ZN8nlohmann16json_abi_v3_11_36detail13concat_lengthINSt7__cxx1112basic_stringIcSt11char_traitsIcESaIcEEEJcEEEmRKT_DpRKT0_, symObjAddr: 0x274F0, symBinAddr: 0x100029628, symSize: 0x3C }
  - { offsetInCU: 0x5D992, offset: 0x5D992, size: 0x8, addend: 0x0, symName: __ZN8nlohmann16json_abi_v3_11_36detail11concat_intoINSt7__cxx1112basic_stringIcSt11char_traitsIcESaIcEEERA23_KcJS8_ELi0EEEvRT_OT0_DpOT1_, symObjAddr: 0x274A8, symBinAddr: 0x1000295E0, symSize: 0x48 }
  - { offsetInCU: 0x5DA01, offset: 0x5DA01, size: 0x8, addend: 0x0, symName: __ZSt7forwardIRA23_KcEOT_RNSt16remove_referenceIS3_E4typeE, symObjAddr: 0x27494, symBinAddr: 0x1000295CC, symSize: 0x14 }
  - { offsetInCU: 0x5DA37, offset: 0x5DA37, size: 0x8, addend: 0x0, symName: __ZNSt8_Rb_treeINSt7__cxx1112basic_stringIcSt11char_traitsIcESaIcEEESt4pairIKS5_N8nlohmann16json_abi_v3_11_310basic_jsonISt3mapSt6vectorS5_bxydSaNS9_14adl_serializerESC_IhSaIhEEvEEESt10_Select1stISH_ESt4lessIvESaISH_EE22_M_emplace_hint_uniqueIJRKSt21piecewise_construct_tSt5tupleIJRS7_EESS_IJEEEEESt17_Rb_tree_iteratorISH_ESt23_Rb_tree_const_iteratorISH_EDpOT_, symObjAddr: 0x273BC, symBinAddr: 0x1000294F4, symSize: 0xD8 }
  - { offsetInCU: 0x5DB52, offset: 0x5DB52, size: 0x8, addend: 0x0, symName: __ZNSt5tupleIJRKNSt7__cxx1112basic_stringIcSt11char_traitsIcESaIcEEEEEC1ILb1ELb1EEES7_, symObjAddr: 0x27394, symBinAddr: 0x1000294CC, symSize: 0x28 }
  - { offsetInCU: 0x5DB35, offset: 0x5DB35, size: 0x8, addend: 0x0, symName: __ZN8nlohmann16json_abi_v3_11_314adl_serializerINSt7__cxx1112basic_stringIcSt11char_traitsIcESaIcEEEvE7to_jsonINS0_10basic_jsonISt3mapSt6vectorS7_bxydSaS1_SC_IhSaIhEEvEERS7_EEDTcmclL_ZNS0_7to_jsonEEfp_cl7forwardIT0_Efp0_EEcvv_EERT_OSH_, symObjAddr: 0x27350, symBinAddr: 0x100029488, symSize: 0x44 }
  - { offsetInCU: 0x5DB82, offset: 0x5DB82, size: 0x8, addend: 0x0, symName: __ZN8nlohmann16json_abi_v3_11_36detail6concatINSt7__cxx1112basic_stringIcSt11char_traitsIcESaIcEEEJRA25_KcPS9_EEET_DpOT0_, symObjAddr: 0x272CC, symBinAddr: 0x100029404, symSize: 0x84 }
  - { offsetInCU: 0x5DBE3, offset: 0x5DBE3, size: 0x8, addend: 0x0, symName: __ZNSt6vectorIN8nlohmann16json_abi_v3_11_310basic_jsonISt3mapS_NSt7__cxx1112basic_stringIcSt11char_traitsIcESaIcEEEbxydSaNS1_14adl_serializerES_IhSaIhEEvEESaISD_EE5eraseEN9__gnu_cxx17__normal_iteratorIPKSD_SF_EE, symObjAddr: 0x27278, symBinAddr: 0x1000293B0, symSize: 0x54 }
  - { offsetInCU: 0x5DD33, offset: 0x5DD33, size: 0x8, addend: 0x0, symName: __ZN9__gnu_cxx17__normal_iteratorIPKN8nlohmann16json_abi_v3_11_310basic_jsonISt3mapSt6vectorNSt7__cxx1112basic_stringIcSt11char_traitsIcESaIcEEEbxydSaNS2_14adl_serializerES5_IhSaIhEEvEES5_ISF_SaISF_EEEC1IPSF_vEERKNS0_IT_SJ_EE, symObjAddr: 0x27248, symBinAddr: 0x100029380, symSize: 0x30 }
  - { offsetInCU: 0x5DC8E, offset: 0x5DC8E, size: 0x8, addend: 0x0, symName: __ZNSt3mapINSt7__cxx1112basic_stringIcSt11char_traitsIcESaIcEEEN8nlohmann16json_abi_v3_11_310basic_jsonIS_St6vectorS5_bxydSaNS7_14adl_serializerES9_IhSaIhEEvEESt4lessIvESaISt4pairIKS5_SD_EEE5eraseB5cxx11ESt17_Rb_tree_iteratorISI_E, symObjAddr: 0x27224, symBinAddr: 0x10002935C, symSize: 0x24 }
  - { offsetInCU: 0x5DCC5, offset: 0x5DCC5, size: 0x8, addend: 0x0, symName: __ZN8nlohmann16json_abi_v3_11_36detail16invalid_iterator6createIPNS0_10basic_jsonISt3mapSt6vectorNSt7__cxx1112basic_stringIcSt11char_traitsIcESaIcEEEbxydSaNS0_14adl_serializerES6_IhSaIhEEvEELi0EEES2_iRKSC_T_, symObjAddr: 0x270E4, symBinAddr: 0x10002921C, symSize: 0x140 }
  - { offsetInCU: 0x5DDB9, offset: 0x5DDB9, size: 0x8, addend: 0x0, symName: __ZNK8nlohmann16json_abi_v3_11_36detail9iter_implINS0_10basic_jsonISt3mapSt6vectorNSt7__cxx1112basic_stringIcSt11char_traitsIcESaIcEEEbxydSaNS0_14adl_serializerES5_IhSaIhEEvEEEeqISG_LDnEEEbRKT_, symObjAddr: 0x26F2C, symBinAddr: 0x100029064, symSize: 0x1B8 }
  - { offsetInCU: 0x5DEAA, offset: 0x5DEAA, size: 0x8, addend: 0x0, symName: __ZN8nlohmann16json_abi_v3_11_36detail9iter_implINS0_10basic_jsonISt3mapSt6vectorNSt7__cxx1112basic_stringIcSt11char_traitsIcESaIcEEEbxydSaNS0_14adl_serializerES5_IhSaIhEEvEEE7set_endEv, symObjAddr: 0x26E64, symBinAddr: 0x100028F9C, symSize: 0xC8 }
  - { offsetInCU: 0x5DEE8, offset: 0x5DEE8, size: 0x8, addend: 0x0, symName: __ZN8nlohmann16json_abi_v3_11_36detail9iter_implINS0_10basic_jsonISt3mapSt6vectorNSt7__cxx1112basic_stringIcSt11char_traitsIcESaIcEEEbxydSaNS0_14adl_serializerES5_IhSaIhEEvEEE9set_beginEv, symObjAddr: 0x26D80, symBinAddr: 0x100028EB8, symSize: 0xE4 }
  - { offsetInCU: 0x5E00A, offset: 0x5E00A, size: 0x8, addend: 0x0, symName: __ZN8nlohmann16json_abi_v3_11_36detail9iter_implINS0_10basic_jsonISt3mapSt6vectorNSt7__cxx1112basic_stringIcSt11char_traitsIcESaIcEEEbxydSaNS0_14adl_serializerES5_IhSaIhEEvEEEC1EPSF_, symObjAddr: 0x26C80, symBinAddr: 0x100028DB8, symSize: 0x100 }
  - { offsetInCU: 0x5DFCB, offset: 0x5DFCB, size: 0x8, addend: 0x0, symName: __ZN9__gnu_cxxeqIPKPN8nlohmann16json_abi_v3_11_310basic_jsonISt3mapSt6vectorNSt7__cxx1112basic_stringIcSt11char_traitsIcESaIcEEEbxydSaNS2_14adl_serializerES5_IhSaIhEEvEES5_ISG_SaISG_EEEEbRKNS_17__normal_iteratorIT_T0_EESQ_, symObjAddr: 0x26C3C, symBinAddr: 0x100028D74, symSize: 0x44 }
  - { offsetInCU: 0x5E01C, offset: 0x5E01C, size: 0x8, addend: 0x0, symName: __ZNKSt6vectorIPN8nlohmann16json_abi_v3_11_310basic_jsonISt3mapS_NSt7__cxx1112basic_stringIcSt11char_traitsIcESaIcEEEbxydSaNS1_14adl_serializerES_IhSaIhEEvEESaISE_EE3endEv, symObjAddr: 0x26C14, symBinAddr: 0x100028D4C, symSize: 0x28 }
  - { offsetInCU: 0x5E046, offset: 0x5E046, size: 0x8, addend: 0x0, symName: __ZNKSt6vectorIPN8nlohmann16json_abi_v3_11_310basic_jsonISt3mapS_NSt7__cxx1112basic_stringIcSt11char_traitsIcESaIcEEEbxydSaNS1_14adl_serializerES_IhSaIhEEvEESaISE_EE5beginEv, symObjAddr: 0x26BF0, symBinAddr: 0x100028D28, symSize: 0x24 }
  - { offsetInCU: 0x5E073, offset: 0x5E073, size: 0x8, addend: 0x0, symName: __ZN8nlohmann16json_abi_v3_11_36detail11concat_intoINSt7__cxx1112basic_stringIcSt11char_traitsIcESaIcEEERA24_KcJS8_ELi0EEEvRT_OT0_DpOT1_, symObjAddr: 0x26BA8, symBinAddr: 0x100028CE0, symSize: 0x48 }
  - { offsetInCU: 0x5E0E2, offset: 0x5E0E2, size: 0x8, addend: 0x0, symName: __ZSt7forwardIRA24_KcEOT_RNSt16remove_referenceIS3_E4typeE, symObjAddr: 0x26B94, symBinAddr: 0x100028CCC, symSize: 0x14 }
  - { offsetInCU: 0x5E118, offset: 0x5E118, size: 0x8, addend: 0x0, symName: __ZNKSt3mapINSt7__cxx1112basic_stringIcSt11char_traitsIcESaIcEEEN8nlohmann16json_abi_v3_11_310basic_jsonIS_St6vectorS5_bxydSaNS7_14adl_serializerES9_IhSaIhEEvEESt4lessIvESaISt4pairIKS5_SD_EEE8max_sizeEv, symObjAddr: 0x26B78, symBinAddr: 0x100028CB0, symSize: 0x1C }
  - { offsetInCU: 0x5E142, offset: 0x5E142, size: 0x8, addend: 0x0, symName: __ZNK9__gnu_cxx17__normal_iteratorIPPN8nlohmann16json_abi_v3_11_310basic_jsonISt3mapSt6vectorNSt7__cxx1112basic_stringIcSt11char_traitsIcESaIcEEEbxydSaNS2_14adl_serializerES5_IhSaIhEEvEES5_ISG_SaISG_EEEdeEv, symObjAddr: 0x26B60, symBinAddr: 0x100028C98, symSize: 0x18 }
  - { offsetInCU: 0x5E16C, offset: 0x5E16C, size: 0x8, addend: 0x0, symName: __ZNK9__gnu_cxx17__normal_iteratorIPPN8nlohmann16json_abi_v3_11_310basic_jsonISt3mapSt6vectorNSt7__cxx1112basic_stringIcSt11char_traitsIcESaIcEEEbxydSaNS2_14adl_serializerES5_IhSaIhEEvEES5_ISG_SaISG_EEEmiEl, symObjAddr: 0x26B1C, symBinAddr: 0x100028C54, symSize: 0x44 }
  - { offsetInCU: 0x5E1A7, offset: 0x5E1A7, size: 0x8, addend: 0x0, symName: __ZNSt6vectorIPN8nlohmann16json_abi_v3_11_310basic_jsonISt3mapS_NSt7__cxx1112basic_stringIcSt11char_traitsIcESaIcEEEbxydSaNS1_14adl_serializerES_IhSaIhEEvEESaISE_EE3endEv, symObjAddr: 0x26AF4, symBinAddr: 0x100028C2C, symSize: 0x28 }
  - { offsetInCU: 0x5E1D1, offset: 0x5E1D1, size: 0x8, addend: 0x0, symName: __ZNSt6vectorIPN8nlohmann16json_abi_v3_11_310basic_jsonISt3mapS_NSt7__cxx1112basic_stringIcSt11char_traitsIcESaIcEEEbxydSaNS1_14adl_serializerES_IhSaIhEEvEESaISE_EE17_M_realloc_appendIJRKSE_EEEvDpOT_, symObjAddr: 0x26938, symBinAddr: 0x100028A70, symSize: 0x1BC }
  - { offsetInCU: 0x5E430, offset: 0x5E430, size: 0x8, addend: 0x0, symName: __ZZNSt6vectorIPN8nlohmann16json_abi_v3_11_310basic_jsonISt3mapS_NSt7__cxx1112basic_stringIcSt11char_traitsIcESaIcEEEbxydSaNS1_14adl_serializerES_IhSaIhEEvEESaISE_EE17_M_realloc_appendIJRKSE_EEEvDpOT_EN6_GuardC1EPSE_mRSF_, symObjAddr: 0x26894, symBinAddr: 0x1000289CC, symSize: 0x44 }
  - { offsetInCU: 0x5E46D, offset: 0x5E46D, size: 0x8, addend: 0x0, symName: __ZZNSt6vectorIPN8nlohmann16json_abi_v3_11_310basic_jsonISt3mapS_NSt7__cxx1112basic_stringIcSt11char_traitsIcESaIcEEEbxydSaNS1_14adl_serializerES_IhSaIhEEvEESaISE_EE17_M_realloc_appendIJRKSE_EEEvDpOT_EN6_GuardD1Ev, symObjAddr: 0x268D8, symBinAddr: 0x100028A10, symSize: 0x60 }
  - { offsetInCU: 0x5E5D0, offset: 0x5E5D0, size: 0x8, addend: 0x0, symName: __ZNSt4pairIbPN8nlohmann16json_abi_v3_11_310basic_jsonISt3mapSt6vectorNSt7__cxx1112basic_stringIcSt11char_traitsIcESaIcEEEbxydSaNS1_14adl_serializerES4_IhSaIhEEvEEEC1IbRSF_Lb1EEEOT_OT0_, symObjAddr: 0x2684C, symBinAddr: 0x100028984, symSize: 0x48 }
  - { offsetInCU: 0x5E661, offset: 0x5E661, size: 0x8, addend: 0x0, symName: __ZNSt4pairIbPN8nlohmann16json_abi_v3_11_310basic_jsonISt3mapSt6vectorNSt7__cxx1112basic_stringIcSt11char_traitsIcESaIcEEEbxydSaNS1_14adl_serializerES4_IhSaIhEEvEEEC1IbSF_Lb1EEEOT_OT0_, symObjAddr: 0x26804, symBinAddr: 0x10002893C, symSize: 0x48 }
  - { offsetInCU: 0x5E5FA, offset: 0x5E5FA, size: 0x8, addend: 0x0, symName: __ZSt7forwardIN8nlohmann16json_abi_v3_11_36detail7value_tEEOT_RNSt16remove_referenceIS4_E4typeE, symObjAddr: 0x267F0, symBinAddr: 0x100028928, symSize: 0x14 }
  - { offsetInCU: 0x5E72B, offset: 0x5E72B, size: 0x8, addend: 0x0, symName: __ZNSt4pairIbPN8nlohmann16json_abi_v3_11_310basic_jsonISt3mapSt6vectorNSt7__cxx1112basic_stringIcSt11char_traitsIcESaIcEEEbxydSaNS1_14adl_serializerES4_IhSaIhEEvEEEC1IbDnLb1EEEOT_OT0_, symObjAddr: 0x267AC, symBinAddr: 0x1000288E4, symSize: 0x44 }
  - { offsetInCU: 0x5E6C5, offset: 0x5E6C5, size: 0x8, addend: 0x0, symName: __ZSt7forwardIN8nlohmann16json_abi_v3_11_36detail13parse_event_tEEOT_RNSt16remove_referenceIS4_E4typeE, symObjAddr: 0x26798, symBinAddr: 0x1000288D0, symSize: 0x14 }
  - { offsetInCU: 0x5E6F7, offset: 0x5E6F7, size: 0x8, addend: 0x0, symName: __ZNSt12_Destroy_auxILb1EE9__destroyIPPN8nlohmann16json_abi_v3_11_310basic_jsonISt3mapSt6vectorNSt7__cxx1112basic_stringIcSt11char_traitsIcESaIcEEEbxydSaNS3_14adl_serializerES6_IhSaIhEEvEEEEvT_SJ_, symObjAddr: 0x26780, symBinAddr: 0x1000288B8, symSize: 0x18 }
  - { offsetInCU: 0x5E72B, offset: 0x5E72B, size: 0x8, addend: 0x0, symName: __ZNSt13_Bvector_baseISaIbEE8_S_nwordEm, symObjAddr: 0x26764, symBinAddr: 0x10002889C, symSize: 0x1C }
  - { offsetInCU: 0x5E755, offset: 0x5E755, size: 0x8, addend: 0x0, symName: __ZSt4copyISt13_Bit_iteratorS0_ET0_T_S2_S1_, symObjAddr: 0x266C4, symBinAddr: 0x1000287FC, symSize: 0xA0 }
  - { offsetInCU: 0x5E7B9, offset: 0x5E7B9, size: 0x8, addend: 0x0, symName: __ZNSt6vectorIbSaIbEE5beginEv, symObjAddr: 0x26674, symBinAddr: 0x1000287AC, symSize: 0x50 }
  - { offsetInCU: 0x5E7E3, offset: 0x5E7E3, size: 0x8, addend: 0x0, symName: __ZNSt6vectorIbSaIbEE15_M_copy_alignedESt19_Bit_const_iteratorS2_St13_Bit_iterator, symObjAddr: 0x265C0, symBinAddr: 0x1000286F8, symSize: 0xB4 }
  - { offsetInCU: 0x5E855, offset: 0x5E855, size: 0x8, addend: 0x0, symName: __ZNSt13_Bvector_baseISaIbEE11_M_allocateEm, symObjAddr: 0x26570, symBinAddr: 0x1000286A8, symSize: 0x50 }
  - { offsetInCU: 0x5E8CE, offset: 0x5E8CE, size: 0x8, addend: 0x0, symName: __ZNKSt6vectorIbSaIbEE12_M_check_lenEmPKc, symObjAddr: 0x264A0, symBinAddr: 0x1000285D8, symSize: 0xD0 }
  - { offsetInCU: 0x5E927, offset: 0x5E927, size: 0x8, addend: 0x0, symName: __ZSt13copy_backwardISt13_Bit_iteratorS0_ET0_T_S2_S1_, symObjAddr: 0x26400, symBinAddr: 0x100028538, symSize: 0xA0 }
  - { offsetInCU: 0x5E987, offset: 0x5E987, size: 0x8, addend: 0x0, symName: __ZSt11__addressofImEPT_RS0_, symObjAddr: 0x263EC, symBinAddr: 0x100028524, symSize: 0x14 }
  - { offsetInCU: 0x5E9BD, offset: 0x5E9BD, size: 0x8, addend: 0x0, symName: __ZNSt13_Bvector_baseISaIbEE18_Bvector_impl_data8_M_resetEv, symObjAddr: 0x263AC, symBinAddr: 0x1000284E4, symSize: 0x40 }
  - { offsetInCU: 0x5EA78, offset: 0x5EA78, size: 0x8, addend: 0x0, symName: __ZNSt12_Vector_baseIcSaIcEE17_Vector_impl_dataC2Ev, symObjAddr: 0x26380, symBinAddr: 0x1000284B8, symSize: 0x2C }
  - { offsetInCU: 0x5EA6B, offset: 0x5EA6B, size: 0x8, addend: 0x0, symName: __ZN8nlohmann16json_abi_v3_11_36detail11concat_intoINSt7__cxx1112basic_stringIcSt11char_traitsIcESaIcEEERA3_KcJELi0EEEvRT_OT0_DpOT1_, symObjAddr: 0x26348, symBinAddr: 0x100028480, symSize: 0x38 }
  - { offsetInCU: 0x5EAD9, offset: 0x5EAD9, size: 0x8, addend: 0x0, symName: __ZN8nlohmann16json_abi_v3_11_36detail8to_charsIdEEPcS3_PKcT_, symObjAddr: 0x260C8, symBinAddr: 0x100028200, symSize: 0x280 }
  - { offsetInCU: 0x5EBFF, offset: 0x5EBFF, size: 0x8, addend: 0x0, symName: __ZN9__gnu_cxx17__normal_iteratorIPhSt6vectorIhSaIhEEEC1ERKS1_, symObjAddr: 0x260A0, symBinAddr: 0x1000281D8, symSize: 0x28 }
  - { offsetInCU: 0x5EBF0, offset: 0x5EBF0, size: 0x8, addend: 0x0, symName: __ZSt9__advanceISt23_Rb_tree_const_iteratorISt4pairIKNSt7__cxx1112basic_stringIcSt11char_traitsIcESaIcEEEN8nlohmann16json_abi_v3_11_310basic_jsonISt3mapSt6vectorS7_bxydSaNSA_14adl_serializerESD_IhSaIhEEvEEEElEvRT_T0_St26bidirectional_iterator_tag, symObjAddr: 0x26014, symBinAddr: 0x10002814C, symSize: 0x8C }
  - { offsetInCU: 0x5EC65, offset: 0x5EC65, size: 0x8, addend: 0x0, symName: __ZNK9__gnu_cxx16__aligned_membufISt4pairIKNSt7__cxx1112basic_stringIcSt11char_traitsIcESaIcEEEN8nlohmann16json_abi_v3_11_310basic_jsonISt3mapSt6vectorS7_bxydSaNSA_14adl_serializerESD_IhSaIhEEvEEEE6_M_ptrEv, symObjAddr: 0x25FF8, symBinAddr: 0x100028130, symSize: 0x1C }
  - { offsetInCU: 0x5EC92, offset: 0x5EC92, size: 0x8, addend: 0x0, symName: __ZN8nlohmann16json_abi_v3_11_36detail11concat_intoINSt7__cxx1112basic_stringIcSt11char_traitsIcESaIcEEERA39_KcJS8_ELi0EEEvRT_OT0_DpOT1_, symObjAddr: 0x25FB0, symBinAddr: 0x1000280E8, symSize: 0x48 }
  - { offsetInCU: 0x5ED01, offset: 0x5ED01, size: 0x8, addend: 0x0, symName: __ZSt7forwardIRA39_KcEOT_RNSt16remove_referenceIS3_E4typeE, symObjAddr: 0x25F9C, symBinAddr: 0x1000280D4, symSize: 0x14 }
  - { offsetInCU: 0x5ED3A, offset: 0x5ED3A, size: 0x8, addend: 0x0, symName: __ZN8nlohmann16json_abi_v3_11_36detail11concat_intoINSt7__cxx1112basic_stringIcSt11char_traitsIcESaIcEEERA29_KcJS8_RA5_S9_S8_ELi0EEEvRT_OT0_DpOT1_, symObjAddr: 0x25F24, symBinAddr: 0x10002805C, symSize: 0x78 }
  - { offsetInCU: 0x5EDC5, offset: 0x5EDC5, size: 0x8, addend: 0x0, symName: __ZSt7forwardIRA5_KcEOT_RNSt16remove_referenceIS3_E4typeE, symObjAddr: 0x25F10, symBinAddr: 0x100028048, symSize: 0x14 }
  - { offsetInCU: 0x5EDF7, offset: 0x5EDF7, size: 0x8, addend: 0x0, symName: __ZN8nlohmann16json_abi_v3_11_36detail13concat_lengthIJNSt7__cxx1112basic_stringIcSt11char_traitsIcESaIcEEEA5_cS8_EEEmPKcDpRKT_, symObjAddr: 0x25EC8, symBinAddr: 0x100028000, symSize: 0x48 }
  - { offsetInCU: 0x5EF74, offset: 0x5EF74, size: 0x8, addend: 0x0, symName: __ZNSt23_Rb_tree_const_iteratorISt4pairIKNSt7__cxx1112basic_stringIcSt11char_traitsIcESaIcEEEN8nlohmann16json_abi_v3_11_310basic_jsonISt3mapSt6vectorS6_bxydSaNS9_14adl_serializerESC_IhSaIhEEvEEEEC1EPKSt18_Rb_tree_node_base, symObjAddr: 0x25EA4, symBinAddr: 0x100027FDC, symSize: 0x24 }
  - { offsetInCU: 0x5EEC9, offset: 0x5EEC9, size: 0x8, addend: 0x0, symName: __ZNKSt12__shared_ptrIN8nlohmann16json_abi_v3_11_36detail23output_adapter_protocolIcEELN9__gnu_cxx12_Lock_policyE2EE3getEv, symObjAddr: 0x25E8C, symBinAddr: 0x100027FC4, symSize: 0x18 }
  - { offsetInCU: 0x5F00E, offset: 0x5F00E, size: 0x8, addend: 0x0, symName: __ZNSt12__shared_ptrIN8nlohmann16json_abi_v3_11_36detail21output_string_adapterIcNSt7__cxx1112basic_stringIcSt11char_traitsIcESaIcEEEEELN9__gnu_cxx12_Lock_policyE2EEC2ISaIvEJRS9_EEESt20_Sp_alloc_shared_tagIT_EDpOT0_, symObjAddr: 0x25E20, symBinAddr: 0x100027F58, symSize: 0x6C }
  - { offsetInCU: 0x5EF8E, offset: 0x5EF8E, size: 0x8, addend: 0x0, symName: __ZNSt15__uniq_ptr_implIN8nlohmann16json_abi_v3_11_327byte_container_with_subtypeISt6vectorIhSaIhEEEEZNS1_10basic_jsonISt3mapS3_NSt7__cxx1112basic_stringIcSt11char_traitsIcESaIcEEEbxydSaNS1_14adl_serializerES5_vE6createIS6_JRKS6_EEEPT_DpOT0_EUlPS6_E_E7releaseEv, symObjAddr: 0x25DEC, symBinAddr: 0x100027F24, symSize: 0x34 }
  - { offsetInCU: 0x5EFC8, offset: 0x5EFC8, size: 0x8, addend: 0x0, symName: __ZNKSt10unique_ptrIN8nlohmann16json_abi_v3_11_327byte_container_with_subtypeISt6vectorIhSaIhEEEEZNS1_10basic_jsonISt3mapS3_NSt7__cxx1112basic_stringIcSt11char_traitsIcESaIcEEEbxydSaNS1_14adl_serializerES5_vE6createIS6_JRKS6_EEEPT_DpOT0_EUlPS6_E_EcvbEv, symObjAddr: 0x25DC4, symBinAddr: 0x100027EFC, symSize: 0x28 }
  - { offsetInCU: 0x5F0AA, offset: 0x5F0AA, size: 0x8, addend: 0x0, symName: __ZN8nlohmann16json_abi_v3_11_327byte_container_with_subtypeISt6vectorIhSaIhEEEC1ERKS5_, symObjAddr: 0x25D7C, symBinAddr: 0x100027EB4, symSize: 0x48 }
  - { offsetInCU: 0x5F086, offset: 0x5F086, size: 0x8, addend: 0x0, symName: __ZNKSt15__uniq_ptr_implIN8nlohmann16json_abi_v3_11_327byte_container_with_subtypeISt6vectorIhSaIhEEEEZNS1_10basic_jsonISt3mapS3_NSt7__cxx1112basic_stringIcSt11char_traitsIcESaIcEEEbxydSaNS1_14adl_serializerES5_vE6createIS6_JRKS6_EEEPT_DpOT0_EUlPS6_E_E6_M_ptrEv, symObjAddr: 0x25D5C, symBinAddr: 0x100027E94, symSize: 0x20 }
  - { offsetInCU: 0x5F0B0, offset: 0x5F0B0, size: 0x8, addend: 0x0, symName: __ZNSt10unique_ptrIN8nlohmann16json_abi_v3_11_327byte_container_with_subtypeISt6vectorIhSaIhEEEEZNS1_10basic_jsonISt3mapS3_NSt7__cxx1112basic_stringIcSt11char_traitsIcESaIcEEEbxydSaNS1_14adl_serializerES5_vE6createIS6_JRKS6_EEEPT_DpOT0_EUlPS6_E_E11get_deleterEv, symObjAddr: 0x25D40, symBinAddr: 0x100027E78, symSize: 0x1C }
  - { offsetInCU: 0x5F0DA, offset: 0x5F0DA, size: 0x8, addend: 0x0, symName: __ZNSt15__uniq_ptr_implIN8nlohmann16json_abi_v3_11_327byte_container_with_subtypeISt6vectorIhSaIhEEEEZNS1_10basic_jsonISt3mapS3_NSt7__cxx1112basic_stringIcSt11char_traitsIcESaIcEEEbxydSaNS1_14adl_serializerES5_vE6createIS6_JRKS6_EEEPT_DpOT0_EUlPS6_E_E6_M_ptrEv, symObjAddr: 0x25D24, symBinAddr: 0x100027E5C, symSize: 0x1C }
  - { offsetInCU: 0x5F249, offset: 0x5F249, size: 0x8, addend: 0x0, symName: __ZNSt15__uniq_ptr_implIN8nlohmann16json_abi_v3_11_327byte_container_with_subtypeISt6vectorIhSaIhEEEEZNS1_10basic_jsonISt3mapS3_NSt7__cxx1112basic_stringIcSt11char_traitsIcESaIcEEEbxydSaNS1_14adl_serializerES5_vE6createIS6_JRKS6_EEEPT_DpOT0_EUlPS6_E_EC2IRKSQ_EESP_OSK_, symObjAddr: 0x25CD8, symBinAddr: 0x100027E10, symSize: 0x4C }
  - { offsetInCU: 0x5F182, offset: 0x5F182, size: 0x8, addend: 0x0, symName: __ZNSt15__uniq_ptr_implINSt7__cxx1112basic_stringIcSt11char_traitsIcESaIcEEEZN8nlohmann16json_abi_v3_11_310basic_jsonISt3mapSt6vectorS5_bxydSaNS7_14adl_serializerESA_IhSaIhEEvE6createIS5_JRKS5_EEEPT_DpOT0_EUlPS5_E_E7releaseEv, symObjAddr: 0x25CA4, symBinAddr: 0x100027DDC, symSize: 0x34 }
  - { offsetInCU: 0x5F1BC, offset: 0x5F1BC, size: 0x8, addend: 0x0, symName: __ZNKSt10unique_ptrINSt7__cxx1112basic_stringIcSt11char_traitsIcESaIcEEEZN8nlohmann16json_abi_v3_11_310basic_jsonISt3mapSt6vectorS5_bxydSaNS7_14adl_serializerESA_IhSaIhEEvE6createIS5_JRKS5_EEEPT_DpOT0_EUlPS5_E_EcvbEv, symObjAddr: 0x25C7C, symBinAddr: 0x100027DB4, symSize: 0x28 }
  - { offsetInCU: 0x5F1E6, offset: 0x5F1E6, size: 0x8, addend: 0x0, symName: __ZNKSt15__uniq_ptr_implINSt7__cxx1112basic_stringIcSt11char_traitsIcESaIcEEEZN8nlohmann16json_abi_v3_11_310basic_jsonISt3mapSt6vectorS5_bxydSaNS7_14adl_serializerESA_IhSaIhEEvE6createIS5_JRKS5_EEEPT_DpOT0_EUlPS5_E_E6_M_ptrEv, symObjAddr: 0x25C5C, symBinAddr: 0x100027D94, symSize: 0x20 }
  - { offsetInCU: 0x5F210, offset: 0x5F210, size: 0x8, addend: 0x0, symName: __ZNSt10unique_ptrINSt7__cxx1112basic_stringIcSt11char_traitsIcESaIcEEEZN8nlohmann16json_abi_v3_11_310basic_jsonISt3mapSt6vectorS5_bxydSaNS7_14adl_serializerESA_IhSaIhEEvE6createIS5_JRKS5_EEEPT_DpOT0_EUlPS5_E_E11get_deleterEv, symObjAddr: 0x25C40, symBinAddr: 0x100027D78, symSize: 0x1C }
  - { offsetInCU: 0x5F23A, offset: 0x5F23A, size: 0x8, addend: 0x0, symName: __ZNSt15__uniq_ptr_implINSt7__cxx1112basic_stringIcSt11char_traitsIcESaIcEEEZN8nlohmann16json_abi_v3_11_310basic_jsonISt3mapSt6vectorS5_bxydSaNS7_14adl_serializerESA_IhSaIhEEvE6createIS5_JRKS5_EEEPT_DpOT0_EUlPS5_E_E6_M_ptrEv, symObjAddr: 0x25C24, symBinAddr: 0x100027D5C, symSize: 0x1C }
  - { offsetInCU: 0x5F385, offset: 0x5F385, size: 0x8, addend: 0x0, symName: __ZNSt15__uniq_ptr_implINSt7__cxx1112basic_stringIcSt11char_traitsIcESaIcEEEZN8nlohmann16json_abi_v3_11_310basic_jsonISt3mapSt6vectorS5_bxydSaNS7_14adl_serializerESA_IhSaIhEEvE6createIS5_JRKS5_EEEPT_DpOT0_EUlPS5_E_EC2IRKSO_EESN_OSI_, symObjAddr: 0x25BD8, symBinAddr: 0x100027D10, symSize: 0x4C }
  - { offsetInCU: 0x5F2E2, offset: 0x5F2E2, size: 0x8, addend: 0x0, symName: __ZNSt15__uniq_ptr_implISt6vectorIN8nlohmann16json_abi_v3_11_310basic_jsonISt3mapS0_NSt7__cxx1112basic_stringIcSt11char_traitsIcESaIcEEEbxydSaNS2_14adl_serializerES0_IhSaIhEEvEESaISE_EEZNSE_6createISG_JRKSG_EEEPT_DpOT0_EUlPSG_E_E7releaseEv, symObjAddr: 0x25BA4, symBinAddr: 0x100027CDC, symSize: 0x34 }
  - { offsetInCU: 0x5F31C, offset: 0x5F31C, size: 0x8, addend: 0x0, symName: __ZNKSt10unique_ptrISt6vectorIN8nlohmann16json_abi_v3_11_310basic_jsonISt3mapS0_NSt7__cxx1112basic_stringIcSt11char_traitsIcESaIcEEEbxydSaNS2_14adl_serializerES0_IhSaIhEEvEESaISE_EEZNSE_6createISG_JRKSG_EEEPT_DpOT0_EUlPSG_E_EcvbEv, symObjAddr: 0x25B7C, symBinAddr: 0x100027CB4, symSize: 0x28 }
  - { offsetInCU: 0x5F388, offset: 0x5F388, size: 0x8, addend: 0x0, symName: __ZNKSt15__uniq_ptr_implISt6vectorIN8nlohmann16json_abi_v3_11_310basic_jsonISt3mapS0_NSt7__cxx1112basic_stringIcSt11char_traitsIcESaIcEEEbxydSaNS2_14adl_serializerES0_IhSaIhEEvEESaISE_EEZNSE_6createISG_JRKSG_EEEPT_DpOT0_EUlPSG_E_E6_M_ptrEv, symObjAddr: 0x25B5C, symBinAddr: 0x100027C94, symSize: 0x20 }
  - { offsetInCU: 0x5F3B2, offset: 0x5F3B2, size: 0x8, addend: 0x0, symName: __ZNSt10unique_ptrISt6vectorIN8nlohmann16json_abi_v3_11_310basic_jsonISt3mapS0_NSt7__cxx1112basic_stringIcSt11char_traitsIcESaIcEEEbxydSaNS2_14adl_serializerES0_IhSaIhEEvEESaISE_EEZNSE_6createISG_JRKSG_EEEPT_DpOT0_EUlPSG_E_E11get_deleterEv, symObjAddr: 0x25B40, symBinAddr: 0x100027C78, symSize: 0x1C }
  - { offsetInCU: 0x5F3DC, offset: 0x5F3DC, size: 0x8, addend: 0x0, symName: __ZNSt15__uniq_ptr_implISt6vectorIN8nlohmann16json_abi_v3_11_310basic_jsonISt3mapS0_NSt7__cxx1112basic_stringIcSt11char_traitsIcESaIcEEEbxydSaNS2_14adl_serializerES0_IhSaIhEEvEESaISE_EEZNSE_6createISG_JRKSG_EEEPT_DpOT0_EUlPSG_E_E6_M_ptrEv, symObjAddr: 0x25B24, symBinAddr: 0x100027C5C, symSize: 0x1C }
  - { offsetInCU: 0x5F535, offset: 0x5F535, size: 0x8, addend: 0x0, symName: __ZNSt15__uniq_ptr_implISt6vectorIN8nlohmann16json_abi_v3_11_310basic_jsonISt3mapS0_NSt7__cxx1112basic_stringIcSt11char_traitsIcESaIcEEEbxydSaNS2_14adl_serializerES0_IhSaIhEEvEESaISE_EEZNSE_6createISG_JRKSG_EEEPT_DpOT0_EUlPSG_E_EC2IRKSQ_EESP_OSK_, symObjAddr: 0x25AD8, symBinAddr: 0x100027C10, symSize: 0x4C }
  - { offsetInCU: 0x5F484, offset: 0x5F484, size: 0x8, addend: 0x0, symName: __ZNSt15__uniq_ptr_implISt3mapINSt7__cxx1112basic_stringIcSt11char_traitsIcESaIcEEEN8nlohmann16json_abi_v3_11_310basic_jsonIS0_St6vectorS6_bxydSaNS8_14adl_serializerESA_IhSaIhEEvEESt4lessIvESaISt4pairIKS6_SE_EEEZNSE_6createISL_JRKSL_EEEPT_DpOT0_EUlPSL_E_E7releaseEv, symObjAddr: 0x25AA4, symBinAddr: 0x100027BDC, symSize: 0x34 }
  - { offsetInCU: 0x5F4BE, offset: 0x5F4BE, size: 0x8, addend: 0x0, symName: __ZNKSt10unique_ptrISt3mapINSt7__cxx1112basic_stringIcSt11char_traitsIcESaIcEEEN8nlohmann16json_abi_v3_11_310basic_jsonIS0_St6vectorS6_bxydSaNS8_14adl_serializerESA_IhSaIhEEvEESt4lessIvESaISt4pairIKS6_SE_EEEZNSE_6createISL_JRKSL_EEEPT_DpOT0_EUlPSL_E_EcvbEv, symObjAddr: 0x25A7C, symBinAddr: 0x100027BB4, symSize: 0x28 }
  - { offsetInCU: 0x5F60B, offset: 0x5F60B, size: 0x8, addend: 0x0, symName: __ZNSt3mapINSt7__cxx1112basic_stringIcSt11char_traitsIcESaIcEEEN8nlohmann16json_abi_v3_11_310basic_jsonIS_St6vectorS5_bxydSaNS7_14adl_serializerES9_IhSaIhEEvEESt4lessIvESaISt4pairIKS5_SD_EEEC1ERKSK_, symObjAddr: 0x25A54, symBinAddr: 0x100027B8C, symSize: 0x28 }
  - { offsetInCU: 0x5F578, offset: 0x5F578, size: 0x8, addend: 0x0, symName: __ZNKSt15__uniq_ptr_implISt3mapINSt7__cxx1112basic_stringIcSt11char_traitsIcESaIcEEEN8nlohmann16json_abi_v3_11_310basic_jsonIS0_St6vectorS6_bxydSaNS8_14adl_serializerESA_IhSaIhEEvEESt4lessIvESaISt4pairIKS6_SE_EEEZNSE_6createISL_JRKSL_EEEPT_DpOT0_EUlPSL_E_E6_M_ptrEv, symObjAddr: 0x25A34, symBinAddr: 0x100027B6C, symSize: 0x20 }
  - { offsetInCU: 0x5F5A2, offset: 0x5F5A2, size: 0x8, addend: 0x0, symName: __ZNSt10unique_ptrISt3mapINSt7__cxx1112basic_stringIcSt11char_traitsIcESaIcEEEN8nlohmann16json_abi_v3_11_310basic_jsonIS0_St6vectorS6_bxydSaNS8_14adl_serializerESA_IhSaIhEEvEESt4lessIvESaISt4pairIKS6_SE_EEEZNSE_6createISL_JRKSL_EEEPT_DpOT0_EUlPSL_E_E11get_deleterEv, symObjAddr: 0x25A18, symBinAddr: 0x100027B50, symSize: 0x1C }
  - { offsetInCU: 0x5F5CC, offset: 0x5F5CC, size: 0x8, addend: 0x0, symName: __ZNSt15__uniq_ptr_implISt3mapINSt7__cxx1112basic_stringIcSt11char_traitsIcESaIcEEEN8nlohmann16json_abi_v3_11_310basic_jsonIS0_St6vectorS6_bxydSaNS8_14adl_serializerESA_IhSaIhEEvEESt4lessIvESaISt4pairIKS6_SE_EEEZNSE_6createISL_JRKSL_EEEPT_DpOT0_EUlPSL_E_E6_M_ptrEv, symObjAddr: 0x259FC, symBinAddr: 0x100027B34, symSize: 0x1C }
  - { offsetInCU: 0x5F73F, offset: 0x5F73F, size: 0x8, addend: 0x0, symName: __ZNSt15__uniq_ptr_implISt3mapINSt7__cxx1112basic_stringIcSt11char_traitsIcESaIcEEEN8nlohmann16json_abi_v3_11_310basic_jsonIS0_St6vectorS6_bxydSaNS8_14adl_serializerESA_IhSaIhEEvEESt4lessIvESaISt4pairIKS6_SE_EEEZNSE_6createISL_JRKSL_EEEPT_DpOT0_EUlPSL_E_EC2IRKSV_EESU_OSP_, symObjAddr: 0x259B0, symBinAddr: 0x100027AE8, symSize: 0x4C }
  - { offsetInCU: 0x5F670, offset: 0x5F670, size: 0x8, addend: 0x0, symName: __ZSt25__unguarded_linear_insertIN9__gnu_cxx17__normal_iteratorIPSt4pairIiS2_IiiEESt6vectorIS4_SaIS4_EEEENS0_5__ops14_Val_less_iterEEvT_T0_, symObjAddr: 0x258EC, symBinAddr: 0x100027A24, symSize: 0xC4 }
  - { offsetInCU: 0x5F6E3, offset: 0x5F6E3, size: 0x8, addend: 0x0, symName: __ZNSt4pairIiS_IiiEEaSEOS1_, symObjAddr: 0x258A0, symBinAddr: 0x1000279D8, symSize: 0x4C }
  - { offsetInCU: 0x5F71A, offset: 0x5F71A, size: 0x8, addend: 0x0, symName: __ZSt13move_backwardIN9__gnu_cxx17__normal_iteratorIPSt4pairIiS2_IiiEESt6vectorIS4_SaIS4_EEEES9_ET0_T_SB_SA_, symObjAddr: 0x25858, symBinAddr: 0x100027990, symSize: 0x48 }
  - { offsetInCU: 0x5F788, offset: 0x5F788, size: 0x8, addend: 0x0, symName: __ZNK9__gnu_cxx5__ops15_Iter_less_iterclINS_17__normal_iteratorIPSt4pairIiS4_IiiEESt6vectorIS6_SaIS6_EEEESB_EEbT_T0_, symObjAddr: 0x25814, symBinAddr: 0x10002794C, symSize: 0x44 }
  - { offsetInCU: 0x5F7E4, offset: 0x5F7E4, size: 0x8, addend: 0x0, symName: __ZN9__gnu_cxx17__normal_iteratorIPSt4pairIiS1_IiiEESt6vectorIS3_SaIS3_EEEppEv, symObjAddr: 0x257EC, symBinAddr: 0x100027924, symSize: 0x28 }
  - { offsetInCU: 0x5F80A, offset: 0x5F80A, size: 0x8, addend: 0x0, symName: __ZN9__gnu_cxxeqIPSt4pairIiS1_IiiEESt6vectorIS3_SaIS3_EEEEbRKNS_17__normal_iteratorIT_T0_EESD_, symObjAddr: 0x257A8, symBinAddr: 0x1000278E0, symSize: 0x44 }
  - { offsetInCU: 0x5F857, offset: 0x5F857, size: 0x8, addend: 0x0, symName: __ZSt21__unguarded_partitionIN9__gnu_cxx17__normal_iteratorIPSt4pairIiS2_IiiEESt6vectorIS4_SaIS4_EEEENS0_5__ops15_Iter_less_iterEET_SC_SC_SC_T0_, symObjAddr: 0x256F0, symBinAddr: 0x100027828, symSize: 0xB8 }
  - { offsetInCU: 0x5F8C6, offset: 0x5F8C6, size: 0x8, addend: 0x0, symName: __ZSt22__move_median_to_firstIN9__gnu_cxx17__normal_iteratorIPSt4pairIiS2_IiiEESt6vectorIS4_SaIS4_EEEENS0_5__ops15_Iter_less_iterEEvT_SC_SC_SC_T0_, symObjAddr: 0x255E0, symBinAddr: 0x100027718, symSize: 0x110 }
  - { offsetInCU: 0x5F941, offset: 0x5F941, size: 0x8, addend: 0x0, symName: __ZSt11__sort_heapIN9__gnu_cxx17__normal_iteratorIPSt4pairIiS2_IiiEESt6vectorIS4_SaIS4_EEEENS0_5__ops15_Iter_less_iterEEvT_SC_RT0_, symObjAddr: 0x25578, symBinAddr: 0x1000276B0, symSize: 0x68 }
  - { offsetInCU: 0x5F99F, offset: 0x5F99F, size: 0x8, addend: 0x0, symName: __ZSt13__heap_selectIN9__gnu_cxx17__normal_iteratorIPSt4pairIiS2_IiiEESt6vectorIS4_SaIS4_EEEENS0_5__ops15_Iter_less_iterEEvT_SC_SC_T0_, symObjAddr: 0x254DC, symBinAddr: 0x100027614, symSize: 0x9C }
  - { offsetInCU: 0x5FA32, offset: 0x5FA32, size: 0x8, addend: 0x0, symName: __ZSt12__relocate_aIPSt4pairIiS0_IiiEES3_SaIS2_EET0_T_S6_S5_RT1_, symObjAddr: 0x25480, symBinAddr: 0x1000275B8, symSize: 0x5C }
  - { offsetInCU: 0x5FAD2, offset: 0x5FAD2, size: 0x8, addend: 0x0, symName: __ZNKSt6vectorISt4pairIiS0_IiiEESaIS2_EE4sizeEv, symObjAddr: 0x2544C, symBinAddr: 0x100027584, symSize: 0x34 }
  - { offsetInCU: 0x5FAFC, offset: 0x5FAFC, size: 0x8, addend: 0x0, symName: __ZNKSt6vectorISt4pairIiS0_IiiEESaIS2_EE8max_sizeEv, symObjAddr: 0x2542C, symBinAddr: 0x100027564, symSize: 0x20 }
  - { offsetInCU: 0x5FB26, offset: 0x5FB26, size: 0x8, addend: 0x0, symName: __ZN8nlohmann16json_abi_v3_11_36detail5lexerINS0_10basic_jsonISt3mapSt6vectorNSt7__cxx1112basic_stringIcSt11char_traitsIcESaIcEEEbxydSaNS0_14adl_serializerES5_IhSaIhEEvEENS1_22iterator_input_adapterIN9__gnu_cxx17__normal_iteratorIPKcSB_EEEEE11scan_numberEv, symObjAddr: 0x24E00, symBinAddr: 0x100026F38, symSize: 0x62C }
  - { offsetInCU: 0x5FC70, offset: 0x5FC70, size: 0x8, addend: 0x0, symName: __ZN8nlohmann16json_abi_v3_11_36detail5lexerINS0_10basic_jsonISt3mapSt6vectorNSt7__cxx1112basic_stringIcSt11char_traitsIcESaIcEEEbxydSaNS0_14adl_serializerES5_IhSaIhEEvEENS1_22iterator_input_adapterIN9__gnu_cxx17__normal_iteratorIPKcSB_EEEEE11scan_stringEv, symObjAddr: 0x24030, symBinAddr: 0x100026168, symSize: 0xDD0 }
  - { offsetInCU: 0x5FCFB, offset: 0x5FCFB, size: 0x8, addend: 0x0, symName: __ZN8nlohmann16json_abi_v3_11_36detail5lexerINS0_10basic_jsonISt3mapSt6vectorNSt7__cxx1112basic_stringIcSt11char_traitsIcESaIcEEEbxydSaNS0_14adl_serializerES5_IhSaIhEEvEENS1_22iterator_input_adapterIN9__gnu_cxx17__normal_iteratorIPKcSB_EEEEE12scan_literalESK_mNS1_10lexer_baseISF_E10token_typeE, symObjAddr: 0x23F2C, symBinAddr: 0x100026064, symSize: 0x104 }
  - { offsetInCU: 0x5FDA3, offset: 0x5FDA3, size: 0x8, addend: 0x0, symName: __ZN8nlohmann16json_abi_v3_11_36detail5lexerINS0_10basic_jsonISt3mapSt6vectorNSt7__cxx1112basic_stringIcSt11char_traitsIcESaIcEEEbxydSaNS0_14adl_serializerES5_IhSaIhEEvEENS1_22iterator_input_adapterIN9__gnu_cxx17__normal_iteratorIPKcSB_EEEEE12scan_commentEv, symObjAddr: 0x23E2C, symBinAddr: 0x100025F64, symSize: 0x100 }
  - { offsetInCU: 0x5FDCD, offset: 0x5FDCD, size: 0x8, addend: 0x0, symName: __ZN8nlohmann16json_abi_v3_11_36detail5lexerINS0_10basic_jsonISt3mapSt6vectorNSt7__cxx1112basic_stringIcSt11char_traitsIcESaIcEEEbxydSaNS0_14adl_serializerES5_IhSaIhEEvEENS1_22iterator_input_adapterIN9__gnu_cxx17__normal_iteratorIPKcSB_EEEEE15skip_whitespaceEv, symObjAddr: 0x23DC8, symBinAddr: 0x100025F00, symSize: 0x64 }
  - { offsetInCU: 0x5FDF7, offset: 0x5FDF7, size: 0x8, addend: 0x0, symName: __ZN8nlohmann16json_abi_v3_11_36detail5lexerINS0_10basic_jsonISt3mapSt6vectorNSt7__cxx1112basic_stringIcSt11char_traitsIcESaIcEEEbxydSaNS0_14adl_serializerES5_IhSaIhEEvEENS1_22iterator_input_adapterIN9__gnu_cxx17__normal_iteratorIPKcSB_EEEEE8skip_bomEv, symObjAddr: 0x23D58, symBinAddr: 0x100025E90, symSize: 0x70 }
  - { offsetInCU: 0x5FE1D, offset: 0x5FE1D, size: 0x8, addend: 0x0, symName: __ZN8nlohmann16json_abi_v3_11_36detail5lexerINS0_10basic_jsonISt3mapSt6vectorNSt7__cxx1112basic_stringIcSt11char_traitsIcESaIcEEEbxydSaNS0_14adl_serializerES5_IhSaIhEEvEENS1_22iterator_input_adapterIN9__gnu_cxx17__normal_iteratorIPKcSB_EEEEE17get_decimal_pointEv, symObjAddr: 0x23CE0, symBinAddr: 0x100025E18, symSize: 0x78 }
  - { offsetInCU: 0x5FE6E, offset: 0x5FE6E, size: 0x8, addend: 0x0, symName: __ZN8nlohmann16json_abi_v3_11_36detail30iterator_input_adapter_factoryIN9__gnu_cxx17__normal_iteratorIPKcNSt7__cxx1112basic_stringIcSt11char_traitsIcESaIcEEEEEvE6createESD_SD_, symObjAddr: 0x23C94, symBinAddr: 0x100025DCC, symSize: 0x4C }
  - { offsetInCU: 0x5FEB0, offset: 0x5FEB0, size: 0x8, addend: 0x0, symName: __ZNSt19istreambuf_iteratorIcSt11char_traitsIcEE9_S_is_eofEi, symObjAddr: 0x23C6C, symBinAddr: 0x100025DA4, symSize: 0x28 }
  - { offsetInCU: 0x5FEED, offset: 0x5FEED, size: 0x8, addend: 0x0, symName: __ZNKSt19istreambuf_iteratorIcSt11char_traitsIcEE9_M_at_eofEv, symObjAddr: 0x23C4C, symBinAddr: 0x100025D84, symSize: 0x20 }
  - { offsetInCU: 0x5FF13, offset: 0x5FF13, size: 0x8, addend: 0x0, symName: __ZNSt20__uninitialized_copyILb1EE13__uninit_copyIN9__gnu_cxx17__normal_iteratorIPiSt6vectorIiSaIiEEEES4_EET0_T_SA_S9_, symObjAddr: 0x23C20, symBinAddr: 0x100025D58, symSize: 0x2C }
  - { offsetInCU: 0x5FF72, offset: 0x5FF72, size: 0x8, addend: 0x0, symName: __ZN9__gnu_cxx17__normal_iteratorIPiSt6vectorIiSaIiEEEpLEl, symObjAddr: 0x23BEC, symBinAddr: 0x100025D24, symSize: 0x34 }
  - { offsetInCU: 0x5FFA9, offset: 0x5FFA9, size: 0x8, addend: 0x0, symName: __ZSt12__niter_wrapIPiET_RKS1_S1_, symObjAddr: 0x23BD4, symBinAddr: 0x100025D0C, symSize: 0x18 }
  - { offsetInCU: 0x5FFE5, offset: 0x5FFE5, size: 0x8, addend: 0x0, symName: __ZSt23__copy_move_backward_a1ILb1EPiS0_ET1_T0_S2_S1_, symObjAddr: 0x23BA8, symBinAddr: 0x100025CE0, symSize: 0x2C }
  - { offsetInCU: 0x6004D, offset: 0x6004D, size: 0x8, addend: 0x0, symName: __ZSt18uninitialized_copyISt13move_iteratorIPiES1_ET0_T_S4_S3_, symObjAddr: 0x23B6C, symBinAddr: 0x100025CA4, symSize: 0x3C }
  - { offsetInCU: 0x6010F, offset: 0x6010F, size: 0x8, addend: 0x0, symName: __ZNSt13move_iteratorIPiEC1ES0_, symObjAddr: 0x23B3C, symBinAddr: 0x100025C74, symSize: 0x30 }
  - { offsetInCU: 0x6012D, offset: 0x6012D, size: 0x8, addend: 0x0, symName: __ZSt4moveIRPiEONSt16remove_referenceIT_E4typeEOS3_, symObjAddr: 0x23B28, symBinAddr: 0x100025C60, symSize: 0x14 }
  - { offsetInCU: 0x6015F, offset: 0x6015F, size: 0x8, addend: 0x0, symName: __ZSt14__copy_move_a1ILb1EPiS0_ET1_T0_S2_S1_, symObjAddr: 0x23AFC, symBinAddr: 0x100025C34, symSize: 0x2C }
  - { offsetInCU: 0x601C7, offset: 0x601C7, size: 0x8, addend: 0x0, symName: __ZNSt11__copy_moveILb0ELb1ESt26random_access_iterator_tagE8__copy_mIiiEEPT0_PT_S6_S4_, symObjAddr: 0x23A6C, symBinAddr: 0x100025BA4, symSize: 0x90 }
  - { offsetInCU: 0x60236, offset: 0x60236, size: 0x8, addend: 0x0, symName: __ZSt12__relocate_aIPN8nlohmann16json_abi_v3_11_310basic_jsonISt3mapSt6vectorNSt7__cxx1112basic_stringIcSt11char_traitsIcESaIcEEEbxydSaNS1_14adl_serializerES4_IhSaIhEEvEESF_SaISE_EET0_T_SI_SH_RT1_, symObjAddr: 0x23A10, symBinAddr: 0x100025B48, symSize: 0x5C }
  - { offsetInCU: 0x602B2, offset: 0x602B2, size: 0x8, addend: 0x0, symName: __ZNSt15__new_allocatorIN8nlohmann16json_abi_v3_11_310basic_jsonISt3mapSt6vectorNSt7__cxx1112basic_stringIcSt11char_traitsIcESaIcEEEbxydSaNS1_14adl_serializerES4_IhSaIhEEvEEE10deallocateEPSE_m, symObjAddr: 0x239E0, symBinAddr: 0x100025B18, symSize: 0x30 }
  - { offsetInCU: 0x60320, offset: 0x60320, size: 0x8, addend: 0x0, symName: __ZNSt15__uniq_ptr_implIN8nlohmann16json_abi_v3_11_327byte_container_with_subtypeISt6vectorIhSaIhEEEEZNS1_10basic_jsonISt3mapS3_NSt7__cxx1112basic_stringIcSt11char_traitsIcESaIcEEEbxydSaNS1_14adl_serializerES5_vE6createIS6_JEEEPT_DpOT0_EUlPS6_E_E7releaseEv, symObjAddr: 0x239AC, symBinAddr: 0x100025AE4, symSize: 0x34 }
  - { offsetInCU: 0x6035A, offset: 0x6035A, size: 0x8, addend: 0x0, symName: __ZNKSt10unique_ptrIN8nlohmann16json_abi_v3_11_327byte_container_with_subtypeISt6vectorIhSaIhEEEEZNS1_10basic_jsonISt3mapS3_NSt7__cxx1112basic_stringIcSt11char_traitsIcESaIcEEEbxydSaNS1_14adl_serializerES5_vE6createIS6_JEEEPT_DpOT0_EUlPS6_E_EcvbEv, symObjAddr: 0x23984, symBinAddr: 0x100025ABC, symSize: 0x28 }
  - { offsetInCU: 0x603BA, offset: 0x603BA, size: 0x8, addend: 0x0, symName: __ZNKSt15__uniq_ptr_implIN8nlohmann16json_abi_v3_11_327byte_container_with_subtypeISt6vectorIhSaIhEEEEZNS1_10basic_jsonISt3mapS3_NSt7__cxx1112basic_stringIcSt11char_traitsIcESaIcEEEbxydSaNS1_14adl_serializerES5_vE6createIS6_JEEEPT_DpOT0_EUlPS6_E_E6_M_ptrEv, symObjAddr: 0x23964, symBinAddr: 0x100025A9C, symSize: 0x20 }
  - { offsetInCU: 0x603E7, offset: 0x603E7, size: 0x8, addend: 0x0, symName: __ZSt4moveIRPN8nlohmann16json_abi_v3_11_327byte_container_with_subtypeISt6vectorIhSaIhEEEEEONSt16remove_referenceIT_E4typeEOSA_, symObjAddr: 0x23950, symBinAddr: 0x100025A88, symSize: 0x14 }
  - { offsetInCU: 0x6041D, offset: 0x6041D, size: 0x8, addend: 0x0, symName: __ZNSt10unique_ptrIN8nlohmann16json_abi_v3_11_327byte_container_with_subtypeISt6vectorIhSaIhEEEEZNS1_10basic_jsonISt3mapS3_NSt7__cxx1112basic_stringIcSt11char_traitsIcESaIcEEEbxydSaNS1_14adl_serializerES5_vE6createIS6_JEEEPT_DpOT0_EUlPS6_E_E11get_deleterEv, symObjAddr: 0x23934, symBinAddr: 0x100025A6C, symSize: 0x1C }
  - { offsetInCU: 0x60447, offset: 0x60447, size: 0x8, addend: 0x0, symName: __ZNSt15__uniq_ptr_implIN8nlohmann16json_abi_v3_11_327byte_container_with_subtypeISt6vectorIhSaIhEEEEZNS1_10basic_jsonISt3mapS3_NSt7__cxx1112basic_stringIcSt11char_traitsIcESaIcEEEbxydSaNS1_14adl_serializerES5_vE6createIS6_JEEEPT_DpOT0_EUlPS6_E_E6_M_ptrEv, symObjAddr: 0x23918, symBinAddr: 0x100025A50, symSize: 0x1C }
  - { offsetInCU: 0x605B1, offset: 0x605B1, size: 0x8, addend: 0x0, symName: __ZNSt15__uniq_ptr_implIN8nlohmann16json_abi_v3_11_327byte_container_with_subtypeISt6vectorIhSaIhEEEEZNS1_10basic_jsonISt3mapS3_NSt7__cxx1112basic_stringIcSt11char_traitsIcESaIcEEEbxydSaNS1_14adl_serializerES5_vE6createIS6_JEEEPT_DpOT0_EUlPS6_E_EC2IRKSO_EESN_OSI_, symObjAddr: 0x238CC, symBinAddr: 0x100025A04, symSize: 0x4C }
  - { offsetInCU: 0x604EF, offset: 0x604EF, size: 0x8, addend: 0x0, symName: __ZNSt15__new_allocatorIN8nlohmann16json_abi_v3_11_327byte_container_with_subtypeISt6vectorIhSaIhEEEEE8allocateEmPKv, symObjAddr: 0x2383C, symBinAddr: 0x100025974, symSize: 0x90 }
  - { offsetInCU: 0x6057B, offset: 0x6057B, size: 0x8, addend: 0x0, symName: __ZNSt15__uniq_ptr_implINSt7__cxx1112basic_stringIcSt11char_traitsIcESaIcEEEZN8nlohmann16json_abi_v3_11_310basic_jsonISt3mapSt6vectorS5_bxydSaNS7_14adl_serializerESA_IhSaIhEEvE6createIS5_JRA1_KcEEEPT_DpOT0_EUlPS5_E_E7releaseEv, symObjAddr: 0x23808, symBinAddr: 0x100025940, symSize: 0x34 }
  - { offsetInCU: 0x605B5, offset: 0x605B5, size: 0x8, addend: 0x0, symName: __ZNKSt10unique_ptrINSt7__cxx1112basic_stringIcSt11char_traitsIcESaIcEEEZN8nlohmann16json_abi_v3_11_310basic_jsonISt3mapSt6vectorS5_bxydSaNS7_14adl_serializerESA_IhSaIhEEvE6createIS5_JRA1_KcEEEPT_DpOT0_EUlPS5_E_EcvbEv, symObjAddr: 0x237E0, symBinAddr: 0x100025918, symSize: 0x28 }
  - { offsetInCU: 0x60628, offset: 0x60628, size: 0x8, addend: 0x0, symName: __ZNKSt15__uniq_ptr_implINSt7__cxx1112basic_stringIcSt11char_traitsIcESaIcEEEZN8nlohmann16json_abi_v3_11_310basic_jsonISt3mapSt6vectorS5_bxydSaNS7_14adl_serializerESA_IhSaIhEEvE6createIS5_JRA1_KcEEEPT_DpOT0_EUlPS5_E_E6_M_ptrEv, symObjAddr: 0x237C0, symBinAddr: 0x1000258F8, symSize: 0x20 }
  - { offsetInCU: 0x60655, offset: 0x60655, size: 0x8, addend: 0x0, symName: __ZSt4moveIRPNSt7__cxx1112basic_stringIcSt11char_traitsIcESaIcEEEEONSt16remove_referenceIT_E4typeEOS9_, symObjAddr: 0x237AC, symBinAddr: 0x1000258E4, symSize: 0x14 }
  - { offsetInCU: 0x6068B, offset: 0x6068B, size: 0x8, addend: 0x0, symName: __ZNSt10unique_ptrINSt7__cxx1112basic_stringIcSt11char_traitsIcESaIcEEEZN8nlohmann16json_abi_v3_11_310basic_jsonISt3mapSt6vectorS5_bxydSaNS7_14adl_serializerESA_IhSaIhEEvE6createIS5_JRA1_KcEEEPT_DpOT0_EUlPS5_E_E11get_deleterEv, symObjAddr: 0x23790, symBinAddr: 0x1000258C8, symSize: 0x1C }
  - { offsetInCU: 0x606B5, offset: 0x606B5, size: 0x8, addend: 0x0, symName: __ZNSt15__uniq_ptr_implINSt7__cxx1112basic_stringIcSt11char_traitsIcESaIcEEEZN8nlohmann16json_abi_v3_11_310basic_jsonISt3mapSt6vectorS5_bxydSaNS7_14adl_serializerESA_IhSaIhEEvE6createIS5_JRA1_KcEEEPT_DpOT0_EUlPS5_E_E6_M_ptrEv, symObjAddr: 0x23774, symBinAddr: 0x1000258AC, symSize: 0x1C }
  - { offsetInCU: 0x60801, offset: 0x60801, size: 0x8, addend: 0x0, symName: __ZNSt15__uniq_ptr_implINSt7__cxx1112basic_stringIcSt11char_traitsIcESaIcEEEZN8nlohmann16json_abi_v3_11_310basic_jsonISt3mapSt6vectorS5_bxydSaNS7_14adl_serializerESA_IhSaIhEEvE6createIS5_JRA1_KcEEEPT_DpOT0_EUlPS5_E_EC2IRKSP_EESO_OSJ_, symObjAddr: 0x23728, symBinAddr: 0x100025860, symSize: 0x4C }
  - { offsetInCU: 0x6075D, offset: 0x6075D, size: 0x8, addend: 0x0, symName: __ZNSt15__new_allocatorINSt7__cxx1112basic_stringIcSt11char_traitsIcESaIcEEEE8allocateEmPKv, symObjAddr: 0x236AC, symBinAddr: 0x1000257E4, symSize: 0x7C }
  - { offsetInCU: 0x607E9, offset: 0x607E9, size: 0x8, addend: 0x0, symName: __ZNSt15__uniq_ptr_implISt6vectorIN8nlohmann16json_abi_v3_11_310basic_jsonISt3mapS0_NSt7__cxx1112basic_stringIcSt11char_traitsIcESaIcEEEbxydSaNS2_14adl_serializerES0_IhSaIhEEvEESaISE_EEZNSE_6createISG_JEEEPT_DpOT0_EUlPSG_E_E7releaseEv, symObjAddr: 0x23678, symBinAddr: 0x1000257B0, symSize: 0x34 }
  - { offsetInCU: 0x60823, offset: 0x60823, size: 0x8, addend: 0x0, symName: __ZNKSt10unique_ptrISt6vectorIN8nlohmann16json_abi_v3_11_310basic_jsonISt3mapS0_NSt7__cxx1112basic_stringIcSt11char_traitsIcESaIcEEEbxydSaNS2_14adl_serializerES0_IhSaIhEEvEESaISE_EEZNSE_6createISG_JEEEPT_DpOT0_EUlPSG_E_EcvbEv, symObjAddr: 0x23650, symBinAddr: 0x100025788, symSize: 0x28 }
  - { offsetInCU: 0x60883, offset: 0x60883, size: 0x8, addend: 0x0, symName: __ZNKSt15__uniq_ptr_implISt6vectorIN8nlohmann16json_abi_v3_11_310basic_jsonISt3mapS0_NSt7__cxx1112basic_stringIcSt11char_traitsIcESaIcEEEbxydSaNS2_14adl_serializerES0_IhSaIhEEvEESaISE_EEZNSE_6createISG_JEEEPT_DpOT0_EUlPSG_E_E6_M_ptrEv, symObjAddr: 0x23630, symBinAddr: 0x100025768, symSize: 0x20 }
  - { offsetInCU: 0x608AD, offset: 0x608AD, size: 0x8, addend: 0x0, symName: __ZNSt10unique_ptrISt6vectorIN8nlohmann16json_abi_v3_11_310basic_jsonISt3mapS0_NSt7__cxx1112basic_stringIcSt11char_traitsIcESaIcEEEbxydSaNS2_14adl_serializerES0_IhSaIhEEvEESaISE_EEZNSE_6createISG_JEEEPT_DpOT0_EUlPSG_E_E11get_deleterEv, symObjAddr: 0x23614, symBinAddr: 0x10002574C, symSize: 0x1C }
  - { offsetInCU: 0x608D7, offset: 0x608D7, size: 0x8, addend: 0x0, symName: __ZNSt15__uniq_ptr_implISt6vectorIN8nlohmann16json_abi_v3_11_310basic_jsonISt3mapS0_NSt7__cxx1112basic_stringIcSt11char_traitsIcESaIcEEEbxydSaNS2_14adl_serializerES0_IhSaIhEEvEESaISE_EEZNSE_6createISG_JEEEPT_DpOT0_EUlPSG_E_E6_M_ptrEv, symObjAddr: 0x235F8, symBinAddr: 0x100025730, symSize: 0x1C }
  - { offsetInCU: 0x60A2B, offset: 0x60A2B, size: 0x8, addend: 0x0, symName: __ZNSt15__uniq_ptr_implISt6vectorIN8nlohmann16json_abi_v3_11_310basic_jsonISt3mapS0_NSt7__cxx1112basic_stringIcSt11char_traitsIcESaIcEEEbxydSaNS2_14adl_serializerES0_IhSaIhEEvEESaISE_EEZNSE_6createISG_JEEEPT_DpOT0_EUlPSG_E_EC2IRKSO_EESN_OSI_, symObjAddr: 0x235AC, symBinAddr: 0x1000256E4, symSize: 0x4C }
  - { offsetInCU: 0x6097B, offset: 0x6097B, size: 0x8, addend: 0x0, symName: __ZN8nlohmann16json_abi_v3_11_36detail11concat_intoINSt7__cxx1112basic_stringIcSt11char_traitsIcESaIcEEEEEvRT_, symObjAddr: 0x23598, symBinAddr: 0x1000256D0, symSize: 0x14 }
  - { offsetInCU: 0x609A6, offset: 0x609A6, size: 0x8, addend: 0x0, symName: __ZN8nlohmann16json_abi_v3_11_36detail20external_constructorILNS1_7value_tE6EE9constructINS0_10basic_jsonISt3mapSt6vectorNSt7__cxx1112basic_stringIcSt11char_traitsIcESaIcEEEbxydSaNS0_14adl_serializerES8_IhSaIhEEvEEEEvRT_NSJ_17number_unsigned_tE, symObjAddr: 0x23530, symBinAddr: 0x100025668, symSize: 0x68 }
  - { offsetInCU: 0x609EA, offset: 0x609EA, size: 0x8, addend: 0x0, symName: __ZN8nlohmann16json_abi_v3_11_36detail20external_constructorILNS1_7value_tE5EE9constructINS0_10basic_jsonISt3mapSt6vectorNSt7__cxx1112basic_stringIcSt11char_traitsIcESaIcEEEbxydSaNS0_14adl_serializerES8_IhSaIhEEvEEEEvRT_NSJ_16number_integer_tE, symObjAddr: 0x234C8, symBinAddr: 0x100025600, symSize: 0x68 }
  - { offsetInCU: 0x60B72, offset: 0x60B72, size: 0x8, addend: 0x0, symName: __ZNSt8_Rb_treeINSt7__cxx1112basic_stringIcSt11char_traitsIcESaIcEEESt4pairIKS5_N8nlohmann16json_abi_v3_11_310basic_jsonISt3mapSt6vectorS5_bxydSaNS9_14adl_serializerESC_IhSaIhEEvEEESt10_Select1stISH_ESt4lessIvESaISH_EE10_Auto_nodeC1IJS5_DnEEERSN_DpOT_, symObjAddr: 0x23460, symBinAddr: 0x100025598, symSize: 0x68 }
  - { offsetInCU: 0x60AD3, offset: 0x60AD3, size: 0x8, addend: 0x0, symName: __ZNSt8_Rb_treeINSt7__cxx1112basic_stringIcSt11char_traitsIcESaIcEEESt4pairIKS5_N8nlohmann16json_abi_v3_11_310basic_jsonISt3mapSt6vectorS5_bxydSaNS9_14adl_serializerESC_IhSaIhEEvEEESt10_Select1stISH_ESt4lessIvESaISH_EE22_M_emplace_hint_uniqueIJS5_DnEEESt17_Rb_tree_iteratorISH_ESt23_Rb_tree_const_iteratorISH_EDpOT_, symObjAddr: 0x2339C, symBinAddr: 0x1000254D4, symSize: 0xC4 }
  - { offsetInCU: 0x60B5B, offset: 0x60B5B, size: 0x8, addend: 0x0, symName: __ZNSt15__uniq_ptr_implISt3mapINSt7__cxx1112basic_stringIcSt11char_traitsIcESaIcEEEN8nlohmann16json_abi_v3_11_310basic_jsonIS0_St6vectorS6_bxydSaNS8_14adl_serializerESA_IhSaIhEEvEESt4lessIvESaISt4pairIKS6_SE_EEEZNSE_6createISL_JEEEPT_DpOT0_EUlPSL_E_E7releaseEv, symObjAddr: 0x23368, symBinAddr: 0x1000254A0, symSize: 0x34 }
  - { offsetInCU: 0x60B95, offset: 0x60B95, size: 0x8, addend: 0x0, symName: __ZNKSt10unique_ptrISt3mapINSt7__cxx1112basic_stringIcSt11char_traitsIcESaIcEEEN8nlohmann16json_abi_v3_11_310basic_jsonIS0_St6vectorS6_bxydSaNS8_14adl_serializerESA_IhSaIhEEvEESt4lessIvESaISt4pairIKS6_SE_EEEZNSE_6createISL_JEEEPT_DpOT0_EUlPSL_E_EcvbEv, symObjAddr: 0x23340, symBinAddr: 0x100025478, symSize: 0x28 }
  - { offsetInCU: 0x60CCD, offset: 0x60CCD, size: 0x8, addend: 0x0, symName: __ZNSt3mapINSt7__cxx1112basic_stringIcSt11char_traitsIcESaIcEEEN8nlohmann16json_abi_v3_11_310basic_jsonIS_St6vectorS5_bxydSaNS7_14adl_serializerES9_IhSaIhEEvEESt4lessIvESaISt4pairIKS5_SD_EEEC1Ev, symObjAddr: 0x23320, symBinAddr: 0x100025458, symSize: 0x20 }
  - { offsetInCU: 0x60D29, offset: 0x60D29, size: 0x8, addend: 0x0, symName: __ZNSt8_Rb_treeINSt7__cxx1112basic_stringIcSt11char_traitsIcESaIcEEESt4pairIKS5_N8nlohmann16json_abi_v3_11_310basic_jsonISt3mapSt6vectorS5_bxydSaNS9_14adl_serializerESC_IhSaIhEEvEEESt10_Select1stISH_ESt4lessIvESaISH_EEC1Ev, symObjAddr: 0x23300, symBinAddr: 0x100025438, symSize: 0x20 }
  - { offsetInCU: 0x60D8F, offset: 0x60D8F, size: 0x8, addend: 0x0, symName: __ZNSt8_Rb_treeINSt7__cxx1112basic_stringIcSt11char_traitsIcESaIcEEESt4pairIKS5_N8nlohmann16json_abi_v3_11_310basic_jsonISt3mapSt6vectorS5_bxydSaNS9_14adl_serializerESC_IhSaIhEEvEEESt10_Select1stISH_ESt4lessIvESaISH_EE13_Rb_tree_implISL_Lb1EED1Ev, symObjAddr: 0x232D4, symBinAddr: 0x10002540C, symSize: 0x2C }
  - { offsetInCU: 0x60CE7, offset: 0x60CE7, size: 0x8, addend: 0x0, symName: __ZNKSt15__uniq_ptr_implISt3mapINSt7__cxx1112basic_stringIcSt11char_traitsIcESaIcEEEN8nlohmann16json_abi_v3_11_310basic_jsonIS0_St6vectorS6_bxydSaNS8_14adl_serializerESA_IhSaIhEEvEESt4lessIvESaISt4pairIKS6_SE_EEEZNSE_6createISL_JEEEPT_DpOT0_EUlPSL_E_E6_M_ptrEv, symObjAddr: 0x232B4, symBinAddr: 0x1000253EC, symSize: 0x20 }
  - { offsetInCU: 0x60D14, offset: 0x60D14, size: 0x8, addend: 0x0, symName: __ZSt4moveIRPSt3mapINSt7__cxx1112basic_stringIcSt11char_traitsIcESaIcEEEN8nlohmann16json_abi_v3_11_310basic_jsonIS0_St6vectorS6_bxydSaNS8_14adl_serializerESA_IhSaIhEEvEESt4lessIvESaISt4pairIKS6_SE_EEEEONSt16remove_referenceIT_E4typeEOSP_, symObjAddr: 0x232A0, symBinAddr: 0x1000253D8, symSize: 0x14 }
  - { offsetInCU: 0x60D4A, offset: 0x60D4A, size: 0x8, addend: 0x0, symName: __ZNSt10unique_ptrISt3mapINSt7__cxx1112basic_stringIcSt11char_traitsIcESaIcEEEN8nlohmann16json_abi_v3_11_310basic_jsonIS0_St6vectorS6_bxydSaNS8_14adl_serializerESA_IhSaIhEEvEESt4lessIvESaISt4pairIKS6_SE_EEEZNSE_6createISL_JEEEPT_DpOT0_EUlPSL_E_E11get_deleterEv, symObjAddr: 0x23284, symBinAddr: 0x1000253BC, symSize: 0x1C }
  - { offsetInCU: 0x60D74, offset: 0x60D74, size: 0x8, addend: 0x0, symName: __ZNSt15__uniq_ptr_implISt3mapINSt7__cxx1112basic_stringIcSt11char_traitsIcESaIcEEEN8nlohmann16json_abi_v3_11_310basic_jsonIS0_St6vectorS6_bxydSaNS8_14adl_serializerESA_IhSaIhEEvEESt4lessIvESaISt4pairIKS6_SE_EEEZNSE_6createISL_JEEEPT_DpOT0_EUlPSL_E_E6_M_ptrEv, symObjAddr: 0x23268, symBinAddr: 0x1000253A0, symSize: 0x1C }
  - { offsetInCU: 0x60EE2, offset: 0x60EE2, size: 0x8, addend: 0x0, symName: __ZNSt15__uniq_ptr_implISt3mapINSt7__cxx1112basic_stringIcSt11char_traitsIcESaIcEEEN8nlohmann16json_abi_v3_11_310basic_jsonIS0_St6vectorS6_bxydSaNS8_14adl_serializerESA_IhSaIhEEvEESt4lessIvESaISt4pairIKS6_SE_EEEZNSE_6createISL_JEEEPT_DpOT0_EUlPSL_E_EC2IRKST_EESS_OSN_, symObjAddr: 0x2321C, symBinAddr: 0x100025354, symSize: 0x4C }
  - { offsetInCU: 0x60E1C, offset: 0x60E1C, size: 0x8, addend: 0x0, symName: __ZNSt15__new_allocatorISt3mapINSt7__cxx1112basic_stringIcSt11char_traitsIcESaIcEEEN8nlohmann16json_abi_v3_11_310basic_jsonIS0_St6vectorS6_bxydSaNS8_14adl_serializerESA_IhSaIhEEvEESt4lessIvESaISt4pairIKS6_SE_EEEE8allocateEmPKv, symObjAddr: 0x2318C, symBinAddr: 0x1000252C4, symSize: 0x90 }
  - { offsetInCU: 0x60EA4, offset: 0x60EA4, size: 0x8, addend: 0x0, symName: __ZSt14__relocate_a_1IiiENSt9enable_ifIXsrSt24__is_bitwise_relocatableIT_vE5valueEPS2_E4typeES4_S4_S4_RSaIT0_E, symObjAddr: 0x23128, symBinAddr: 0x100025260, symSize: 0x64 }
  - { offsetInCU: 0x60F28, offset: 0x60F28, size: 0x8, addend: 0x0, symName: __ZNKSt12_Vector_baseIiSaIiEE19_M_get_Tp_allocatorEv, symObjAddr: 0x23114, symBinAddr: 0x10002524C, symSize: 0x14 }
  - { offsetInCU: 0x60F4E, offset: 0x60F4E, size: 0x8, addend: 0x0, symName: __ZSt12__relocate_aIPSt6vectorIiSaIiEES3_SaIS2_EET0_T_S6_S5_RT1_, symObjAddr: 0x230B8, symBinAddr: 0x1000251F0, symSize: 0x5C }
  - { offsetInCU: 0x60FCA, offset: 0x60FCA, size: 0x8, addend: 0x0, symName: __ZNKSt6vectorIS_IiSaIiEESaIS1_EE8max_sizeEv, symObjAddr: 0x23098, symBinAddr: 0x1000251D0, symSize: 0x20 }
  - { offsetInCU: 0x60FF0, offset: 0x60FF0, size: 0x8, addend: 0x0, symName: __ZN8nlohmann16json_abi_v3_11_36detail9from_jsonINS0_10basic_jsonISt3mapSt6vectorNSt7__cxx1112basic_stringIcSt11char_traitsIcESaIcEEEbxydSaNS0_14adl_serializerES5_IhSaIhEEvEEEEvRKT_RNSG_8string_tE, symObjAddr: 0x22FA4, symBinAddr: 0x1000250DC, symSize: 0xF4 }
  - { offsetInCU: 0x61034, offset: 0x61034, size: 0x8, addend: 0x0, symName: __ZN8nlohmann16json_abi_v3_11_36detail11concat_intoINSt7__cxx1112basic_stringIcSt11char_traitsIcESaIcEEES8_JRKS8_ELi0EEEvRT_OT0_DpOT1_, symObjAddr: 0x22F5C, symBinAddr: 0x100025094, symSize: 0x48 }
  - { offsetInCU: 0x6109C, offset: 0x6109C, size: 0x8, addend: 0x0, symName: __ZN8nlohmann16json_abi_v3_11_36detail13concat_lengthINSt7__cxx1112basic_stringIcSt11char_traitsIcESaIcEEEJS8_EEEmRKT_DpRKT0_, symObjAddr: 0x22F24, symBinAddr: 0x10002505C, symSize: 0x38 }
  - { offsetInCU: 0x610F3, offset: 0x610F3, size: 0x8, addend: 0x0, symName: __ZN9__gnu_cxx16__aligned_membufISt4pairIKNSt7__cxx1112basic_stringIcSt11char_traitsIcESaIcEEEN8nlohmann16json_abi_v3_11_310basic_jsonISt3mapSt6vectorS7_bxydSaNSA_14adl_serializerESD_IhSaIhEEvEEEE7_M_addrEv, symObjAddr: 0x22F10, symBinAddr: 0x100025048, symSize: 0x14 }
  - { offsetInCU: 0x61118, offset: 0x61118, size: 0x8, addend: 0x0, symName: __ZNSt8_Rb_treeINSt7__cxx1112basic_stringIcSt11char_traitsIcESaIcEEESt4pairIKS5_N8nlohmann16json_abi_v3_11_310basic_jsonISt3mapSt6vectorS5_bxydSaNS9_14adl_serializerESC_IhSaIhEEvEEESt10_Select1stISH_ESt4lessIvESaISH_EE6_S_keyEPKSt18_Rb_tree_node_base, symObjAddr: 0x22EF4, symBinAddr: 0x10002502C, symSize: 0x1C }
  - { offsetInCU: 0x61146, offset: 0x61146, size: 0x8, addend: 0x0, symName: __ZNSt8_Rb_treeINSt7__cxx1112basic_stringIcSt11char_traitsIcESaIcEEESt4pairIKS5_N8nlohmann16json_abi_v3_11_310basic_jsonISt3mapSt6vectorS5_bxydSaNS9_14adl_serializerESC_IhSaIhEEvEEESt10_Select1stISH_ESt4lessIvESaISH_EE14_M_lower_boundEPSt13_Rb_tree_nodeISH_EPSt18_Rb_tree_node_baseRS7_, symObjAddr: 0x22E58, symBinAddr: 0x100024F90, symSize: 0x9C }
  - { offsetInCU: 0x611A3, offset: 0x611A3, size: 0x8, addend: 0x0, symName: __ZNSt8_Rb_treeINSt7__cxx1112basic_stringIcSt11char_traitsIcESaIcEEESt4pairIKS5_N8nlohmann16json_abi_v3_11_310basic_jsonISt3mapSt6vectorS5_bxydSaNS9_14adl_serializerESC_IhSaIhEEvEEESt10_Select1stISH_ESt4lessIvESaISH_EE6_M_endEv, symObjAddr: 0x22E40, symBinAddr: 0x100024F78, symSize: 0x18 }
  - { offsetInCU: 0x611CD, offset: 0x611CD, size: 0x8, addend: 0x0, symName: __ZNSt8_Rb_treeINSt7__cxx1112basic_stringIcSt11char_traitsIcESaIcEEESt4pairIKS5_N8nlohmann16json_abi_v3_11_310basic_jsonISt3mapSt6vectorS5_bxydSaNS9_14adl_serializerESC_IhSaIhEEvEEESt10_Select1stISH_ESt4lessIvESaISH_EE8_M_beginEv, symObjAddr: 0x22E24, symBinAddr: 0x100024F5C, symSize: 0x1C }
  - { offsetInCU: 0x611F3, offset: 0x611F3, size: 0x8, addend: 0x0, symName: __ZSt16__do_uninit_copyIPSt6vectorIiSaIiEES3_ET0_T_S5_S4_, symObjAddr: 0x22D90, symBinAddr: 0x100024EC8, symSize: 0x94 }
  - { offsetInCU: 0x6125E, offset: 0x6125E, size: 0x8, addend: 0x0, symName: __ZSt14__copy_move_a2ILb0EPSt6vectorIiSaIiEES3_ET1_T0_S5_S4_, symObjAddr: 0x22D64, symBinAddr: 0x100024E9C, symSize: 0x2C }
  - { offsetInCU: 0x612CA, offset: 0x612CA, size: 0x8, addend: 0x0, symName: __ZN9__gnu_cxx17__normal_iteratorIPSt6vectorIiSaIiEES1_IS3_SaIS3_EEEppEv, symObjAddr: 0x22D3C, symBinAddr: 0x100024E74, symSize: 0x28 }
  - { offsetInCU: 0x612F7, offset: 0x612F7, size: 0x8, addend: 0x0, symName: __ZN9__gnu_cxxneIPSt6vectorIiSaIiEES1_IS3_SaIS3_EEEEbRKNS_17__normal_iteratorIT_T0_EESC_, symObjAddr: 0x22CF8, symBinAddr: 0x100024E30, symSize: 0x44 }
  - { offsetInCU: 0x61348, offset: 0x61348, size: 0x8, addend: 0x0, symName: __ZNK9__gnu_cxx17__normal_iteratorIPSt6vectorIiSaIiEES1_IS3_SaIS3_EEEplEl, symObjAddr: 0x22CAC, symBinAddr: 0x100024DE4, symSize: 0x4C }
  - { offsetInCU: 0x6137F, offset: 0x6137F, size: 0x8, addend: 0x0, symName: __ZSt14__copy_move_a2ILb0EPKSt6vectorIiSaIiEEPS2_ET1_T0_S7_S6_, symObjAddr: 0x22C80, symBinAddr: 0x100024DB8, symSize: 0x2C }
  - { offsetInCU: 0x613EB, offset: 0x613EB, size: 0x8, addend: 0x0, symName: __ZNK9__gnu_cxx17__normal_iteratorIPSt6vectorIiSaIiEES1_IS3_SaIS3_EEE4baseEv, symObjAddr: 0x22C6C, symBinAddr: 0x100024DA4, symSize: 0x14 }
  - { offsetInCU: 0x61415, offset: 0x61415, size: 0x8, addend: 0x0, symName: __ZNK9__gnu_cxx17__normal_iteratorIPKSt6vectorIiSaIiEES1_IS3_SaIS3_EEE4baseEv, symObjAddr: 0x22C58, symBinAddr: 0x100024D90, symSize: 0x14 }
  - { offsetInCU: 0x6143B, offset: 0x6143B, size: 0x8, addend: 0x0, symName: __ZNSt20__uninitialized_copyILb0EE13__uninit_copyIN9__gnu_cxx17__normal_iteratorIPKSt6vectorIiSaIiEES4_IS6_SaIS6_EEEEPS6_EET0_T_SE_SD_, symObjAddr: 0x22C2C, symBinAddr: 0x100024D64, symSize: 0x2C }
  - { offsetInCU: 0x6149A, offset: 0x6149A, size: 0x8, addend: 0x0, symName: __ZNSt15__new_allocatorISt6vectorIiSaIiEEE8allocateEmPKv, symObjAddr: 0x22B9C, symBinAddr: 0x100024CD4, symSize: 0x90 }
  - { offsetInCU: 0x61526, offset: 0x61526, size: 0x8, addend: 0x0, symName: __ZNKSt10_Select1stISt4pairIKiSt6vectorIS2_IiSaIiEESaIS4_EEEEclERKS7_, symObjAddr: 0x22B84, symBinAddr: 0x100024CBC, symSize: 0x18 }
  - { offsetInCU: 0x61561, offset: 0x61561, size: 0x8, addend: 0x0, symName: __ZNKSt13_Rb_tree_nodeISt4pairIKiSt6vectorIS2_IiSaIiEESaIS4_EEEE9_M_valptrEv, symObjAddr: 0x22B64, symBinAddr: 0x100024C9C, symSize: 0x20 }
  - { offsetInCU: 0x6158E, offset: 0x6158E, size: 0x8, addend: 0x0, symName: __ZSt7forwardIRPSt18_Rb_tree_node_baseEOT_RNSt16remove_referenceIS3_E4typeE, symObjAddr: 0x22B50, symBinAddr: 0x100024C88, symSize: 0x14 }
  - { offsetInCU: 0x6167B, offset: 0x6167B, size: 0x8, addend: 0x0, symName: __ZNSt4pairIPSt18_Rb_tree_node_baseS1_EC1IRPSt13_Rb_tree_nodeIS_IKiSt6vectorIS6_IiSaIiEESaIS8_EEEERS1_Lb1EEEOT_OT0_, symObjAddr: 0x22B08, symBinAddr: 0x100024C40, symSize: 0x48 }
  - { offsetInCU: 0x61656, offset: 0x61656, size: 0x8, addend: 0x0, symName: __ZNSt8_Rb_treeIiSt4pairIKiSt6vectorIS2_IiSaIiEESaIS4_EEESt10_Select1stIS7_ESt4lessIiESaIS7_EE5beginEv, symObjAddr: 0x22AE0, symBinAddr: 0x100024C18, symSize: 0x28 }
  - { offsetInCU: 0x61680, offset: 0x61680, size: 0x8, addend: 0x0, symName: __ZNSt8_Rb_treeIiSt4pairIKiSt6vectorIS2_IiSaIiEESaIS4_EEESt10_Select1stIS7_ESt4lessIiESaIS7_EE17_M_construct_nodeIJRKSt21piecewise_construct_tSt5tupleIJRS1_EESI_IJEEEEEvPSt13_Rb_tree_nodeIS7_EDpOT_, symObjAddr: 0x22964, symBinAddr: 0x100024A9C, symSize: 0x17C }
  - { offsetInCU: 0x61781, offset: 0x61781, size: 0x8, addend: 0x0, symName: __ZNSt8_Rb_treeIiSt4pairIKiSt6vectorIS2_IiSaIiEESaIS4_EEESt10_Select1stIS7_ESt4lessIiESaIS7_EE11_M_get_nodeEv, symObjAddr: 0x22928, symBinAddr: 0x100024A60, symSize: 0x3C }
  - { offsetInCU: 0x617DD, offset: 0x617DD, size: 0x8, addend: 0x0, symName: __ZN9__gnu_cxx16__aligned_membufISt4pairIKiSt6vectorIS3_IiSaIiEESaIS5_EEEE7_M_addrEv, symObjAddr: 0x22914, symBinAddr: 0x100024A4C, symSize: 0x14 }
  - { offsetInCU: 0x61802, offset: 0x61802, size: 0x8, addend: 0x0, symName: __ZSt8_DestroyISt6vectorIiSaIiEEEvPT_, symObjAddr: 0x228F4, symBinAddr: 0x100024A2C, symSize: 0x20 }
  - { offsetInCU: 0x61834, offset: 0x61834, size: 0x8, addend: 0x0, symName: __ZSt11__addressofISt6vectorIiSaIiEEEPT_RS3_, symObjAddr: 0x228E0, symBinAddr: 0x100024A18, symSize: 0x14 }
  - { offsetInCU: 0x61866, offset: 0x61866, size: 0x8, addend: 0x0, symName: __ZNSt22__uninitialized_fill_nILb0EE15__uninit_fill_nIPSt6vectorIiSaIiEEmS4_EET_S6_T0_RKT1_, symObjAddr: 0x228B4, symBinAddr: 0x1000249EC, symSize: 0x2C }
  - { offsetInCU: 0x618E3, offset: 0x618E3, size: 0x8, addend: 0x0, symName: __ZNSt22__uninitialized_fill_nILb1EE15__uninit_fill_nIPimiEET_S3_T0_RKT1_, symObjAddr: 0x22888, symBinAddr: 0x1000249C0, symSize: 0x2C }
  - { offsetInCU: 0x619C3, offset: 0x619C3, size: 0x8, addend: 0x0, symName: __ZNSt8_Rb_treeIiSt4pairIKiSt6vectorIS2_IiSaIiEESaIS4_EEESt10_Select1stIS7_ESt4lessIiESaIS7_EE21_M_get_Node_allocatorEv, symObjAddr: 0x22874, symBinAddr: 0x1000249AC, symSize: 0x14 }
  - { offsetInCU: 0x619ED, offset: 0x619ED, size: 0x8, addend: 0x0, symName: __ZNSt15__uniq_ptr_implISt6vectorIN8nlohmann16json_abi_v3_11_310basic_jsonISt3mapS0_NSt7__cxx1112basic_stringIcSt11char_traitsIcESaIcEEEbxydSaNS2_14adl_serializerES0_IhSaIhEEvEESaISE_EEZNSE_6createISG_JPKNS2_6detail8json_refISE_EESM_EEEPT_DpOT0_EUlPSG_E_E7releaseEv, symObjAddr: 0x22840, symBinAddr: 0x100024978, symSize: 0x34 }
  - { offsetInCU: 0x61A27, offset: 0x61A27, size: 0x8, addend: 0x0, symName: __ZNKSt10unique_ptrISt6vectorIN8nlohmann16json_abi_v3_11_310basic_jsonISt3mapS0_NSt7__cxx1112basic_stringIcSt11char_traitsIcESaIcEEEbxydSaNS2_14adl_serializerES0_IhSaIhEEvEESaISE_EEZNSE_6createISG_JPKNS2_6detail8json_refISE_EESM_EEEPT_DpOT0_EUlPSG_E_EcvbEv, symObjAddr: 0x22818, symBinAddr: 0x100024950, symSize: 0x28 }
  - { offsetInCU: 0x61ABA, offset: 0x61ABA, size: 0x8, addend: 0x0, symName: __ZNKSt15__uniq_ptr_implISt6vectorIN8nlohmann16json_abi_v3_11_310basic_jsonISt3mapS0_NSt7__cxx1112basic_stringIcSt11char_traitsIcESaIcEEEbxydSaNS2_14adl_serializerES0_IhSaIhEEvEESaISE_EEZNSE_6createISG_JPKNS2_6detail8json_refISE_EESM_EEEPT_DpOT0_EUlPSG_E_E6_M_ptrEv, symObjAddr: 0x227F8, symBinAddr: 0x100024930, symSize: 0x20 }
  - { offsetInCU: 0x61AE7, offset: 0x61AE7, size: 0x8, addend: 0x0, symName: __ZSt4moveIRPSt6vectorIN8nlohmann16json_abi_v3_11_310basic_jsonISt3mapS0_NSt7__cxx1112basic_stringIcSt11char_traitsIcESaIcEEEbxydSaNS2_14adl_serializerES0_IhSaIhEEvEESaISE_EEEONSt16remove_referenceIT_E4typeEOSK_, symObjAddr: 0x227E4, symBinAddr: 0x10002491C, symSize: 0x14 }
  - { offsetInCU: 0x61B1D, offset: 0x61B1D, size: 0x8, addend: 0x0, symName: __ZNSt10unique_ptrISt6vectorIN8nlohmann16json_abi_v3_11_310basic_jsonISt3mapS0_NSt7__cxx1112basic_stringIcSt11char_traitsIcESaIcEEEbxydSaNS2_14adl_serializerES0_IhSaIhEEvEESaISE_EEZNSE_6createISG_JPKNS2_6detail8json_refISE_EESM_EEEPT_DpOT0_EUlPSG_E_E11get_deleterEv, symObjAddr: 0x227C8, symBinAddr: 0x100024900, symSize: 0x1C }
  - { offsetInCU: 0x61B47, offset: 0x61B47, size: 0x8, addend: 0x0, symName: __ZNSt15__uniq_ptr_implISt6vectorIN8nlohmann16json_abi_v3_11_310basic_jsonISt3mapS0_NSt7__cxx1112basic_stringIcSt11char_traitsIcESaIcEEEbxydSaNS2_14adl_serializerES0_IhSaIhEEvEESaISE_EEZNSE_6createISG_JPKNS2_6detail8json_refISE_EESM_EEEPT_DpOT0_EUlPSG_E_E6_M_ptrEv, symObjAddr: 0x227AC, symBinAddr: 0x1000248E4, symSize: 0x1C }
  - { offsetInCU: 0x61CBA, offset: 0x61CBA, size: 0x8, addend: 0x0, symName: __ZNSt15__uniq_ptr_implISt6vectorIN8nlohmann16json_abi_v3_11_310basic_jsonISt3mapS0_NSt7__cxx1112basic_stringIcSt11char_traitsIcESaIcEEEbxydSaNS2_14adl_serializerES0_IhSaIhEEvEESaISE_EEZNSE_6createISG_JPKNS2_6detail8json_refISE_EESM_EEEPT_DpOT0_EUlPSG_E_EC2IRKST_EESS_OSN_, symObjAddr: 0x22760, symBinAddr: 0x100024898, symSize: 0x4C }
  - { offsetInCU: 0x61BEF, offset: 0x61BEF, size: 0x8, addend: 0x0, symName: __ZNSt15__new_allocatorISt6vectorIN8nlohmann16json_abi_v3_11_310basic_jsonISt3mapS0_NSt7__cxx1112basic_stringIcSt11char_traitsIcESaIcEEEbxydSaNS2_14adl_serializerES0_IhSaIhEEvEESaISE_EEE8allocateEmPKv, symObjAddr: 0x226D0, symBinAddr: 0x100024808, symSize: 0x90 }
  - { offsetInCU: 0x61C7B, offset: 0x61C7B, size: 0x8, addend: 0x0, symName: __ZNSt8_Rb_treeINSt7__cxx1112basic_stringIcSt11char_traitsIcESaIcEEESt4pairIKS5_N8nlohmann16json_abi_v3_11_310basic_jsonISt3mapSt6vectorS5_bxydSaNS9_14adl_serializerESC_IhSaIhEEvEEESt10_Select1stISH_ESt4lessIvESaISH_EE10_Auto_node9_M_insertES6_IPSt18_Rb_tree_node_baseSQ_E, symObjAddr: 0x22684, symBinAddr: 0x1000247BC, symSize: 0x4C }
  - { offsetInCU: 0x61CC7, offset: 0x61CC7, size: 0x8, addend: 0x0, symName: __ZNKSt8_Rb_treeINSt7__cxx1112basic_stringIcSt11char_traitsIcESaIcEEESt4pairIKS5_N8nlohmann16json_abi_v3_11_310basic_jsonISt3mapSt6vectorS5_bxydSaNS9_14adl_serializerESC_IhSaIhEEvEEESt10_Select1stISH_ESt4lessIvESaISH_EE10_Auto_node6_M_keyEv, symObjAddr: 0x22664, symBinAddr: 0x10002479C, symSize: 0x20 }
  - { offsetInCU: 0x61CF1, offset: 0x61CF1, size: 0x8, addend: 0x0, symName: __ZNSt8_Rb_treeINSt7__cxx1112basic_stringIcSt11char_traitsIcESaIcEEESt4pairIKS5_N8nlohmann16json_abi_v3_11_310basic_jsonISt3mapSt6vectorS5_bxydSaNS9_14adl_serializerESC_IhSaIhEEvEEESt10_Select1stISH_ESt4lessIvESaISH_EE24_M_get_insert_unique_posERS7_, symObjAddr: 0x2250C, symBinAddr: 0x100024644, symSize: 0x158 }
  - { offsetInCU: 0x61E7F, offset: 0x61E7F, size: 0x8, addend: 0x0, symName: __ZNSt8_Rb_treeINSt7__cxx1112basic_stringIcSt11char_traitsIcESaIcEEESt4pairIKS5_N8nlohmann16json_abi_v3_11_310basic_jsonISt3mapSt6vectorS5_bxydSaNS9_14adl_serializerESC_IhSaIhEEvEEESt10_Select1stISH_ESt4lessIvESaISH_EE10_Auto_nodeD1Ev, symObjAddr: 0x224C8, symBinAddr: 0x100024600, symSize: 0x44 }
  - { offsetInCU: 0x61F00, offset: 0x61F00, size: 0x8, addend: 0x0, symName: __ZNSt8_Rb_treeINSt7__cxx1112basic_stringIcSt11char_traitsIcESaIcEEESt4pairIKS5_N8nlohmann16json_abi_v3_11_310basic_jsonISt3mapSt6vectorS5_bxydSaNS9_14adl_serializerESC_IhSaIhEEvEEESt10_Select1stISH_ESt4lessIvESaISH_EE10_Auto_nodeC1IJS5_SG_EEERSN_DpOT_, symObjAddr: 0x22460, symBinAddr: 0x100024598, symSize: 0x68 }
  - { offsetInCU: 0x61E63, offset: 0x61E63, size: 0x8, addend: 0x0, symName: __ZSt7forwardIRSt17_Rb_tree_iteratorISt4pairIKNSt7__cxx1112basic_stringIcSt11char_traitsIcESaIcEEEN8nlohmann16json_abi_v3_11_310basic_jsonISt3mapSt6vectorS7_bxydSaNSA_14adl_serializerESD_IhSaIhEEvEEEEEOT_RNSt16remove_referenceISL_E4typeE, symObjAddr: 0x2244C, symBinAddr: 0x100024584, symSize: 0x14 }
  - { offsetInCU: 0x61E99, offset: 0x61E99, size: 0x8, addend: 0x0, symName: __ZNSt8_Rb_treeINSt7__cxx1112basic_stringIcSt11char_traitsIcESaIcEEESt4pairIKS5_N8nlohmann16json_abi_v3_11_310basic_jsonISt3mapSt6vectorS5_bxydSaNS9_14adl_serializerESC_IhSaIhEEvEEESt10_Select1stISH_ESt4lessIvESaISH_EE22_M_emplace_hint_uniqueIJS5_SG_EEESt17_Rb_tree_iteratorISH_ESt23_Rb_tree_const_iteratorISH_EDpOT_, symObjAddr: 0x22388, symBinAddr: 0x1000244C0, symSize: 0xC4 }
  - { offsetInCU: 0x61F1D, offset: 0x61F1D, size: 0x8, addend: 0x0, symName: __ZStltIcSt11char_traitsIcESaIcEEbRKNSt7__cxx1112basic_stringIT_T0_T1_EESA_, symObjAddr: 0x2235C, symBinAddr: 0x100024494, symSize: 0x2C }
  - { offsetInCU: 0x61F77, offset: 0x61F77, size: 0x8, addend: 0x0, symName: __ZNKSt8_Rb_treeINSt7__cxx1112basic_stringIcSt11char_traitsIcESaIcEEESt4pairIKS5_N8nlohmann16json_abi_v3_11_310basic_jsonISt3mapSt6vectorS5_bxydSaNS9_14adl_serializerESC_IhSaIhEEvEEESt10_Select1stISH_ESt4lessIvESaISH_EE8key_compEv, symObjAddr: 0x22344, symBinAddr: 0x10002447C, symSize: 0x18 }
  - { offsetInCU: 0x61FA1, offset: 0x61FA1, size: 0x8, addend: 0x0, symName: __ZNSt8_Rb_treeINSt7__cxx1112basic_stringIcSt11char_traitsIcESaIcEEESt4pairIKS5_N8nlohmann16json_abi_v3_11_310basic_jsonISt3mapSt6vectorS5_bxydSaNS9_14adl_serializerESC_IhSaIhEEvEEESt10_Select1stISH_ESt4lessIvESaISH_EE11lower_boundERS7_, symObjAddr: 0x222FC, symBinAddr: 0x100024434, symSize: 0x48 }
  - { offsetInCU: 0x61FD8, offset: 0x61FD8, size: 0x8, addend: 0x0, symName: __ZSt13__find_if_notIPKN8nlohmann16json_abi_v3_11_36detail8json_refINS1_10basic_jsonISt3mapSt6vectorNSt7__cxx1112basic_stringIcSt11char_traitsIcESaIcEEEbxydSaNS1_14adl_serializerES6_IhSaIhEEvEEEEN9__gnu_cxx5__ops10_Iter_predIZNSG_C4ESt16initializer_listISH_EbNS2_7value_tEEUlRSI_E_EEET_ST_ST_T0_, symObjAddr: 0x222AC, symBinAddr: 0x1000243E4, symSize: 0x50 }
  - { offsetInCU: 0x62053, offset: 0x62053, size: 0x8, addend: 0x0, symName: __ZN9__gnu_cxx5__ops11__pred_iterIZN8nlohmann16json_abi_v3_11_310basic_jsonISt3mapSt6vectorNSt7__cxx1112basic_stringIcSt11char_traitsIcESaIcEEEbxydSaNS3_14adl_serializerES6_IhSaIhEEvEC4ESt16initializer_listINS3_6detail8json_refISG_EEEbNSI_7value_tEEUlRKSK_E_EENS0_10_Iter_predIT_EESR_, symObjAddr: 0x22274, symBinAddr: 0x1000243AC, symSize: 0x38 }
  - { offsetInCU: 0x6208D, offset: 0x6208D, size: 0x8, addend: 0x0, symName: __ZN8nlohmann16json_abi_v3_11_36detail11concat_intoINSt7__cxx1112basic_stringIcSt11char_traitsIcESaIcEEERA52_KcJPS9_ELi0EEEvRT_OT0_DpOT1_, symObjAddr: 0x2222C, symBinAddr: 0x100024364, symSize: 0x48 }
  - { offsetInCU: 0x620FC, offset: 0x620FC, size: 0x8, addend: 0x0, symName: __ZSt7forwardIRA52_KcEOT_RNSt16remove_referenceIS3_E4typeE, symObjAddr: 0x22218, symBinAddr: 0x100024350, symSize: 0x14 }
  - { offsetInCU: 0x6212E, offset: 0x6212E, size: 0x8, addend: 0x0, symName: __ZNSt20__uninitialized_copyILb1EE13__uninit_copyIPKiPiEET0_T_S6_S5_, symObjAddr: 0x221EC, symBinAddr: 0x100024324, symSize: 0x2C }
  - { offsetInCU: 0x6218D, offset: 0x6218D, size: 0x8, addend: 0x0, symName: __ZNSt15__new_allocatorIiE8allocateEmPKv, symObjAddr: 0x22170, symBinAddr: 0x1000242A8, symSize: 0x7C }
  - { offsetInCU: 0x6225B, offset: 0x6225B, size: 0x8, addend: 0x0, symName: __ZNSt15__new_allocatorIN8nlohmann16json_abi_v3_11_327byte_container_with_subtypeISt6vectorIhSaIhEEEEE10deallocateEPS6_m, symObjAddr: 0x22134, symBinAddr: 0x10002426C, symSize: 0x3C }
  - { offsetInCU: 0x62348, offset: 0x62348, size: 0x8, addend: 0x0, symName: __ZN8nlohmann16json_abi_v3_11_327byte_container_with_subtypeISt6vectorIhSaIhEEED1Ev, symObjAddr: 0x22114, symBinAddr: 0x10002424C, symSize: 0x20 }
  - { offsetInCU: 0x623A9, offset: 0x623A9, size: 0x8, addend: 0x0, symName: __ZNSt15__new_allocatorIN8nlohmann16json_abi_v3_11_327byte_container_with_subtypeISt6vectorIhSaIhEEEEED2Ev, symObjAddr: 0x22100, symBinAddr: 0x100024238, symSize: 0x14 }
  - { offsetInCU: 0x6237F, offset: 0x6237F, size: 0x8, addend: 0x0, symName: __ZNSt15__new_allocatorINSt7__cxx1112basic_stringIcSt11char_traitsIcESaIcEEEE10deallocateEPS5_m, symObjAddr: 0x220D0, symBinAddr: 0x100024208, symSize: 0x30 }
  - { offsetInCU: 0x6240B, offset: 0x6240B, size: 0x8, addend: 0x0, symName: __ZNSt15__new_allocatorISt6vectorIN8nlohmann16json_abi_v3_11_310basic_jsonISt3mapS0_NSt7__cxx1112basic_stringIcSt11char_traitsIcESaIcEEEbxydSaNS2_14adl_serializerES0_IhSaIhEEvEESaISE_EEE10deallocateEPSG_m, symObjAddr: 0x22094, symBinAddr: 0x1000241CC, symSize: 0x3C }
  - { offsetInCU: 0x6255F, offset: 0x6255F, size: 0x8, addend: 0x0, symName: __ZNSt15__new_allocatorISt6vectorIN8nlohmann16json_abi_v3_11_310basic_jsonISt3mapS0_NSt7__cxx1112basic_stringIcSt11char_traitsIcESaIcEEEbxydSaNS2_14adl_serializerES0_IhSaIhEEvEESaISE_EEED2Ev, symObjAddr: 0x22080, symBinAddr: 0x1000241B8, symSize: 0x14 }
  - { offsetInCU: 0x624E1, offset: 0x624E1, size: 0x8, addend: 0x0, symName: __ZNSt15__new_allocatorISt3mapINSt7__cxx1112basic_stringIcSt11char_traitsIcESaIcEEEN8nlohmann16json_abi_v3_11_310basic_jsonIS0_St6vectorS6_bxydSaNS8_14adl_serializerESA_IhSaIhEEvEESt4lessIvESaISt4pairIKS6_SE_EEEE10deallocateEPSL_m, symObjAddr: 0x22044, symBinAddr: 0x10002417C, symSize: 0x3C }
  - { offsetInCU: 0x62639, offset: 0x62639, size: 0x8, addend: 0x0, symName: __ZNSt3mapINSt7__cxx1112basic_stringIcSt11char_traitsIcESaIcEEEN8nlohmann16json_abi_v3_11_310basic_jsonIS_St6vectorS5_bxydSaNS7_14adl_serializerES9_IhSaIhEEvEESt4lessIvESaISt4pairIKS5_SD_EEED1Ev, symObjAddr: 0x22024, symBinAddr: 0x10002415C, symSize: 0x20 }
  - { offsetInCU: 0x62699, offset: 0x62699, size: 0x8, addend: 0x0, symName: __ZNSt15__new_allocatorISt3mapINSt7__cxx1112basic_stringIcSt11char_traitsIcESaIcEEEN8nlohmann16json_abi_v3_11_310basic_jsonIS0_St6vectorS6_bxydSaNS8_14adl_serializerESA_IhSaIhEEvEESt4lessIvESaISt4pairIKS6_SE_EEEED2Ev, symObjAddr: 0x22010, symBinAddr: 0x100024148, symSize: 0x14 }
  - { offsetInCU: 0x62601, offset: 0x62601, size: 0x8, addend: 0x0, symName: __ZNSt8_Rb_treeINSt7__cxx1112basic_stringIcSt11char_traitsIcESaIcEEESt4pairIKS5_N8nlohmann16json_abi_v3_11_310basic_jsonISt3mapSt6vectorS5_bxydSaNS9_14adl_serializerESC_IhSaIhEEvEEESt10_Select1stISH_ESt4lessIvESaISH_EE5clearEv, symObjAddr: 0x21FD8, symBinAddr: 0x100024110, symSize: 0x38 }
  - { offsetInCU: 0x6262B, offset: 0x6262B, size: 0x8, addend: 0x0, symName: __ZNSt6vectorIN8nlohmann16json_abi_v3_11_310basic_jsonISt3mapS_NSt7__cxx1112basic_stringIcSt11char_traitsIcESaIcEEEbxydSaNS1_14adl_serializerES_IhSaIhEEvEESaISD_EE15_M_erase_at_endEPSD_, symObjAddr: 0x21F50, symBinAddr: 0x100024088, symSize: 0x88 }
  - { offsetInCU: 0x626ED, offset: 0x626ED, size: 0x8, addend: 0x0, symName: __ZNSt6vectorIN8nlohmann16json_abi_v3_11_310basic_jsonISt3mapS_NSt7__cxx1112basic_stringIcSt11char_traitsIcESaIcEEEbxydSaNS1_14adl_serializerES_IhSaIhEEvEESaISD_EE12emplace_backIJSD_EEERSD_DpOT_, symObjAddr: 0x21E74, symBinAddr: 0x100023FAC, symSize: 0xDC }
  - { offsetInCU: 0x6279C, offset: 0x6279C, size: 0x8, addend: 0x0, symName: __ZNSt8_Rb_treeINSt7__cxx1112basic_stringIcSt11char_traitsIcESaIcEEESt4pairIKS5_N8nlohmann16json_abi_v3_11_310basic_jsonISt3mapSt6vectorS5_bxydSaNS9_14adl_serializerESC_IhSaIhEEvEEESt10_Select1stISH_ESt4lessIvESaISH_EE5beginEv, symObjAddr: 0x21E4C, symBinAddr: 0x100023F84, symSize: 0x28 }
  - { offsetInCU: 0x627C2, offset: 0x627C2, size: 0x8, addend: 0x0, symName: __ZSt13__copy_move_aILb1EN9__gnu_cxx17__normal_iteratorIPN8nlohmann16json_abi_v3_11_310basic_jsonISt3mapSt6vectorNSt7__cxx1112basic_stringIcSt11char_traitsIcESaIcEEEbxydSaNS3_14adl_serializerES6_IhSaIhEEvEES6_ISG_SaISG_EEEESt20back_insert_iteratorISJ_EET1_T0_SO_SN_, symObjAddr: 0x21DEC, symBinAddr: 0x100023F24, symSize: 0x60 }
  - { offsetInCU: 0x6282A, offset: 0x6282A, size: 0x8, addend: 0x0, symName: __ZSt12__miter_baseIN9__gnu_cxx17__normal_iteratorIPN8nlohmann16json_abi_v3_11_310basic_jsonISt3mapSt6vectorNSt7__cxx1112basic_stringIcSt11char_traitsIcESaIcEEEbxydSaNS3_14adl_serializerES6_IhSaIhEEvEES6_ISG_SaISG_EEEEET_SL_, symObjAddr: 0x21DD8, symBinAddr: 0x100023F10, symSize: 0x14 }
  - { offsetInCU: 0x6294B, offset: 0x6294B, size: 0x8, addend: 0x0, symName: __ZNSt20back_insert_iteratorISt6vectorIN8nlohmann16json_abi_v3_11_310basic_jsonISt3mapS0_NSt7__cxx1112basic_stringIcSt11char_traitsIcESaIcEEEbxydSaNS2_14adl_serializerES0_IhSaIhEEvEESaISE_EEEC1ERSG_, symObjAddr: 0x21DA8, symBinAddr: 0x100023EE0, symSize: 0x30 }
  - { offsetInCU: 0x628B8, offset: 0x628B8, size: 0x8, addend: 0x0, symName: __ZNKSt6vectorIN8nlohmann16json_abi_v3_11_310basic_jsonISt3mapS_NSt7__cxx1112basic_stringIcSt11char_traitsIcESaIcEEEbxydSaNS1_14adl_serializerES_IhSaIhEEvEESaISD_EE8max_sizeEv, symObjAddr: 0x21D88, symBinAddr: 0x100023EC0, symSize: 0x20 }
  - { offsetInCU: 0x6291D, offset: 0x6291D, size: 0x8, addend: 0x0, symName: __ZNSt12_Vector_baseIN8nlohmann16json_abi_v3_11_310basic_jsonISt3mapSt6vectorNSt7__cxx1112basic_stringIcSt11char_traitsIcESaIcEEEbxydSaNS1_14adl_serializerES4_IhSaIhEEvEESaISE_EE13_M_deallocateEPSE_m, symObjAddr: 0x21D30, symBinAddr: 0x100023E68, symSize: 0x58 }
  - { offsetInCU: 0x62A71, offset: 0x62A71, size: 0x8, addend: 0x0, symName: __ZNSt15__new_allocatorIN8nlohmann16json_abi_v3_11_310basic_jsonISt3mapSt6vectorNSt7__cxx1112basic_stringIcSt11char_traitsIcESaIcEEEbxydSaNS1_14adl_serializerES4_IhSaIhEEvEEED2Ev, symObjAddr: 0x21D1C, symBinAddr: 0x100023E54, symSize: 0x14 }
  - { offsetInCU: 0x62AC8, offset: 0x62AC8, size: 0x8, addend: 0x0, symName: __ZNSt12_Vector_baseIN8nlohmann16json_abi_v3_11_310basic_jsonISt3mapSt6vectorNSt7__cxx1112basic_stringIcSt11char_traitsIcESaIcEEEbxydSaNS1_14adl_serializerES4_IhSaIhEEvEESaISE_EE17_Vector_impl_dataC2Ev, symObjAddr: 0x21CF0, symBinAddr: 0x100023E28, symSize: 0x2C }
  - { offsetInCU: 0x62A29, offset: 0x62A29, size: 0x8, addend: 0x0, symName: __ZN8nlohmann16json_abi_v3_11_36detail19json_sax_dom_parserINS0_10basic_jsonISt3mapSt6vectorNSt7__cxx1112basic_stringIcSt11char_traitsIcESaIcEEEbxydSaNS0_14adl_serializerES5_IhSaIhEEvEEE12handle_valueIRyEEPSF_OT_, symObjAddr: 0x21AD8, symBinAddr: 0x100023C10, symSize: 0x218 }
  - { offsetInCU: 0x62A81, offset: 0x62A81, size: 0x8, addend: 0x0, symName: __ZN8nlohmann16json_abi_v3_11_36detail19json_sax_dom_parserINS0_10basic_jsonISt3mapSt6vectorNSt7__cxx1112basic_stringIcSt11char_traitsIcESaIcEEEbxydSaNS0_14adl_serializerES5_IhSaIhEEvEEE12handle_valueIRSB_EEPSF_OT_, symObjAddr: 0x218C0, symBinAddr: 0x1000239F8, symSize: 0x218 }
  - { offsetInCU: 0x62AD9, offset: 0x62AD9, size: 0x8, addend: 0x0, symName: __ZN8nlohmann16json_abi_v3_11_36detail19json_sax_dom_parserINS0_10basic_jsonISt3mapSt6vectorNSt7__cxx1112basic_stringIcSt11char_traitsIcESaIcEEEbxydSaNS0_14adl_serializerES5_IhSaIhEEvEEE12handle_valueIRxEEPSF_OT_, symObjAddr: 0x216A8, symBinAddr: 0x1000237E0, symSize: 0x218 }
  - { offsetInCU: 0x62B31, offset: 0x62B31, size: 0x8, addend: 0x0, symName: __ZN8nlohmann16json_abi_v3_11_36detail19json_sax_dom_parserINS0_10basic_jsonISt3mapSt6vectorNSt7__cxx1112basic_stringIcSt11char_traitsIcESaIcEEEbxydSaNS0_14adl_serializerES5_IhSaIhEEvEEE12handle_valueIDnEEPSF_OT_, symObjAddr: 0x21490, symBinAddr: 0x1000235C8, symSize: 0x218 }
  - { offsetInCU: 0x62B89, offset: 0x62B89, size: 0x8, addend: 0x0, symName: __ZN8nlohmann16json_abi_v3_11_36detail19json_sax_dom_parserINS0_10basic_jsonISt3mapSt6vectorNSt7__cxx1112basic_stringIcSt11char_traitsIcESaIcEEEbxydSaNS0_14adl_serializerES5_IhSaIhEEvEEE12handle_valueIRbEEPSF_OT_, symObjAddr: 0x21278, symBinAddr: 0x1000233B0, symSize: 0x218 }
  - { offsetInCU: 0x62BE1, offset: 0x62BE1, size: 0x8, addend: 0x0, symName: __ZN8nlohmann16json_abi_v3_11_36detail19json_sax_dom_parserINS0_10basic_jsonISt3mapSt6vectorNSt7__cxx1112basic_stringIcSt11char_traitsIcESaIcEEEbxydSaNS0_14adl_serializerES5_IhSaIhEEvEEE12handle_valueIRdEEPSF_OT_, symObjAddr: 0x21060, symBinAddr: 0x100023198, symSize: 0x218 }
  - { offsetInCU: 0x62C39, offset: 0x62C39, size: 0x8, addend: 0x0, symName: __ZNSt6vectorIPN8nlohmann16json_abi_v3_11_310basic_jsonISt3mapS_NSt7__cxx1112basic_stringIcSt11char_traitsIcESaIcEEEbxydSaNS1_14adl_serializerES_IhSaIhEEvEESaISE_EE9push_backEOSE_, symObjAddr: 0x21030, symBinAddr: 0x100023168, symSize: 0x30 }
  - { offsetInCU: 0x62C74, offset: 0x62C74, size: 0x8, addend: 0x0, symName: __ZN8nlohmann16json_abi_v3_11_36detail19json_sax_dom_parserINS0_10basic_jsonISt3mapSt6vectorNSt7__cxx1112basic_stringIcSt11char_traitsIcESaIcEEEbxydSaNS0_14adl_serializerES5_IhSaIhEEvEEE12handle_valueINS1_7value_tEEEPSF_OT_, symObjAddr: 0x20E18, symBinAddr: 0x100022F50, symSize: 0x218 }
  - { offsetInCU: 0x62CC8, offset: 0x62CC8, size: 0x8, addend: 0x0, symName: __ZN8nlohmann16json_abi_v3_11_36detail11concat_intoINSt7__cxx1112basic_stringIcSt11char_traitsIcESaIcEEES8_JRA12_KcS8_RA3_S9_S8_RKS8_ELi0EEEvRT_OT0_DpOT1_, symObjAddr: 0x20D70, symBinAddr: 0x100022EA8, symSize: 0xA8 }
  - { offsetInCU: 0x62D76, offset: 0x62D76, size: 0x8, addend: 0x0, symName: __ZN8nlohmann16json_abi_v3_11_36detail13concat_lengthINSt7__cxx1112basic_stringIcSt11char_traitsIcESaIcEEEJA12_cS8_A3_cS8_S8_EEEmRKT_DpRKT0_, symObjAddr: 0x20D18, symBinAddr: 0x100022E50, symSize: 0x58 }
  - { offsetInCU: 0x62DFC, offset: 0x62DFC, size: 0x8, addend: 0x0, symName: __ZN8nlohmann16json_abi_v3_11_36detail11concat_intoINSt7__cxx1112basic_stringIcSt11char_traitsIcESaIcEEERA12_KcJPS9_ELi0EEEvRT_OT0_DpOT1_, symObjAddr: 0x20CD0, symBinAddr: 0x100022E08, symSize: 0x48 }
  - { offsetInCU: 0x62E6B, offset: 0x62E6B, size: 0x8, addend: 0x0, symName: __ZSt7forwardIRA12_KcEOT_RNSt16remove_referenceIS3_E4typeE, symObjAddr: 0x20CBC, symBinAddr: 0x100022DF4, symSize: 0x14 }
  - { offsetInCU: 0x62E9D, offset: 0x62E9D, size: 0x8, addend: 0x0, symName: __ZN8nlohmann16json_abi_v3_11_36detail11concat_intoINSt7__cxx1112basic_stringIcSt11char_traitsIcESaIcEEEPKcJRA15_S9_S8_cELi0EEEvRT_OT0_DpOT1_, symObjAddr: 0x20C40, symBinAddr: 0x100022D78, symSize: 0x7C }
  - { offsetInCU: 0x62F2F, offset: 0x62F2F, size: 0x8, addend: 0x0, symName: __ZN8nlohmann16json_abi_v3_11_36detail13concat_lengthIJA15_cNSt7__cxx1112basic_stringIcSt11char_traitsIcESaIcEEEcEEEmPKcDpRKT_, symObjAddr: 0x20BF8, symBinAddr: 0x100022D30, symSize: 0x48 }
  - { offsetInCU: 0x62F90, offset: 0x62F90, size: 0x8, addend: 0x0, symName: __ZN8nlohmann16json_abi_v3_11_36detail11concat_intoINSt7__cxx1112basic_stringIcSt11char_traitsIcESaIcEEERA15_KcJRKS8_cELi0EEEvRT_OT0_DpOT1_, symObjAddr: 0x20B94, symBinAddr: 0x100022CCC, symSize: 0x64 }
  - { offsetInCU: 0x6300D, offset: 0x6300D, size: 0x8, addend: 0x0, symName: __ZSt7forwardIRA15_KcEOT_RNSt16remove_referenceIS3_E4typeE, symObjAddr: 0x20B80, symBinAddr: 0x100022CB8, symSize: 0x14 }
  - { offsetInCU: 0x63043, offset: 0x63043, size: 0x8, addend: 0x0, symName: __ZNK9__gnu_cxx17__normal_iteratorIPKcSt6vectorIcSaIcEEE4baseEv, symObjAddr: 0x20B6C, symBinAddr: 0x100022CA4, symSize: 0x14 }
  - { offsetInCU: 0x630D0, offset: 0x630D0, size: 0x8, addend: 0x0, symName: __ZN9__gnu_cxx17__normal_iteratorIPKcSt6vectorIcSaIcEEEC1ERKS2_, symObjAddr: 0x20B44, symBinAddr: 0x100022C7C, symSize: 0x28 }
  - { offsetInCU: 0x630F0, offset: 0x630F0, size: 0x8, addend: 0x0, symName: __ZNKSt6vectorIbSaIbEE3endEv, symObjAddr: 0x20AF8, symBinAddr: 0x100022C30, symSize: 0x4C }
  - { offsetInCU: 0x6311A, offset: 0x6311A, size: 0x8, addend: 0x0, symName: __ZNKSt6vectorIbSaIbEE5beginEv, symObjAddr: 0x20AA8, symBinAddr: 0x100022BE0, symSize: 0x50 }
  - { offsetInCU: 0x63144, offset: 0x63144, size: 0x8, addend: 0x0, symName: __ZN8nlohmann16json_abi_v3_11_36detail28json_sax_dom_callback_parserINS0_10basic_jsonISt3mapSt6vectorNSt7__cxx1112basic_stringIcSt11char_traitsIcESaIcEEEbxydSaNS0_14adl_serializerES5_IhSaIhEEvEEE12handle_valueIRyEESt4pairIbPSF_EOT_b, symObjAddr: 0x205E8, symBinAddr: 0x100022720, symSize: 0x4C0 }
  - { offsetInCU: 0x631E4, offset: 0x631E4, size: 0x8, addend: 0x0, symName: __ZN8nlohmann16json_abi_v3_11_36detail28json_sax_dom_callback_parserINS0_10basic_jsonISt3mapSt6vectorNSt7__cxx1112basic_stringIcSt11char_traitsIcESaIcEEEbxydSaNS0_14adl_serializerES5_IhSaIhEEvEEE12handle_valueIRSB_EESt4pairIbPSF_EOT_b, symObjAddr: 0x20128, symBinAddr: 0x100022260, symSize: 0x4C0 }
  - { offsetInCU: 0x63284, offset: 0x63284, size: 0x8, addend: 0x0, symName: __ZN8nlohmann16json_abi_v3_11_36detail28json_sax_dom_callback_parserINS0_10basic_jsonISt3mapSt6vectorNSt7__cxx1112basic_stringIcSt11char_traitsIcESaIcEEEbxydSaNS0_14adl_serializerES5_IhSaIhEEvEEE12handle_valueIRxEESt4pairIbPSF_EOT_b, symObjAddr: 0x1FC68, symBinAddr: 0x100021DA0, symSize: 0x4C0 }
  - { offsetInCU: 0x63324, offset: 0x63324, size: 0x8, addend: 0x0, symName: __ZN8nlohmann16json_abi_v3_11_36detail28json_sax_dom_callback_parserINS0_10basic_jsonISt3mapSt6vectorNSt7__cxx1112basic_stringIcSt11char_traitsIcESaIcEEEbxydSaNS0_14adl_serializerES5_IhSaIhEEvEEE12handle_valueIDnEESt4pairIbPSF_EOT_b, symObjAddr: 0x1F7A8, symBinAddr: 0x1000218E0, symSize: 0x4C0 }
  - { offsetInCU: 0x633C4, offset: 0x633C4, size: 0x8, addend: 0x0, symName: __ZN8nlohmann16json_abi_v3_11_36detail28json_sax_dom_callback_parserINS0_10basic_jsonISt3mapSt6vectorNSt7__cxx1112basic_stringIcSt11char_traitsIcESaIcEEEbxydSaNS0_14adl_serializerES5_IhSaIhEEvEEE12handle_valueIRbEESt4pairIbPSF_EOT_b, symObjAddr: 0x1F2E8, symBinAddr: 0x100021420, symSize: 0x4C0 }
  - { offsetInCU: 0x63464, offset: 0x63464, size: 0x8, addend: 0x0, symName: __ZN8nlohmann16json_abi_v3_11_36detail28json_sax_dom_callback_parserINS0_10basic_jsonISt3mapSt6vectorNSt7__cxx1112basic_stringIcSt11char_traitsIcESaIcEEEbxydSaNS0_14adl_serializerES5_IhSaIhEEvEEE12handle_valueIRdEESt4pairIbPSF_EOT_b, symObjAddr: 0x1EE28, symBinAddr: 0x100020F60, symSize: 0x4C0 }
  - { offsetInCU: 0x63507, offset: 0x63507, size: 0x8, addend: 0x0, symName: __ZN8nlohmann16json_abi_v3_11_36detail11concat_intoINSt7__cxx1112basic_stringIcSt11char_traitsIcESaIcEEERA26_KcJS8_cELi0EEEvRT_OT0_DpOT1_, symObjAddr: 0x1EDC4, symBinAddr: 0x100020EFC, symSize: 0x64 }
  - { offsetInCU: 0x63584, offset: 0x63584, size: 0x8, addend: 0x0, symName: __ZSt7forwardIRA26_KcEOT_RNSt16remove_referenceIS3_E4typeE, symObjAddr: 0x1EDB0, symBinAddr: 0x100020EE8, symSize: 0x14 }
  - { offsetInCU: 0x635B6, offset: 0x635B6, size: 0x8, addend: 0x0, symName: __ZN8nlohmann16json_abi_v3_11_36detail13concat_lengthIJNSt7__cxx1112basic_stringIcSt11char_traitsIcESaIcEEEcEEEmPKcDpRKT_, symObjAddr: 0x1ED70, symBinAddr: 0x100020EA8, symSize: 0x40 }
  - { offsetInCU: 0x63609, offset: 0x63609, size: 0x8, addend: 0x0, symName: __ZN8nlohmann16json_abi_v3_11_36detail6concatINSt7__cxx1112basic_stringIcSt11char_traitsIcESaIcEEEJRA23_KcS8_EEET_DpOT0_, symObjAddr: 0x1ECEC, symBinAddr: 0x100020E24, symSize: 0x84 }
  - { offsetInCU: 0x6366A, offset: 0x6366A, size: 0x8, addend: 0x0, symName: __ZNSt3mapINSt7__cxx1112basic_stringIcSt11char_traitsIcESaIcEEEN8nlohmann16json_abi_v3_11_310basic_jsonIS_St6vectorS5_bxydSaNS7_14adl_serializerES9_IhSaIhEEvEESt4lessIvESaISt4pairIKS5_SD_EEEixERSH_, symObjAddr: 0x1EC00, symBinAddr: 0x100020D38, symSize: 0xEC }
  - { offsetInCU: 0x63796, offset: 0x63796, size: 0x8, addend: 0x0, symName: __ZN8nlohmann16json_abi_v3_11_310basic_jsonISt3mapSt6vectorNSt7__cxx1112basic_stringIcSt11char_traitsIcESaIcEEEbxydSaNS0_14adl_serializerES3_IhSaIhEEvEC1IRS9_S9_Li0EEEOT_, symObjAddr: 0x1EB88, symBinAddr: 0x100020CC0, symSize: 0x78 }
  - { offsetInCU: 0x63731, offset: 0x63731, size: 0x8, addend: 0x0, symName: __ZN8nlohmann16json_abi_v3_11_310basic_jsonISt3mapSt6vectorNSt7__cxx1112basic_stringIcSt11char_traitsIcESaIcEEEbxydSaNS0_14adl_serializerES3_IhSaIhEEvE5eraseINS0_6detail9iter_implISD_EELi0EEET_SI_, symObjAddr: 0x1E76C, symBinAddr: 0x1000208A4, symSize: 0x41C }
  - { offsetInCU: 0x63AC3, offset: 0x63AC3, size: 0x8, addend: 0x0, symName: __ZNK8nlohmann16json_abi_v3_11_310basic_jsonISt3mapSt6vectorNSt7__cxx1112basic_stringIcSt11char_traitsIcESaIcEEEbxydSaNS0_14adl_serializerES3_IhSaIhEEvE9is_binaryEv, symObjAddr: 0x1E748, symBinAddr: 0x100020880, symSize: 0x24 }
  - { offsetInCU: 0x63BC8, offset: 0x63BC8, size: 0x8, addend: 0x0, symName: __ZN8nlohmann16json_abi_v3_11_36detail9iter_implINS0_10basic_jsonISt3mapSt6vectorNSt7__cxx1112basic_stringIcSt11char_traitsIcESaIcEEEbxydSaNS0_14adl_serializerES5_IhSaIhEEvEEEC1ERKSG_, symObjAddr: 0x1E6F8, symBinAddr: 0x100020830, symSize: 0x50 }
  - { offsetInCU: 0x63B44, offset: 0x63B44, size: 0x8, addend: 0x0, symName: __ZNK8nlohmann16json_abi_v3_11_36detail9iter_implINS0_10basic_jsonISt3mapSt6vectorNSt7__cxx1112basic_stringIcSt11char_traitsIcESaIcEEEbxydSaNS0_14adl_serializerES5_IhSaIhEEvEEEptEv, symObjAddr: 0x1E4B0, symBinAddr: 0x1000205E8, symSize: 0x248 }
  - { offsetInCU: 0x63C09, offset: 0x63C09, size: 0x8, addend: 0x0, symName: __ZN8nlohmann16json_abi_v3_11_36detail9iter_implINS0_10basic_jsonISt3mapSt6vectorNSt7__cxx1112basic_stringIcSt11char_traitsIcESaIcEEEbxydSaNS0_14adl_serializerES5_IhSaIhEEvEEEppEv, symObjAddr: 0x1E3AC, symBinAddr: 0x1000204E4, symSize: 0x104 }
  - { offsetInCU: 0x63CFA, offset: 0x63CFA, size: 0x8, addend: 0x0, symName: __ZNK8nlohmann16json_abi_v3_11_36detail9iter_implINS0_10basic_jsonISt3mapSt6vectorNSt7__cxx1112basic_stringIcSt11char_traitsIcESaIcEEEbxydSaNS0_14adl_serializerES5_IhSaIhEEvEEEneISG_LDnEEEbRKT_, symObjAddr: 0x1E380, symBinAddr: 0x1000204B8, symSize: 0x2C }
  - { offsetInCU: 0x63D3E, offset: 0x63D3E, size: 0x8, addend: 0x0, symName: __ZN8nlohmann16json_abi_v3_11_310basic_jsonISt3mapSt6vectorNSt7__cxx1112basic_stringIcSt11char_traitsIcESaIcEEEbxydSaNS0_14adl_serializerES3_IhSaIhEEvE3endEv, symObjAddr: 0x1E344, symBinAddr: 0x10002047C, symSize: 0x3C }
  - { offsetInCU: 0x63D79, offset: 0x63D79, size: 0x8, addend: 0x0, symName: __ZN8nlohmann16json_abi_v3_11_310basic_jsonISt3mapSt6vectorNSt7__cxx1112basic_stringIcSt11char_traitsIcESaIcEEEbxydSaNS0_14adl_serializerES3_IhSaIhEEvE5beginEv, symObjAddr: 0x1E308, symBinAddr: 0x100020440, symSize: 0x3C }
  - { offsetInCU: 0x63DB4, offset: 0x63DB4, size: 0x8, addend: 0x0, symName: __ZNK8nlohmann16json_abi_v3_11_310basic_jsonISt3mapSt6vectorNSt7__cxx1112basic_stringIcSt11char_traitsIcESaIcEEEbxydSaNS0_14adl_serializerES3_IhSaIhEEvE13is_structuredEv, symObjAddr: 0x1E2C0, symBinAddr: 0x1000203F8, symSize: 0x48 }
  - { offsetInCU: 0x63DDE, offset: 0x63DDE, size: 0x8, addend: 0x0, symName: __ZNSt6vectorIPN8nlohmann16json_abi_v3_11_310basic_jsonISt3mapS_NSt7__cxx1112basic_stringIcSt11char_traitsIcESaIcEEEbxydSaNS1_14adl_serializerES_IhSaIhEEvEESaISE_EE8pop_backEv, symObjAddr: 0x1E26C, symBinAddr: 0x1000203A4, symSize: 0x54 }
  - { offsetInCU: 0x63E62, offset: 0x63E62, size: 0x8, addend: 0x0, symName: __ZNKSt6vectorIPN8nlohmann16json_abi_v3_11_310basic_jsonISt3mapS_NSt7__cxx1112basic_stringIcSt11char_traitsIcESaIcEEEbxydSaNS1_14adl_serializerES_IhSaIhEEvEESaISE_EE5emptyEv, symObjAddr: 0x1E234, symBinAddr: 0x10002036C, symSize: 0x38 }
  - { offsetInCU: 0x63E88, offset: 0x63E88, size: 0x8, addend: 0x0, symName: __ZN8nlohmann16json_abi_v3_11_36detail12out_of_range6createIPNS0_10basic_jsonISt3mapSt6vectorNSt7__cxx1112basic_stringIcSt11char_traitsIcESaIcEEEbxydSaNS0_14adl_serializerES6_IhSaIhEEvEELi0EEES2_iRKSC_T_, symObjAddr: 0x1E0F4, symBinAddr: 0x10002022C, symSize: 0x140 }
  - { offsetInCU: 0x63F78, offset: 0x63F78, size: 0x8, addend: 0x0, symName: __ZN8nlohmann16json_abi_v3_11_36detail6concatINSt7__cxx1112basic_stringIcSt11char_traitsIcESaIcEEEJRA24_KcS8_EEET_DpOT0_, symObjAddr: 0x1E070, symBinAddr: 0x1000201A8, symSize: 0x84 }
  - { offsetInCU: 0x63FD9, offset: 0x63FD9, size: 0x8, addend: 0x0, symName: __ZNK8nlohmann16json_abi_v3_11_310basic_jsonISt3mapSt6vectorNSt7__cxx1112basic_stringIcSt11char_traitsIcESaIcEEEbxydSaNS0_14adl_serializerES3_IhSaIhEEvE8max_sizeEv, symObjAddr: 0x1E018, symBinAddr: 0x100020150, symSize: 0x58 }
  - { offsetInCU: 0x64003, offset: 0x64003, size: 0x8, addend: 0x0, symName: __ZNSt6vectorIPN8nlohmann16json_abi_v3_11_310basic_jsonISt3mapS_NSt7__cxx1112basic_stringIcSt11char_traitsIcESaIcEEEbxydSaNS1_14adl_serializerES_IhSaIhEEvEESaISE_EE4backEv, symObjAddr: 0x1DFE0, symBinAddr: 0x100020118, symSize: 0x38 }
  - { offsetInCU: 0x6402D, offset: 0x6402D, size: 0x8, addend: 0x0, symName: __ZNSt6vectorIPN8nlohmann16json_abi_v3_11_310basic_jsonISt3mapS_NSt7__cxx1112basic_stringIcSt11char_traitsIcESaIcEEEbxydSaNS1_14adl_serializerES_IhSaIhEEvEESaISE_EE9push_backERKSE_, symObjAddr: 0x1DF18, symBinAddr: 0x100020050, symSize: 0xC8 }
  - { offsetInCU: 0x640D4, offset: 0x640D4, size: 0x8, addend: 0x0, symName: __ZN8nlohmann16json_abi_v3_11_36detail28json_sax_dom_callback_parserINS0_10basic_jsonISt3mapSt6vectorNSt7__cxx1112basic_stringIcSt11char_traitsIcESaIcEEEbxydSaNS0_14adl_serializerES5_IhSaIhEEvEEE12handle_valueINS1_7value_tEEESt4pairIbPSF_EOT_b, symObjAddr: 0x1DA58, symBinAddr: 0x10001FB90, symSize: 0x4C0 }
  - { offsetInCU: 0x64174, offset: 0x64174, size: 0x8, addend: 0x0, symName: __ZNKSt8functionIFbiN8nlohmann16json_abi_v3_11_36detail13parse_event_tERNS1_10basic_jsonISt3mapSt6vectorNSt7__cxx1112basic_stringIcSt11char_traitsIcESaIcEEEbxydSaNS1_14adl_serializerES6_IhSaIhEEvEEEEclEiS3_SH_, symObjAddr: 0x1D9CC, symBinAddr: 0x10001FB04, symSize: 0x8C }
  - { offsetInCU: 0x641D1, offset: 0x641D1, size: 0x8, addend: 0x0, symName: __ZNKSt6vectorIPN8nlohmann16json_abi_v3_11_310basic_jsonISt3mapS_NSt7__cxx1112basic_stringIcSt11char_traitsIcESaIcEEEbxydSaNS1_14adl_serializerES_IhSaIhEEvEESaISE_EE4sizeEv, symObjAddr: 0x1D9A4, symBinAddr: 0x10001FADC, symSize: 0x28 }
  - { offsetInCU: 0x641F7, offset: 0x641F7, size: 0x8, addend: 0x0, symName: __ZSt8_DestroyIPPN8nlohmann16json_abi_v3_11_310basic_jsonISt3mapSt6vectorNSt7__cxx1112basic_stringIcSt11char_traitsIcESaIcEEEbxydSaNS1_14adl_serializerES4_IhSaIhEEvEEEvT_SH_, symObjAddr: 0x1D97C, symBinAddr: 0x10001FAB4, symSize: 0x28 }
  - { offsetInCU: 0x6423D, offset: 0x6423D, size: 0x8, addend: 0x0, symName: __ZNSt6vectorIbSaIbEE3endEv, symObjAddr: 0x1D944, symBinAddr: 0x10001FA7C, symSize: 0x38 }
  - { offsetInCU: 0x64267, offset: 0x64267, size: 0x8, addend: 0x0, symName: __ZNSt6vectorIbSaIbEE13_M_insert_auxESt13_Bit_iteratorb, symObjAddr: 0x1D730, symBinAddr: 0x10001F868, symSize: 0x214 }
  - { offsetInCU: 0x64321, offset: 0x64321, size: 0x8, addend: 0x0, symName: __ZNKSt13_Bvector_baseISaIbEE13_Bvector_impl11_M_end_addrEv, symObjAddr: 0x1D6F0, symBinAddr: 0x10001F828, symSize: 0x40 }
  - { offsetInCU: 0x6434B, offset: 0x6434B, size: 0x8, addend: 0x0, symName: __ZNSt13_Bvector_baseISaIbEE13_M_deallocateEv, symObjAddr: 0x1D660, symBinAddr: 0x10001F798, symSize: 0x90 }
  - { offsetInCU: 0x64419, offset: 0x64419, size: 0x8, addend: 0x0, symName: __ZNSt13_Bvector_baseISaIbEE18_Bvector_impl_dataC1Ev, symObjAddr: 0x1D62C, symBinAddr: 0x10001F764, symSize: 0x34 }
  - { offsetInCU: 0x64443, offset: 0x64443, size: 0x8, addend: 0x0, symName: __ZNSt13_Bvector_baseISaIbEE18_Bvector_impl_dataC2Ev, symObjAddr: 0x1D5F8, symBinAddr: 0x10001F730, symSize: 0x34 }
  - { offsetInCU: 0x64439, offset: 0x64439, size: 0x8, addend: 0x0, symName: __ZNSt12_Vector_baseIPN8nlohmann16json_abi_v3_11_310basic_jsonISt3mapSt6vectorNSt7__cxx1112basic_stringIcSt11char_traitsIcESaIcEEEbxydSaNS1_14adl_serializerES4_IhSaIhEEvEESaISF_EE13_M_deallocateEPSF_m, symObjAddr: 0x1D5A0, symBinAddr: 0x10001F6D8, symSize: 0x58 }
  - { offsetInCU: 0x6458E, offset: 0x6458E, size: 0x8, addend: 0x0, symName: __ZNSt15__new_allocatorIPN8nlohmann16json_abi_v3_11_310basic_jsonISt3mapSt6vectorNSt7__cxx1112basic_stringIcSt11char_traitsIcESaIcEEEbxydSaNS1_14adl_serializerES4_IhSaIhEEvEEED2Ev, symObjAddr: 0x1D58C, symBinAddr: 0x10001F6C4, symSize: 0x14 }
  - { offsetInCU: 0x645E5, offset: 0x645E5, size: 0x8, addend: 0x0, symName: __ZNSt12_Vector_baseIPN8nlohmann16json_abi_v3_11_310basic_jsonISt3mapSt6vectorNSt7__cxx1112basic_stringIcSt11char_traitsIcESaIcEEEbxydSaNS1_14adl_serializerES4_IhSaIhEEvEESaISF_EE17_Vector_impl_dataC2Ev, symObjAddr: 0x1D560, symBinAddr: 0x10001F698, symSize: 0x2C }
  - { offsetInCU: 0x64557, offset: 0x64557, size: 0x8, addend: 0x0, symName: __ZNSt12_Destroy_auxILb1EE9__destroyIPcEEvT_S3_, symObjAddr: 0x1D548, symBinAddr: 0x10001F680, symSize: 0x18 }
  - { offsetInCU: 0x645D3, offset: 0x645D3, size: 0x8, addend: 0x0, symName: __ZNSt12_Vector_baseIcSaIcEE12_Vector_implC1Ev, symObjAddr: 0x1D510, symBinAddr: 0x10001F648, symSize: 0x38 }
  - { offsetInCU: 0x64615, offset: 0x64615, size: 0x8, addend: 0x0, symName: __ZNSt15__new_allocatorIcE8allocateEmPKv, symObjAddr: 0x1D4AC, symBinAddr: 0x10001F5E4, symSize: 0x64 }
  - { offsetInCU: 0x6469D, offset: 0x6469D, size: 0x8, addend: 0x0, symName: __ZN8nlohmann16json_abi_v3_11_36detail11concat_intoINSt7__cxx1112basic_stringIcSt11char_traitsIcESaIcEEES8_JELi0EEEvRT_OT0_DpOT1_, symObjAddr: 0x1D474, symBinAddr: 0x10001F5AC, symSize: 0x38 }
  - { offsetInCU: 0x646F5, offset: 0x646F5, size: 0x8, addend: 0x0, symName: __ZN8nlohmann16json_abi_v3_11_36detail13concat_lengthINSt7__cxx1112basic_stringIcSt11char_traitsIcESaIcEEEJEEEmRKT_DpRKT0_, symObjAddr: 0x1D444, symBinAddr: 0x10001F57C, symSize: 0x30 }
  - { offsetInCU: 0x64733, offset: 0x64733, size: 0x8, addend: 0x0, symName: __ZN8nlohmann16json_abi_v3_11_36detail11concat_intoINSt7__cxx1112basic_stringIcSt11char_traitsIcESaIcEEES8_JRA3_KcELi0EEEvRT_OT0_DpOT1_, symObjAddr: 0x1D3FC, symBinAddr: 0x10001F534, symSize: 0x48 }
  - { offsetInCU: 0x6479B, offset: 0x6479B, size: 0x8, addend: 0x0, symName: __ZN8nlohmann16json_abi_v3_11_36detail13concat_lengthINSt7__cxx1112basic_stringIcSt11char_traitsIcESaIcEEEJA3_cEEEmRKT_DpRKT0_, symObjAddr: 0x1D3C4, symBinAddr: 0x10001F4FC, symSize: 0x38 }
  - { offsetInCU: 0x647ED, offset: 0x647ED, size: 0x8, addend: 0x0, symName: __ZN8nlohmann16json_abi_v3_11_36detail10serializerINS0_10basic_jsonISt3mapSt6vectorNSt7__cxx1112basic_stringIcSt11char_traitsIcESaIcEEEbxydSaNS0_14adl_serializerES5_IhSaIhEEvEEE10dump_floatEdSt17integral_constantIbLb1EE, symObjAddr: 0x1D338, symBinAddr: 0x10001F470, symSize: 0x8C }
  - { offsetInCU: 0x6489B, offset: 0x6489B, size: 0x8, addend: 0x0, symName: __ZN8nlohmann16json_abi_v3_11_36detail10serializerINS0_10basic_jsonISt3mapSt6vectorNSt7__cxx1112basic_stringIcSt11char_traitsIcESaIcEEEbxydSaNS0_14adl_serializerES5_IhSaIhEEvEEE18is_negative_numberIxLi0EEEbT_, symObjAddr: 0x1D318, symBinAddr: 0x10001F450, symSize: 0x20 }
  - { offsetInCU: 0x648DF, offset: 0x648DF, size: 0x8, addend: 0x0, symName: __ZN8nlohmann16json_abi_v3_11_36detail10serializerINS0_10basic_jsonISt3mapSt6vectorNSt7__cxx1112basic_stringIcSt11char_traitsIcESaIcEEEbxydSaNS0_14adl_serializerES5_IhSaIhEEvEEE18is_negative_numberIyLi0EEEbT_, symObjAddr: 0x1D300, symBinAddr: 0x10001F438, symSize: 0x18 }
  - { offsetInCU: 0x6491B, offset: 0x6491B, size: 0x8, addend: 0x0, symName: __ZNK9__gnu_cxx17__normal_iteratorIPhSt6vectorIhSaIhEEEdeEv, symObjAddr: 0x1D2E8, symBinAddr: 0x10001F420, symSize: 0x18 }
  - { offsetInCU: 0x64945, offset: 0x64945, size: 0x8, addend: 0x0, symName: __ZNK9__gnu_cxx17__normal_iteratorIPhSt6vectorIhSaIhEEEmiEl, symObjAddr: 0x1D2A8, symBinAddr: 0x10001F3E0, symSize: 0x40 }
  - { offsetInCU: 0x64980, offset: 0x64980, size: 0x8, addend: 0x0, symName: __ZNSt6vectorIhSaIhEE3endEv, symObjAddr: 0x1D280, symBinAddr: 0x10001F3B8, symSize: 0x28 }
  - { offsetInCU: 0x649C0, offset: 0x649C0, size: 0x8, addend: 0x0, symName: __ZNKSt5arrayIcLm2EEixEm, symObjAddr: 0x1D260, symBinAddr: 0x10001F398, symSize: 0x20 }
  - { offsetInCU: 0x649FA, offset: 0x649FA, size: 0x8, addend: 0x0, symName: __ZNKSt5arrayIS_IcLm2EELm100EEixEm, symObjAddr: 0x1D23C, symBinAddr: 0x10001F374, symSize: 0x24 }
  - { offsetInCU: 0x64A4A, offset: 0x64A4A, size: 0x8, addend: 0x0, symName: __ZN8nlohmann16json_abi_v3_11_36detail10serializerINS0_10basic_jsonISt3mapSt6vectorNSt7__cxx1112basic_stringIcSt11char_traitsIcESaIcEEEbxydSaNS0_14adl_serializerES5_IhSaIhEEvEEE12count_digitsEy, symObjAddr: 0x1D190, symBinAddr: 0x10001F2C8, symSize: 0xAC }
  - { offsetInCU: 0x64A96, offset: 0x64A96, size: 0x8, addend: 0x0, symName: __ZN8nlohmann16json_abi_v3_11_36detail10serializerINS0_10basic_jsonISt3mapSt6vectorNSt7__cxx1112basic_stringIcSt11char_traitsIcESaIcEEEbxydSaNS0_14adl_serializerES5_IhSaIhEEvEEE11remove_signEx, symObjAddr: 0x1D0F8, symBinAddr: 0x10001F230, symSize: 0x98 }
  - { offsetInCU: 0x64AE5, offset: 0x64AE5, size: 0x8, addend: 0x0, symName: __ZN8nlohmann16json_abi_v3_11_36detail10serializerINS0_10basic_jsonISt3mapSt6vectorNSt7__cxx1112basic_stringIcSt11char_traitsIcESaIcEEEbxydSaNS0_14adl_serializerES5_IhSaIhEEvEEE18is_negative_numberIhLi0EEEbT_, symObjAddr: 0x1D0DC, symBinAddr: 0x10001F214, symSize: 0x1C }
  - { offsetInCU: 0x64B21, offset: 0x64B21, size: 0x8, addend: 0x0, symName: __ZNSt5arrayIcLm64EE5beginEv, symObjAddr: 0x1D0C0, symBinAddr: 0x10001F1F8, symSize: 0x1C }
  - { offsetInCU: 0x64B6E, offset: 0x64B6E, size: 0x8, addend: 0x0, symName: __ZNK9__gnu_cxx17__normal_iteratorIPKhSt6vectorIhSaIhEEE4baseEv, symObjAddr: 0x1D0AC, symBinAddr: 0x10001F1E4, symSize: 0x14 }
  - { offsetInCU: 0x64BFB, offset: 0x64BFB, size: 0x8, addend: 0x0, symName: __ZN9__gnu_cxx17__normal_iteratorIPKhSt6vectorIhSaIhEEEC1ERKS2_, symObjAddr: 0x1D084, symBinAddr: 0x10001F1BC, symSize: 0x28 }
  - { offsetInCU: 0x64BF2, offset: 0x64BF2, size: 0x8, addend: 0x0, symName: __ZN9__gnu_cxxeqIPKhSt6vectorIhSaIhEEEEbRKNS_17__normal_iteratorIT_T0_EESB_, symObjAddr: 0x1D040, symBinAddr: 0x10001F178, symSize: 0x44 }
  - { offsetInCU: 0x64C43, offset: 0x64C43, size: 0x8, addend: 0x0, symName: __ZNKSt6vectorIhSaIhEE3endEv, symObjAddr: 0x1D018, symBinAddr: 0x10001F150, symSize: 0x28 }
  - { offsetInCU: 0x64C6D, offset: 0x64C6D, size: 0x8, addend: 0x0, symName: __ZNKSt6vectorIhSaIhEE5beginEv, symObjAddr: 0x1CFF4, symBinAddr: 0x10001F12C, symSize: 0x24 }
  - { offsetInCU: 0x64C97, offset: 0x64C97, size: 0x8, addend: 0x0, symName: __ZNK9__gnu_cxx17__normal_iteratorIPKN8nlohmann16json_abi_v3_11_310basic_jsonISt3mapSt6vectorNSt7__cxx1112basic_stringIcSt11char_traitsIcESaIcEEEbxydSaNS2_14adl_serializerES5_IhSaIhEEvEES5_ISF_SaISF_EEE4baseEv, symObjAddr: 0x1CFE0, symBinAddr: 0x10001F118, symSize: 0x14 }
  - { offsetInCU: 0x64DB6, offset: 0x64DB6, size: 0x8, addend: 0x0, symName: __ZN9__gnu_cxx17__normal_iteratorIPKN8nlohmann16json_abi_v3_11_310basic_jsonISt3mapSt6vectorNSt7__cxx1112basic_stringIcSt11char_traitsIcESaIcEEEbxydSaNS2_14adl_serializerES5_IhSaIhEEvEES5_ISF_SaISF_EEEC1ERKSH_, symObjAddr: 0x1CFB8, symBinAddr: 0x10001F0F0, symSize: 0x28 }
  - { offsetInCU: 0x64D14, offset: 0x64D14, size: 0x8, addend: 0x0, symName: __ZN9__gnu_cxxeqIPKN8nlohmann16json_abi_v3_11_310basic_jsonISt3mapSt6vectorNSt7__cxx1112basic_stringIcSt11char_traitsIcESaIcEEEbxydSaNS2_14adl_serializerES5_IhSaIhEEvEES5_ISF_SaISF_EEEEbRKNS_17__normal_iteratorIT_T0_EESP_, symObjAddr: 0x1CF74, symBinAddr: 0x10001F0AC, symSize: 0x44 }
  - { offsetInCU: 0x64D65, offset: 0x64D65, size: 0x8, addend: 0x0, symName: __ZNKSt6vectorIN8nlohmann16json_abi_v3_11_310basic_jsonISt3mapS_NSt7__cxx1112basic_stringIcSt11char_traitsIcESaIcEEEbxydSaNS1_14adl_serializerES_IhSaIhEEvEESaISD_EE3endEv, symObjAddr: 0x1CF4C, symBinAddr: 0x10001F084, symSize: 0x28 }
  - { offsetInCU: 0x64D8F, offset: 0x64D8F, size: 0x8, addend: 0x0, symName: __ZNKSt6vectorIN8nlohmann16json_abi_v3_11_310basic_jsonISt3mapS_NSt7__cxx1112basic_stringIcSt11char_traitsIcESaIcEEEbxydSaNS1_14adl_serializerES_IhSaIhEEvEESaISD_EE5beginEv, symObjAddr: 0x1CF28, symBinAddr: 0x10001F060, symSize: 0x24 }
  - { offsetInCU: 0x64DFA, offset: 0x64DFA, size: 0x8, addend: 0x0, symName: __ZNKSt8_Rb_treeINSt7__cxx1112basic_stringIcSt11char_traitsIcESaIcEEESt4pairIKS5_N8nlohmann16json_abi_v3_11_310basic_jsonISt3mapSt6vectorS5_bxydSaNS9_14adl_serializerESC_IhSaIhEEvEEESt10_Select1stISH_ESt4lessIvESaISH_EE3endEv, symObjAddr: 0x1CF00, symBinAddr: 0x10001F038, symSize: 0x28 }
  - { offsetInCU: 0x64E24, offset: 0x64E24, size: 0x8, addend: 0x0, symName: __ZNKSt13_Rb_tree_nodeISt4pairIKNSt7__cxx1112basic_stringIcSt11char_traitsIcESaIcEEEN8nlohmann16json_abi_v3_11_310basic_jsonISt3mapSt6vectorS6_bxydSaNS9_14adl_serializerESC_IhSaIhEEvEEEE9_M_valptrEv, symObjAddr: 0x1CEE0, symBinAddr: 0x10001F018, symSize: 0x20 }
  - { offsetInCU: 0x64E4A, offset: 0x64E4A, size: 0x8, addend: 0x0, symName: __ZN8nlohmann16json_abi_v3_11_36detail6concatINSt7__cxx1112basic_stringIcSt11char_traitsIcESaIcEEEJRA39_KcS8_EEET_DpOT0_, symObjAddr: 0x1CE5C, symBinAddr: 0x10001EF94, symSize: 0x84 }
  - { offsetInCU: 0x64EA7, offset: 0x64EA7, size: 0x8, addend: 0x0, symName: __ZN8nlohmann16json_abi_v3_11_36detail13binary_writerINS0_10basic_jsonISt3mapSt6vectorNSt7__cxx1112basic_stringIcSt11char_traitsIcESaIcEEEbxydSaNS0_14adl_serializerES5_IhSaIhEEvEEcE12to_char_typeIccLPv0EEEcT_, symObjAddr: 0x1CE48, symBinAddr: 0x10001EF80, symSize: 0x14 }
  - { offsetInCU: 0x64EE3, offset: 0x64EE3, size: 0x8, addend: 0x0, symName: __ZN8nlohmann16json_abi_v3_11_36detail6concatINSt7__cxx1112basic_stringIcSt11char_traitsIcESaIcEEEJRA29_KcS8_RA5_S9_S8_EEET_DpOT0_, symObjAddr: 0x1CD8C, symBinAddr: 0x10001EEC4, symSize: 0xBC }
  - { offsetInCU: 0x64F5C, offset: 0x64F5C, size: 0x8, addend: 0x0, symName: __ZN8nlohmann16json_abi_v3_11_36detail10serializerINS0_10basic_jsonISt3mapSt6vectorNSt7__cxx1112basic_stringIcSt11char_traitsIcESaIcEEEbxydSaNS0_14adl_serializerES5_IhSaIhEEvEEE9hex_bytesEh, symObjAddr: 0x1CCAC, symBinAddr: 0x10001EDE4, symSize: 0xE0 }
  - { offsetInCU: 0x6505E, offset: 0x6505E, size: 0x8, addend: 0x0, symName: __ZNSt5arrayIcLm512EEixEm, symObjAddr: 0x1CC8C, symBinAddr: 0x10001EDC4, symSize: 0x20 }
  - { offsetInCU: 0x65094, offset: 0x65094, size: 0x8, addend: 0x0, symName: __ZN8nlohmann16json_abi_v3_11_36detail10serializerINS0_10basic_jsonISt3mapSt6vectorNSt7__cxx1112basic_stringIcSt11char_traitsIcESaIcEEEbxydSaNS0_14adl_serializerES5_IhSaIhEEvEEE6decodeERhRjh, symObjAddr: 0x1CB44, symBinAddr: 0x10001EC7C, symSize: 0x148 }
  - { offsetInCU: 0x651C6, offset: 0x651C6, size: 0x8, addend: 0x0, symName: __ZZN8nlohmann16json_abi_v3_11_36detail10serializerINS0_10basic_jsonISt3mapSt6vectorNSt7__cxx1112basic_stringIcSt11char_traitsIcESaIcEEEbxydSaNS0_14adl_serializerES5_IhSaIhEEvEEE6decodeERhRjhE5utf8d, symObjAddr: 0x33F25, symBinAddr: 0x10003BCF5, symSize: 0x0 }
  - { offsetInCU: 0x65178, offset: 0x65178, size: 0x8, addend: 0x0, symName: __ZNKSt8_Rb_treeINSt7__cxx1112basic_stringIcSt11char_traitsIcESaIcEEESt4pairIKS5_N8nlohmann16json_abi_v3_11_310basic_jsonISt3mapSt6vectorS5_bxydSaNS9_14adl_serializerESC_IhSaIhEEvEEESt10_Select1stISH_ESt4lessIvESaISH_EE4sizeEv, symObjAddr: 0x1CB2C, symBinAddr: 0x10001EC64, symSize: 0x18 }
  - { offsetInCU: 0x651A2, offset: 0x651A2, size: 0x8, addend: 0x0, symName: __ZNKSt8_Rb_treeINSt7__cxx1112basic_stringIcSt11char_traitsIcESaIcEEESt4pairIKS5_N8nlohmann16json_abi_v3_11_310basic_jsonISt3mapSt6vectorS5_bxydSaNS9_14adl_serializerESC_IhSaIhEEvEEESt10_Select1stISH_ESt4lessIvESaISH_EE5beginEv, symObjAddr: 0x1CB04, symBinAddr: 0x10001EC3C, symSize: 0x28 }
  - { offsetInCU: 0x651CC, offset: 0x651CC, size: 0x8, addend: 0x0, symName: __ZNKSt19__shared_ptr_accessIN8nlohmann16json_abi_v3_11_36detail23output_adapter_protocolIcEELN9__gnu_cxx12_Lock_policyE2ELb0ELb0EE6_M_getEv, symObjAddr: 0x1CAE8, symBinAddr: 0x10001EC20, symSize: 0x1C }
  - { offsetInCU: 0x651F6, offset: 0x651F6, size: 0x8, addend: 0x0, symName: __ZNKSt8_Rb_treeINSt7__cxx1112basic_stringIcSt11char_traitsIcESaIcEEESt4pairIKS5_N8nlohmann16json_abi_v3_11_310basic_jsonISt3mapSt6vectorS5_bxydSaNS9_14adl_serializerESC_IhSaIhEEvEEESt10_Select1stISH_ESt4lessIvESaISH_EE5emptyEv, symObjAddr: 0x1CAC4, symBinAddr: 0x10001EBFC, symSize: 0x24 }
  - { offsetInCU: 0x652BE, offset: 0x652BE, size: 0x8, addend: 0x0, symName: __ZNSt12__shared_ptrIN8nlohmann16json_abi_v3_11_36detail23output_adapter_protocolIcEELN9__gnu_cxx12_Lock_policyE2EEC2EOS7_, symObjAddr: 0x1CA68, symBinAddr: 0x10001EBA0, symSize: 0x5C }
  - { offsetInCU: 0x6537D, offset: 0x6537D, size: 0x8, addend: 0x0, symName: __ZNSt12__shared_ptrIN8nlohmann16json_abi_v3_11_36detail23output_adapter_protocolIcEELN9__gnu_cxx12_Lock_policyE2EEC2INS2_21output_string_adapterIcNSt7__cxx1112basic_stringIcSt11char_traitsIcESaIcEEEEEvEEOS_IT_LS6_2EE, symObjAddr: 0x1CA0C, symBinAddr: 0x10001EB44, symSize: 0x5C }
  - { offsetInCU: 0x652E3, offset: 0x652E3, size: 0x8, addend: 0x0, symName: __ZSt4moveIRSt10shared_ptrIN8nlohmann16json_abi_v3_11_36detail21output_string_adapterIcNSt7__cxx1112basic_stringIcSt11char_traitsIcESaIcEEEEEEEONSt16remove_referenceIT_E4typeEOSF_, symObjAddr: 0x1C9F8, symBinAddr: 0x10001EB30, symSize: 0x14 }
  - { offsetInCU: 0x65415, offset: 0x65415, size: 0x8, addend: 0x0, symName: __ZNSt10shared_ptrIN8nlohmann16json_abi_v3_11_36detail21output_string_adapterIcNSt7__cxx1112basic_stringIcSt11char_traitsIcESaIcEEEEEEC1ISaIvEJRS9_EEESt20_Sp_alloc_shared_tagIT_EDpOT0_, symObjAddr: 0x1C9B4, symBinAddr: 0x10001EAEC, symSize: 0x44 }
  - { offsetInCU: 0x653B4, offset: 0x653B4, size: 0x8, addend: 0x0, symName: __ZNSt10unique_ptrIN8nlohmann16json_abi_v3_11_327byte_container_with_subtypeISt6vectorIhSaIhEEEEZNS1_10basic_jsonISt3mapS3_NSt7__cxx1112basic_stringIcSt11char_traitsIcESaIcEEEbxydSaNS1_14adl_serializerES5_vE6createIS6_JRKS6_EEEPT_DpOT0_EUlPS6_E_E7releaseEv, symObjAddr: 0x1C998, symBinAddr: 0x10001EAD0, symSize: 0x1C }
  - { offsetInCU: 0x653DA, offset: 0x653DA, size: 0x8, addend: 0x0, symName: __ZStneIN8nlohmann16json_abi_v3_11_327byte_container_with_subtypeISt6vectorIhSaIhEEEEZNS1_10basic_jsonISt3mapS3_NSt7__cxx1112basic_stringIcSt11char_traitsIcESaIcEEEbxydSaNS1_14adl_serializerES5_vE6createIS6_JRKS6_EEEPT_DpOT0_EUlPS6_E_EbRKSt10unique_ptrISK_T0_EDn, symObjAddr: 0x1C978, symBinAddr: 0x10001EAB0, symSize: 0x20 }
  - { offsetInCU: 0x6546A, offset: 0x6546A, size: 0x8, addend: 0x0, symName: __ZSt7forwardIRKN8nlohmann16json_abi_v3_11_327byte_container_with_subtypeISt6vectorIhSaIhEEEEEOT_RNSt16remove_referenceIS9_E4typeE, symObjAddr: 0x1C964, symBinAddr: 0x10001EA9C, symSize: 0x14 }
  - { offsetInCU: 0x654A0, offset: 0x654A0, size: 0x8, addend: 0x0, symName: __ZNKSt10unique_ptrIN8nlohmann16json_abi_v3_11_327byte_container_with_subtypeISt6vectorIhSaIhEEEEZNS1_10basic_jsonISt3mapS3_NSt7__cxx1112basic_stringIcSt11char_traitsIcESaIcEEEbxydSaNS1_14adl_serializerES5_vE6createIS6_JRKS6_EEEPT_DpOT0_EUlPS6_E_E3getEv, symObjAddr: 0x1C948, symBinAddr: 0x10001EA80, symSize: 0x1C }
  - { offsetInCU: 0x655F5, offset: 0x655F5, size: 0x8, addend: 0x0, symName: __ZNSt10unique_ptrIN8nlohmann16json_abi_v3_11_327byte_container_with_subtypeISt6vectorIhSaIhEEEEZNS1_10basic_jsonISt3mapS3_NSt7__cxx1112basic_stringIcSt11char_traitsIcESaIcEEEbxydSaNS1_14adl_serializerES5_vE6createIS6_JRKS6_EEEPT_DpOT0_EUlPS6_E_ED1Ev, symObjAddr: 0x1C8E0, symBinAddr: 0x10001EA18, symSize: 0x68 }
  - { offsetInCU: 0x65694, offset: 0x65694, size: 0x8, addend: 0x0, symName: __ZNSt10unique_ptrIN8nlohmann16json_abi_v3_11_327byte_container_with_subtypeISt6vectorIhSaIhEEEEZNS1_10basic_jsonISt3mapS3_NSt7__cxx1112basic_stringIcSt11char_traitsIcESaIcEEEbxydSaNS1_14adl_serializerES5_vE6createIS6_JRKS6_EEEPT_DpOT0_EUlPS6_E_EC1ISQ_vEESP_RKSQ_, symObjAddr: 0x1C8B0, symBinAddr: 0x10001E9E8, symSize: 0x30 }
  - { offsetInCU: 0x6572E, offset: 0x6572E, size: 0x8, addend: 0x0, symName: __ZNSt15__uniq_ptr_dataIN8nlohmann16json_abi_v3_11_327byte_container_with_subtypeISt6vectorIhSaIhEEEEZNS1_10basic_jsonISt3mapS3_NSt7__cxx1112basic_stringIcSt11char_traitsIcESaIcEEEbxydSaNS1_14adl_serializerES5_vE6createIS6_JRKS6_EEEPT_DpOT0_EUlPS6_E_Lb1ELb0EECI1St15__uniq_ptr_implIS6_SQ_EIRKSQ_EESP_OSK_, symObjAddr: 0x1C880, symBinAddr: 0x10001E9B8, symSize: 0x30 }
  - { offsetInCU: 0x65643, offset: 0x65643, size: 0x8, addend: 0x0, symName: __ZNSt10unique_ptrINSt7__cxx1112basic_stringIcSt11char_traitsIcESaIcEEEZN8nlohmann16json_abi_v3_11_310basic_jsonISt3mapSt6vectorS5_bxydSaNS7_14adl_serializerESA_IhSaIhEEvE6createIS5_JRKS5_EEEPT_DpOT0_EUlPS5_E_E7releaseEv, symObjAddr: 0x1C864, symBinAddr: 0x10001E99C, symSize: 0x1C }
  - { offsetInCU: 0x65669, offset: 0x65669, size: 0x8, addend: 0x0, symName: __ZStneINSt7__cxx1112basic_stringIcSt11char_traitsIcESaIcEEEZN8nlohmann16json_abi_v3_11_310basic_jsonISt3mapSt6vectorS5_bxydSaNS7_14adl_serializerESA_IhSaIhEEvE6createIS5_JRKS5_EEEPT_DpOT0_EUlPS5_E_EbRKSt10unique_ptrISI_T0_EDn, symObjAddr: 0x1C844, symBinAddr: 0x10001E97C, symSize: 0x20 }
  - { offsetInCU: 0x656B2, offset: 0x656B2, size: 0x8, addend: 0x0, symName: __ZNKSt10unique_ptrINSt7__cxx1112basic_stringIcSt11char_traitsIcESaIcEEEZN8nlohmann16json_abi_v3_11_310basic_jsonISt3mapSt6vectorS5_bxydSaNS7_14adl_serializerESA_IhSaIhEEvE6createIS5_JRKS5_EEEPT_DpOT0_EUlPS5_E_E3getEv, symObjAddr: 0x1C828, symBinAddr: 0x10001E960, symSize: 0x1C }
  - { offsetInCU: 0x657E3, offset: 0x657E3, size: 0x8, addend: 0x0, symName: __ZNSt10unique_ptrINSt7__cxx1112basic_stringIcSt11char_traitsIcESaIcEEEZN8nlohmann16json_abi_v3_11_310basic_jsonISt3mapSt6vectorS5_bxydSaNS7_14adl_serializerESA_IhSaIhEEvE6createIS5_JRKS5_EEEPT_DpOT0_EUlPS5_E_ED1Ev, symObjAddr: 0x1C7C0, symBinAddr: 0x10001E8F8, symSize: 0x68 }
  - { offsetInCU: 0x65882, offset: 0x65882, size: 0x8, addend: 0x0, symName: __ZNSt10unique_ptrINSt7__cxx1112basic_stringIcSt11char_traitsIcESaIcEEEZN8nlohmann16json_abi_v3_11_310basic_jsonISt3mapSt6vectorS5_bxydSaNS7_14adl_serializerESA_IhSaIhEEvE6createIS5_JRKS5_EEEPT_DpOT0_EUlPS5_E_EC1ISO_vEESN_RKSO_, symObjAddr: 0x1C790, symBinAddr: 0x10001E8C8, symSize: 0x30 }
  - { offsetInCU: 0x6591C, offset: 0x6591C, size: 0x8, addend: 0x0, symName: __ZNSt15__uniq_ptr_dataINSt7__cxx1112basic_stringIcSt11char_traitsIcESaIcEEEZN8nlohmann16json_abi_v3_11_310basic_jsonISt3mapSt6vectorS5_bxydSaNS7_14adl_serializerESA_IhSaIhEEvE6createIS5_JRKS5_EEEPT_DpOT0_EUlPS5_E_Lb1ELb0EECI1St15__uniq_ptr_implIS5_SO_EIRKSO_EESN_OSI_, symObjAddr: 0x1C760, symBinAddr: 0x10001E898, symSize: 0x30 }
  - { offsetInCU: 0x65855, offset: 0x65855, size: 0x8, addend: 0x0, symName: __ZNSt10unique_ptrISt6vectorIN8nlohmann16json_abi_v3_11_310basic_jsonISt3mapS0_NSt7__cxx1112basic_stringIcSt11char_traitsIcESaIcEEEbxydSaNS2_14adl_serializerES0_IhSaIhEEvEESaISE_EEZNSE_6createISG_JRKSG_EEEPT_DpOT0_EUlPSG_E_E7releaseEv, symObjAddr: 0x1C744, symBinAddr: 0x10001E87C, symSize: 0x1C }
  - { offsetInCU: 0x6587B, offset: 0x6587B, size: 0x8, addend: 0x0, symName: __ZStneISt6vectorIN8nlohmann16json_abi_v3_11_310basic_jsonISt3mapS0_NSt7__cxx1112basic_stringIcSt11char_traitsIcESaIcEEEbxydSaNS2_14adl_serializerES0_IhSaIhEEvEESaISE_EEZNSE_6createISG_JRKSG_EEEPT_DpOT0_EUlPSG_E_EbRKSt10unique_ptrISK_T0_EDn, symObjAddr: 0x1C724, symBinAddr: 0x10001E85C, symSize: 0x20 }
  - { offsetInCU: 0x6590B, offset: 0x6590B, size: 0x8, addend: 0x0, symName: __ZSt7forwardIRKSt6vectorIN8nlohmann16json_abi_v3_11_310basic_jsonISt3mapS0_NSt7__cxx1112basic_stringIcSt11char_traitsIcESaIcEEEbxydSaNS2_14adl_serializerES0_IhSaIhEEvEESaISE_EEEOT_RNSt16remove_referenceISJ_E4typeE, symObjAddr: 0x1C710, symBinAddr: 0x10001E848, symSize: 0x14 }
  - { offsetInCU: 0x65941, offset: 0x65941, size: 0x8, addend: 0x0, symName: __ZNKSt10unique_ptrISt6vectorIN8nlohmann16json_abi_v3_11_310basic_jsonISt3mapS0_NSt7__cxx1112basic_stringIcSt11char_traitsIcESaIcEEEbxydSaNS2_14adl_serializerES0_IhSaIhEEvEESaISE_EEZNSE_6createISG_JRKSG_EEEPT_DpOT0_EUlPSG_E_E3getEv, symObjAddr: 0x1C6F4, symBinAddr: 0x10001E82C, symSize: 0x1C }
  - { offsetInCU: 0x65A80, offset: 0x65A80, size: 0x8, addend: 0x0, symName: __ZNSt10unique_ptrISt6vectorIN8nlohmann16json_abi_v3_11_310basic_jsonISt3mapS0_NSt7__cxx1112basic_stringIcSt11char_traitsIcESaIcEEEbxydSaNS2_14adl_serializerES0_IhSaIhEEvEESaISE_EEZNSE_6createISG_JRKSG_EEEPT_DpOT0_EUlPSG_E_ED1Ev, symObjAddr: 0x1C68C, symBinAddr: 0x10001E7C4, symSize: 0x68 }
  - { offsetInCU: 0x65B1F, offset: 0x65B1F, size: 0x8, addend: 0x0, symName: __ZNSt10unique_ptrISt6vectorIN8nlohmann16json_abi_v3_11_310basic_jsonISt3mapS0_NSt7__cxx1112basic_stringIcSt11char_traitsIcESaIcEEEbxydSaNS2_14adl_serializerES0_IhSaIhEEvEESaISE_EEZNSE_6createISG_JRKSG_EEEPT_DpOT0_EUlPSG_E_EC1ISQ_vEESP_RKSQ_, symObjAddr: 0x1C65C, symBinAddr: 0x10001E794, symSize: 0x30 }
  - { offsetInCU: 0x65BB9, offset: 0x65BB9, size: 0x8, addend: 0x0, symName: __ZNSt15__uniq_ptr_dataISt6vectorIN8nlohmann16json_abi_v3_11_310basic_jsonISt3mapS0_NSt7__cxx1112basic_stringIcSt11char_traitsIcESaIcEEEbxydSaNS2_14adl_serializerES0_IhSaIhEEvEESaISE_EEZNSE_6createISG_JRKSG_EEEPT_DpOT0_EUlPSG_E_Lb1ELb0EECI1St15__uniq_ptr_implISG_SQ_EIRKSQ_EESP_OSK_, symObjAddr: 0x1C62C, symBinAddr: 0x10001E764, symSize: 0x30 }
  - { offsetInCU: 0x65AE4, offset: 0x65AE4, size: 0x8, addend: 0x0, symName: __ZNSt10unique_ptrISt3mapINSt7__cxx1112basic_stringIcSt11char_traitsIcESaIcEEEN8nlohmann16json_abi_v3_11_310basic_jsonIS0_St6vectorS6_bxydSaNS8_14adl_serializerESA_IhSaIhEEvEESt4lessIvESaISt4pairIKS6_SE_EEEZNSE_6createISL_JRKSL_EEEPT_DpOT0_EUlPSL_E_E7releaseEv, symObjAddr: 0x1C610, symBinAddr: 0x10001E748, symSize: 0x1C }
  - { offsetInCU: 0x65B0A, offset: 0x65B0A, size: 0x8, addend: 0x0, symName: __ZStneISt3mapINSt7__cxx1112basic_stringIcSt11char_traitsIcESaIcEEEN8nlohmann16json_abi_v3_11_310basic_jsonIS0_St6vectorS6_bxydSaNS8_14adl_serializerESA_IhSaIhEEvEESt4lessIvESaISt4pairIKS6_SE_EEEZNSE_6createISL_JRKSL_EEEPT_DpOT0_EUlPSL_E_EbRKSt10unique_ptrISP_T0_EDn, symObjAddr: 0x1C5F0, symBinAddr: 0x10001E728, symSize: 0x20 }
  - { offsetInCU: 0x65B9A, offset: 0x65B9A, size: 0x8, addend: 0x0, symName: __ZSt7forwardIRKSt3mapINSt7__cxx1112basic_stringIcSt11char_traitsIcESaIcEEEN8nlohmann16json_abi_v3_11_310basic_jsonIS0_St6vectorS6_bxydSaNS8_14adl_serializerESA_IhSaIhEEvEESt4lessIvESaISt4pairIKS6_SE_EEEEOT_RNSt16remove_referenceISO_E4typeE, symObjAddr: 0x1C5DC, symBinAddr: 0x10001E714, symSize: 0x14 }
  - { offsetInCU: 0x65BD0, offset: 0x65BD0, size: 0x8, addend: 0x0, symName: __ZNKSt10unique_ptrISt3mapINSt7__cxx1112basic_stringIcSt11char_traitsIcESaIcEEEN8nlohmann16json_abi_v3_11_310basic_jsonIS0_St6vectorS6_bxydSaNS8_14adl_serializerESA_IhSaIhEEvEESt4lessIvESaISt4pairIKS6_SE_EEEZNSE_6createISL_JRKSL_EEEPT_DpOT0_EUlPSL_E_E3getEv, symObjAddr: 0x1C5C0, symBinAddr: 0x10001E6F8, symSize: 0x1C }
  - { offsetInCU: 0x65D29, offset: 0x65D29, size: 0x8, addend: 0x0, symName: __ZNSt10unique_ptrISt3mapINSt7__cxx1112basic_stringIcSt11char_traitsIcESaIcEEEN8nlohmann16json_abi_v3_11_310basic_jsonIS0_St6vectorS6_bxydSaNS8_14adl_serializerESA_IhSaIhEEvEESt4lessIvESaISt4pairIKS6_SE_EEEZNSE_6createISL_JRKSL_EEEPT_DpOT0_EUlPSL_E_ED1Ev, symObjAddr: 0x1C558, symBinAddr: 0x10001E690, symSize: 0x68 }
  - { offsetInCU: 0x65DC8, offset: 0x65DC8, size: 0x8, addend: 0x0, symName: __ZNSt10unique_ptrISt3mapINSt7__cxx1112basic_stringIcSt11char_traitsIcESaIcEEEN8nlohmann16json_abi_v3_11_310basic_jsonIS0_St6vectorS6_bxydSaNS8_14adl_serializerESA_IhSaIhEEvEESt4lessIvESaISt4pairIKS6_SE_EEEZNSE_6createISL_JRKSL_EEEPT_DpOT0_EUlPSL_E_EC1ISV_vEESU_RKSV_, symObjAddr: 0x1C528, symBinAddr: 0x10001E660, symSize: 0x30 }
  - { offsetInCU: 0x65E62, offset: 0x65E62, size: 0x8, addend: 0x0, symName: __ZNSt15__uniq_ptr_dataISt3mapINSt7__cxx1112basic_stringIcSt11char_traitsIcESaIcEEEN8nlohmann16json_abi_v3_11_310basic_jsonIS0_St6vectorS6_bxydSaNS8_14adl_serializerESA_IhSaIhEEvEESt4lessIvESaISt4pairIKS6_SE_EEEZNSE_6createISL_JRKSL_EEEPT_DpOT0_EUlPSL_E_Lb1ELb0EECI1St15__uniq_ptr_implISL_SV_EIRKSV_EESU_OSP_, symObjAddr: 0x1C4F8, symBinAddr: 0x10001E630, symSize: 0x30 }
  - { offsetInCU: 0x65D6F, offset: 0x65D6F, size: 0x8, addend: 0x0, symName: __ZSt26__unguarded_insertion_sortIN9__gnu_cxx17__normal_iteratorIPSt4pairIiS2_IiiEESt6vectorIS4_SaIS4_EEEENS0_5__ops15_Iter_less_iterEEvT_SC_T0_, symObjAddr: 0x1C48C, symBinAddr: 0x10001E5C4, symSize: 0x6C }
  - { offsetInCU: 0x65DF1, offset: 0x65DF1, size: 0x8, addend: 0x0, symName: __ZSt16__insertion_sortIN9__gnu_cxx17__normal_iteratorIPSt4pairIiS2_IiiEESt6vectorIS4_SaIS4_EEEENS0_5__ops15_Iter_less_iterEEvT_SC_T0_, symObjAddr: 0x1C37C, symBinAddr: 0x10001E4B4, symSize: 0x110 }
  - { offsetInCU: 0x65E9B, offset: 0x65E9B, size: 0x8, addend: 0x0, symName: __ZNK9__gnu_cxx17__normal_iteratorIPSt4pairIiS1_IiiEESt6vectorIS3_SaIS3_EEEplEl, symObjAddr: 0x1C330, symBinAddr: 0x10001E468, symSize: 0x4C }
  - { offsetInCU: 0x65ED2, offset: 0x65ED2, size: 0x8, addend: 0x0, symName: __ZSt27__unguarded_partition_pivotIN9__gnu_cxx17__normal_iteratorIPSt4pairIiS2_IiiEESt6vectorIS4_SaIS4_EEEENS0_5__ops15_Iter_less_iterEET_SC_SC_T0_, symObjAddr: 0x1C28C, symBinAddr: 0x10001E3C4, symSize: 0xA4 }
  - { offsetInCU: 0x65F41, offset: 0x65F41, size: 0x8, addend: 0x0, symName: __ZSt14__partial_sortIN9__gnu_cxx17__normal_iteratorIPSt4pairIiS2_IiiEESt6vectorIS4_SaIS4_EEEENS0_5__ops15_Iter_less_iterEEvT_SC_SC_T0_, symObjAddr: 0x1C240, symBinAddr: 0x10001E378, symSize: 0x4C }
  - { offsetInCU: 0x65FB4, offset: 0x65FB4, size: 0x8, addend: 0x0, symName: __ZNK9__gnu_cxx17__normal_iteratorIPSt4pairIiS1_IiiEESt6vectorIS3_SaIS3_EEE4baseEv, symObjAddr: 0x1C22C, symBinAddr: 0x10001E364, symSize: 0x14 }
  - { offsetInCU: 0x65FDE, offset: 0x65FDE, size: 0x8, addend: 0x0, symName: __ZNK9__gnu_cxx17__normal_iteratorIPSt4pairIiS1_IiiEESt6vectorIS3_SaIS3_EEEdeEv, symObjAddr: 0x1C214, symBinAddr: 0x10001E34C, symSize: 0x18 }
  - { offsetInCU: 0x66008, offset: 0x66008, size: 0x8, addend: 0x0, symName: __ZNK9__gnu_cxx17__normal_iteratorIPSt4pairIiS1_IiiEESt6vectorIS3_SaIS3_EEEmiEl, symObjAddr: 0x1C1C4, symBinAddr: 0x10001E2FC, symSize: 0x50 }
  - { offsetInCU: 0x6603F, offset: 0x6603F, size: 0x8, addend: 0x0, symName: __ZNSt6vectorISt4pairIiS0_IiiEESaIS2_EE11_S_relocateEPS2_S5_S5_RS3_, symObjAddr: 0x1C190, symBinAddr: 0x10001E2C8, symSize: 0x34 }
  - { offsetInCU: 0x6609C, offset: 0x6609C, size: 0x8, addend: 0x0, symName: __ZSt12__to_addressISt4pairIiS0_IiiEEEPT_S4_, symObjAddr: 0x1C17C, symBinAddr: 0x10001E2B4, symSize: 0x14 }
  - { offsetInCU: 0x660D2, offset: 0x660D2, size: 0x8, addend: 0x0, symName: __ZNSt12_Vector_baseISt4pairIiS0_IiiEESaIS2_EE11_M_allocateEm, symObjAddr: 0x1C12C, symBinAddr: 0x10001E264, symSize: 0x50 }
  - { offsetInCU: 0x6613A, offset: 0x6613A, size: 0x8, addend: 0x0, symName: __ZNKSt6vectorISt4pairIiS0_IiiEESaIS2_EE12_M_check_lenEmPKc, symObjAddr: 0x1C05C, symBinAddr: 0x10001E194, symSize: 0xD0 }
  - { offsetInCU: 0x661D5, offset: 0x661D5, size: 0x8, addend: 0x0, symName: __ZNSt12_Destroy_auxILb1EE9__destroyIPSt4pairIiS2_IiiEEEEvT_S6_, symObjAddr: 0x1C044, symBinAddr: 0x10001E17C, symSize: 0x18 }
  - { offsetInCU: 0x6620D, offset: 0x6620D, size: 0x8, addend: 0x0, symName: __ZNSt15__new_allocatorISt4pairIiS0_IiiEEE10deallocateEPS2_m, symObjAddr: 0x1C008, symBinAddr: 0x10001E140, symSize: 0x3C }
  - { offsetInCU: 0x66257, offset: 0x66257, size: 0x8, addend: 0x0, symName: __ZNK8nlohmann16json_abi_v3_11_36detail5lexerINS0_10basic_jsonISt3mapSt6vectorNSt7__cxx1112basic_stringIcSt11char_traitsIcESaIcEEEbxydSaNS0_14adl_serializerES5_IhSaIhEEvEENS1_22iterator_input_adapterIN9__gnu_cxx17__normal_iteratorIPKcSB_EEEEE17get_error_messageEv, symObjAddr: 0x1BFF0, symBinAddr: 0x10001E128, symSize: 0x18 }
  - { offsetInCU: 0x66281, offset: 0x66281, size: 0x8, addend: 0x0, symName: __ZN8nlohmann16json_abi_v3_11_36detail5lexerINS0_10basic_jsonISt3mapSt6vectorNSt7__cxx1112basic_stringIcSt11char_traitsIcESaIcEEEbxydSaNS0_14adl_serializerES5_IhSaIhEEvEENS1_22iterator_input_adapterIN9__gnu_cxx17__normal_iteratorIPKcSB_EEEEE4scanEv, symObjAddr: 0x1BD54, symBinAddr: 0x10001DE8C, symSize: 0x29C }
  - { offsetInCU: 0x663DD, offset: 0x663DD, size: 0x8, addend: 0x0, symName: __ZNK8nlohmann16json_abi_v3_11_36detail5lexerINS0_10basic_jsonISt3mapSt6vectorNSt7__cxx1112basic_stringIcSt11char_traitsIcESaIcEEEbxydSaNS0_14adl_serializerES5_IhSaIhEEvEENS1_22iterator_input_adapterIN9__gnu_cxx17__normal_iteratorIPKcSB_EEEEE19get_number_unsignedEv, symObjAddr: 0x1BD3C, symBinAddr: 0x10001DE74, symSize: 0x18 }
  - { offsetInCU: 0x66407, offset: 0x66407, size: 0x8, addend: 0x0, symName: __ZNK8nlohmann16json_abi_v3_11_36detail5lexerINS0_10basic_jsonISt3mapSt6vectorNSt7__cxx1112basic_stringIcSt11char_traitsIcESaIcEEEbxydSaNS0_14adl_serializerES5_IhSaIhEEvEENS1_22iterator_input_adapterIN9__gnu_cxx17__normal_iteratorIPKcSB_EEEEE18get_number_integerEv, symObjAddr: 0x1BD24, symBinAddr: 0x10001DE5C, symSize: 0x18 }
  - { offsetInCU: 0x66431, offset: 0x66431, size: 0x8, addend: 0x0, symName: __ZNK8nlohmann16json_abi_v3_11_36detail5lexerINS0_10basic_jsonISt3mapSt6vectorNSt7__cxx1112basic_stringIcSt11char_traitsIcESaIcEEEbxydSaNS0_14adl_serializerES5_IhSaIhEEvEENS1_22iterator_input_adapterIN9__gnu_cxx17__normal_iteratorIPKcSB_EEEEE16get_number_floatEv, symObjAddr: 0x1BD08, symBinAddr: 0x10001DE40, symSize: 0x1C }
  - { offsetInCU: 0x6645B, offset: 0x6645B, size: 0x8, addend: 0x0, symName: __ZN8nlohmann16json_abi_v3_11_36detail5lexerINS0_10basic_jsonISt3mapSt6vectorNSt7__cxx1112basic_stringIcSt11char_traitsIcESaIcEEEbxydSaNS0_14adl_serializerES5_IhSaIhEEvEENS1_22iterator_input_adapterIN9__gnu_cxx17__normal_iteratorIPKcSB_EEEEE10get_stringEv, symObjAddr: 0x1BCF0, symBinAddr: 0x10001DE28, symSize: 0x18 }
  - { offsetInCU: 0x665B0, offset: 0x665B0, size: 0x8, addend: 0x0, symName: __ZN8nlohmann16json_abi_v3_11_36detail5lexerINS0_10basic_jsonISt3mapSt6vectorNSt7__cxx1112basic_stringIcSt11char_traitsIcESaIcEEEbxydSaNS0_14adl_serializerES5_IhSaIhEEvEENS1_22iterator_input_adapterIN9__gnu_cxx17__normal_iteratorIPKcSB_EEEEEC1EOSM_b, symObjAddr: 0x1BC1C, symBinAddr: 0x10001DD54, symSize: 0xD4 }
  - { offsetInCU: 0x664EF, offset: 0x664EF, size: 0x8, addend: 0x0, symName: __ZN8nlohmann16json_abi_v3_11_36detail13input_adapterIN9__gnu_cxx17__normal_iteratorIPKcNSt7__cxx1112basic_stringIcSt11char_traitsIcESaIcEEEEEEENS1_30iterator_input_adapter_factoryIT_vE12adapter_typeESF_SF_, symObjAddr: 0x1BBF8, symBinAddr: 0x10001DD30, symSize: 0x24 }
  - { offsetInCU: 0x66573, offset: 0x66573, size: 0x8, addend: 0x0, symName: __ZNKSt19istreambuf_iteratorIcSt11char_traitsIcEE6_M_getEv, symObjAddr: 0x1BB6C, symBinAddr: 0x10001DCA4, symSize: 0x8C }
  - { offsetInCU: 0x665AD, offset: 0x665AD, size: 0x8, addend: 0x0, symName: __ZNKSt19istreambuf_iteratorIcSt11char_traitsIcEE5equalERKS2_, symObjAddr: 0x1BB2C, symBinAddr: 0x10001DC64, symSize: 0x40 }
  - { offsetInCU: 0x665E3, offset: 0x665E3, size: 0x8, addend: 0x0, symName: __ZSt32__make_move_if_noexcept_iteratorIiSt13move_iteratorIPiEET0_PT_, symObjAddr: 0x1BB08, symBinAddr: 0x10001DC40, symSize: 0x24 }
  - { offsetInCU: 0x6661F, offset: 0x6661F, size: 0x8, addend: 0x0, symName: __ZSt18uninitialized_copyIN9__gnu_cxx17__normal_iteratorIPiSt6vectorIiSaIiEEEES2_ET0_T_S8_S7_, symObjAddr: 0x1BACC, symBinAddr: 0x10001DC04, symSize: 0x3C }
  - { offsetInCU: 0x6669A, offset: 0x6669A, size: 0x8, addend: 0x0, symName: __ZSt9__advanceIN9__gnu_cxx17__normal_iteratorIPiSt6vectorIiSaIiEEEElEvRT_T0_St26random_access_iterator_tag, symObjAddr: 0x1BAA0, symBinAddr: 0x10001DBD8, symSize: 0x2C }
  - { offsetInCU: 0x666EE, offset: 0x666EE, size: 0x8, addend: 0x0, symName: __ZSt22__copy_move_backward_aILb1EPiS0_ET1_T0_S2_S1_, symObjAddr: 0x1BA40, symBinAddr: 0x10001DB78, symSize: 0x60 }
  - { offsetInCU: 0x66756, offset: 0x66756, size: 0x8, addend: 0x0, symName: __ZSt12__miter_baseIPiET_S1_, symObjAddr: 0x1BA2C, symBinAddr: 0x10001DB64, symSize: 0x14 }
  - { offsetInCU: 0x66789, offset: 0x66789, size: 0x8, addend: 0x0, symName: __ZSt22__uninitialized_copy_aISt13move_iteratorIPiES1_iET0_T_S4_S3_RSaIT1_E, symObjAddr: 0x1B9FC, symBinAddr: 0x10001DB34, symSize: 0x30 }
  - { offsetInCU: 0x667F9, offset: 0x667F9, size: 0x8, addend: 0x0, symName: __ZSt18make_move_iteratorIPiESt13move_iteratorIT_ES2_, symObjAddr: 0x1B9D0, symBinAddr: 0x10001DB08, symSize: 0x2C }
  - { offsetInCU: 0x6682C, offset: 0x6682C, size: 0x8, addend: 0x0, symName: __ZSt13__copy_move_aILb1EN9__gnu_cxx17__normal_iteratorIPiSt6vectorIiSaIiEEEES6_ET1_T0_S8_S7_, symObjAddr: 0x1B970, symBinAddr: 0x10001DAA8, symSize: 0x60 }
  - { offsetInCU: 0x66894, offset: 0x66894, size: 0x8, addend: 0x0, symName: __ZSt12__niter_baseIPiET_S1_, symObjAddr: 0x1B95C, symBinAddr: 0x10001DA94, symSize: 0x14 }
  - { offsetInCU: 0x668C7, offset: 0x668C7, size: 0x8, addend: 0x0, symName: __ZSt14__copy_move_a2ILb0EPiS0_ET1_T0_S2_S1_, symObjAddr: 0x1B930, symBinAddr: 0x10001DA68, symSize: 0x2C }
  - { offsetInCU: 0x66933, offset: 0x66933, size: 0x8, addend: 0x0, symName: __ZNSt12_Vector_baseIN8nlohmann16json_abi_v3_11_310basic_jsonISt3mapSt6vectorNSt7__cxx1112basic_stringIcSt11char_traitsIcESaIcEEEbxydSaNS1_14adl_serializerES4_IhSaIhEEvEESaISE_EE19_M_get_Tp_allocatorEv, symObjAddr: 0x1B91C, symBinAddr: 0x10001DA54, symSize: 0x14 }
  - { offsetInCU: 0x66959, offset: 0x66959, size: 0x8, addend: 0x0, symName: __ZNSt6vectorIN8nlohmann16json_abi_v3_11_310basic_jsonISt3mapS_NSt7__cxx1112basic_stringIcSt11char_traitsIcESaIcEEEbxydSaNS1_14adl_serializerES_IhSaIhEEvEESaISD_EE11_S_relocateEPSD_SG_SG_RSE_, symObjAddr: 0x1B8E8, symBinAddr: 0x10001DA20, symSize: 0x34 }
  - { offsetInCU: 0x669B6, offset: 0x669B6, size: 0x8, addend: 0x0, symName: __ZSt12__to_addressIN8nlohmann16json_abi_v3_11_310basic_jsonISt3mapSt6vectorNSt7__cxx1112basic_stringIcSt11char_traitsIcESaIcEEEbxydSaNS1_14adl_serializerES4_IhSaIhEEvEEEPT_SG_, symObjAddr: 0x1B8D4, symBinAddr: 0x10001DA0C, symSize: 0x14 }
  - { offsetInCU: 0x66A1E, offset: 0x66A1E, size: 0x8, addend: 0x0, symName: __ZNSt12_Vector_baseIN8nlohmann16json_abi_v3_11_310basic_jsonISt3mapSt6vectorNSt7__cxx1112basic_stringIcSt11char_traitsIcESaIcEEEbxydSaNS1_14adl_serializerES4_IhSaIhEEvEESaISE_EE11_M_allocateEm, symObjAddr: 0x1B884, symBinAddr: 0x10001D9BC, symSize: 0x50 }
  - { offsetInCU: 0x66A82, offset: 0x66A82, size: 0x8, addend: 0x0, symName: __ZN9__gnu_cxxmiIPN8nlohmann16json_abi_v3_11_310basic_jsonISt3mapSt6vectorNSt7__cxx1112basic_stringIcSt11char_traitsIcESaIcEEEbxydSaNS2_14adl_serializerES5_IhSaIhEEvEES5_ISF_SaISF_EEEENS_17__normal_iteratorIT_T0_E15difference_typeERKSM_SP_, symObjAddr: 0x1B844, symBinAddr: 0x10001D97C, symSize: 0x40 }
  - { offsetInCU: 0x66AD3, offset: 0x66AD3, size: 0x8, addend: 0x0, symName: __ZNKSt6vectorIN8nlohmann16json_abi_v3_11_310basic_jsonISt3mapS_NSt7__cxx1112basic_stringIcSt11char_traitsIcESaIcEEEbxydSaNS1_14adl_serializerES_IhSaIhEEvEESaISD_EE12_M_check_lenEmPKc, symObjAddr: 0x1B774, symBinAddr: 0x10001D8AC, symSize: 0xD0 }
  - { offsetInCU: 0x66B72, offset: 0x66B72, size: 0x8, addend: 0x0, symName: __ZNSt10unique_ptrIN8nlohmann16json_abi_v3_11_327byte_container_with_subtypeISt6vectorIhSaIhEEEEZNS1_10basic_jsonISt3mapS3_NSt7__cxx1112basic_stringIcSt11char_traitsIcESaIcEEEbxydSaNS1_14adl_serializerES5_vE6createIS6_JEEEPT_DpOT0_EUlPS6_E_E7releaseEv, symObjAddr: 0x1B758, symBinAddr: 0x10001D890, symSize: 0x1C }
  - { offsetInCU: 0x66B98, offset: 0x66B98, size: 0x8, addend: 0x0, symName: __ZStneIN8nlohmann16json_abi_v3_11_327byte_container_with_subtypeISt6vectorIhSaIhEEEEZNS1_10basic_jsonISt3mapS3_NSt7__cxx1112basic_stringIcSt11char_traitsIcESaIcEEEbxydSaNS1_14adl_serializerES5_vE6createIS6_JEEEPT_DpOT0_EUlPS6_E_EbRKSt10unique_ptrISI_T0_EDn, symObjAddr: 0x1B738, symBinAddr: 0x10001D870, symSize: 0x20 }
  - { offsetInCU: 0x66C19, offset: 0x66C19, size: 0x8, addend: 0x0, symName: __ZNKSt10unique_ptrIN8nlohmann16json_abi_v3_11_327byte_container_with_subtypeISt6vectorIhSaIhEEEEZNS1_10basic_jsonISt3mapS3_NSt7__cxx1112basic_stringIcSt11char_traitsIcESaIcEEEbxydSaNS1_14adl_serializerES5_vE6createIS6_JEEEPT_DpOT0_EUlPS6_E_E3getEv, symObjAddr: 0x1B71C, symBinAddr: 0x10001D854, symSize: 0x1C }
  - { offsetInCU: 0x66D69, offset: 0x66D69, size: 0x8, addend: 0x0, symName: __ZNSt10unique_ptrIN8nlohmann16json_abi_v3_11_327byte_container_with_subtypeISt6vectorIhSaIhEEEEZNS1_10basic_jsonISt3mapS3_NSt7__cxx1112basic_stringIcSt11char_traitsIcESaIcEEEbxydSaNS1_14adl_serializerES5_vE6createIS6_JEEEPT_DpOT0_EUlPS6_E_ED1Ev, symObjAddr: 0x1B6B4, symBinAddr: 0x10001D7EC, symSize: 0x68 }
  - { offsetInCU: 0x66E08, offset: 0x66E08, size: 0x8, addend: 0x0, symName: __ZNSt10unique_ptrIN8nlohmann16json_abi_v3_11_327byte_container_with_subtypeISt6vectorIhSaIhEEEEZNS1_10basic_jsonISt3mapS3_NSt7__cxx1112basic_stringIcSt11char_traitsIcESaIcEEEbxydSaNS1_14adl_serializerES5_vE6createIS6_JEEEPT_DpOT0_EUlPS6_E_EC1ISO_vEESN_RKSO_, symObjAddr: 0x1B684, symBinAddr: 0x10001D7BC, symSize: 0x30 }
  - { offsetInCU: 0x66EA2, offset: 0x66EA2, size: 0x8, addend: 0x0, symName: __ZNSt15__uniq_ptr_dataIN8nlohmann16json_abi_v3_11_327byte_container_with_subtypeISt6vectorIhSaIhEEEEZNS1_10basic_jsonISt3mapS3_NSt7__cxx1112basic_stringIcSt11char_traitsIcESaIcEEEbxydSaNS1_14adl_serializerES5_vE6createIS6_JEEEPT_DpOT0_EUlPS6_E_Lb1ELb0EECI1St15__uniq_ptr_implIS6_SO_EIRKSO_EESN_OSI_, symObjAddr: 0x1B654, symBinAddr: 0x10001D78C, symSize: 0x30 }
  - { offsetInCU: 0x66DE0, offset: 0x66DE0, size: 0x8, addend: 0x0, symName: __ZNSt10unique_ptrINSt7__cxx1112basic_stringIcSt11char_traitsIcESaIcEEEZN8nlohmann16json_abi_v3_11_310basic_jsonISt3mapSt6vectorS5_bxydSaNS7_14adl_serializerESA_IhSaIhEEvE6createIS5_JRA1_KcEEEPT_DpOT0_EUlPS5_E_E7releaseEv, symObjAddr: 0x1B638, symBinAddr: 0x10001D770, symSize: 0x1C }
  - { offsetInCU: 0x66E06, offset: 0x66E06, size: 0x8, addend: 0x0, symName: __ZStneINSt7__cxx1112basic_stringIcSt11char_traitsIcESaIcEEEZN8nlohmann16json_abi_v3_11_310basic_jsonISt3mapSt6vectorS5_bxydSaNS7_14adl_serializerESA_IhSaIhEEvE6createIS5_JRA1_KcEEEPT_DpOT0_EUlPS5_E_EbRKSt10unique_ptrISJ_T0_EDn, symObjAddr: 0x1B618, symBinAddr: 0x10001D750, symSize: 0x20 }
  - { offsetInCU: 0x66E96, offset: 0x66E96, size: 0x8, addend: 0x0, symName: __ZSt7forwardIRA1_KcEOT_RNSt16remove_referenceIS3_E4typeE, symObjAddr: 0x1B604, symBinAddr: 0x10001D73C, symSize: 0x14 }
  - { offsetInCU: 0x66ECC, offset: 0x66ECC, size: 0x8, addend: 0x0, symName: __ZNKSt10unique_ptrINSt7__cxx1112basic_stringIcSt11char_traitsIcESaIcEEEZN8nlohmann16json_abi_v3_11_310basic_jsonISt3mapSt6vectorS5_bxydSaNS7_14adl_serializerESA_IhSaIhEEvE6createIS5_JRA1_KcEEEPT_DpOT0_EUlPS5_E_E3getEv, symObjAddr: 0x1B5E8, symBinAddr: 0x10001D720, symSize: 0x1C }
  - { offsetInCU: 0x66FFE, offset: 0x66FFE, size: 0x8, addend: 0x0, symName: __ZNSt10unique_ptrINSt7__cxx1112basic_stringIcSt11char_traitsIcESaIcEEEZN8nlohmann16json_abi_v3_11_310basic_jsonISt3mapSt6vectorS5_bxydSaNS7_14adl_serializerESA_IhSaIhEEvE6createIS5_JRA1_KcEEEPT_DpOT0_EUlPS5_E_ED1Ev, symObjAddr: 0x1B580, symBinAddr: 0x10001D6B8, symSize: 0x68 }
  - { offsetInCU: 0x6709D, offset: 0x6709D, size: 0x8, addend: 0x0, symName: __ZNSt10unique_ptrINSt7__cxx1112basic_stringIcSt11char_traitsIcESaIcEEEZN8nlohmann16json_abi_v3_11_310basic_jsonISt3mapSt6vectorS5_bxydSaNS7_14adl_serializerESA_IhSaIhEEvE6createIS5_JRA1_KcEEEPT_DpOT0_EUlPS5_E_EC1ISP_vEESO_RKSP_, symObjAddr: 0x1B550, symBinAddr: 0x10001D688, symSize: 0x30 }
  - { offsetInCU: 0x67137, offset: 0x67137, size: 0x8, addend: 0x0, symName: __ZNSt15__uniq_ptr_dataINSt7__cxx1112basic_stringIcSt11char_traitsIcESaIcEEEZN8nlohmann16json_abi_v3_11_310basic_jsonISt3mapSt6vectorS5_bxydSaNS7_14adl_serializerESA_IhSaIhEEvE6createIS5_JRA1_KcEEEPT_DpOT0_EUlPS5_E_Lb1ELb0EECI1St15__uniq_ptr_implIS5_SP_EIRKSP_EESO_OSJ_, symObjAddr: 0x1B520, symBinAddr: 0x10001D658, symSize: 0x30 }
  - { offsetInCU: 0x67093, offset: 0x67093, size: 0x8, addend: 0x0, symName: __ZNSt10unique_ptrISt6vectorIN8nlohmann16json_abi_v3_11_310basic_jsonISt3mapS0_NSt7__cxx1112basic_stringIcSt11char_traitsIcESaIcEEEbxydSaNS2_14adl_serializerES0_IhSaIhEEvEESaISE_EEZNSE_6createISG_JEEEPT_DpOT0_EUlPSG_E_E7releaseEv, symObjAddr: 0x1B504, symBinAddr: 0x10001D63C, symSize: 0x1C }
  - { offsetInCU: 0x670B9, offset: 0x670B9, size: 0x8, addend: 0x0, symName: __ZStneISt6vectorIN8nlohmann16json_abi_v3_11_310basic_jsonISt3mapS0_NSt7__cxx1112basic_stringIcSt11char_traitsIcESaIcEEEbxydSaNS2_14adl_serializerES0_IhSaIhEEvEESaISE_EEZNSE_6createISG_JEEEPT_DpOT0_EUlPSG_E_EbRKSt10unique_ptrISI_T0_EDn, symObjAddr: 0x1B4E4, symBinAddr: 0x10001D61C, symSize: 0x20 }
  - { offsetInCU: 0x6713A, offset: 0x6713A, size: 0x8, addend: 0x0, symName: __ZNKSt10unique_ptrISt6vectorIN8nlohmann16json_abi_v3_11_310basic_jsonISt3mapS0_NSt7__cxx1112basic_stringIcSt11char_traitsIcESaIcEEEbxydSaNS2_14adl_serializerES0_IhSaIhEEvEESaISE_EEZNSE_6createISG_JEEEPT_DpOT0_EUlPSG_E_E3getEv, symObjAddr: 0x1B4C8, symBinAddr: 0x10001D600, symSize: 0x1C }
  - { offsetInCU: 0x67274, offset: 0x67274, size: 0x8, addend: 0x0, symName: __ZNSt10unique_ptrISt6vectorIN8nlohmann16json_abi_v3_11_310basic_jsonISt3mapS0_NSt7__cxx1112basic_stringIcSt11char_traitsIcESaIcEEEbxydSaNS2_14adl_serializerES0_IhSaIhEEvEESaISE_EEZNSE_6createISG_JEEEPT_DpOT0_EUlPSG_E_ED1Ev, symObjAddr: 0x1B460, symBinAddr: 0x10001D598, symSize: 0x68 }
  - { offsetInCU: 0x67313, offset: 0x67313, size: 0x8, addend: 0x0, symName: __ZNSt10unique_ptrISt6vectorIN8nlohmann16json_abi_v3_11_310basic_jsonISt3mapS0_NSt7__cxx1112basic_stringIcSt11char_traitsIcESaIcEEEbxydSaNS2_14adl_serializerES0_IhSaIhEEvEESaISE_EEZNSE_6createISG_JEEEPT_DpOT0_EUlPSG_E_EC1ISO_vEESN_RKSO_, symObjAddr: 0x1B430, symBinAddr: 0x10001D568, symSize: 0x30 }
  - { offsetInCU: 0x673AD, offset: 0x673AD, size: 0x8, addend: 0x0, symName: __ZNSt15__uniq_ptr_dataISt6vectorIN8nlohmann16json_abi_v3_11_310basic_jsonISt3mapS0_NSt7__cxx1112basic_stringIcSt11char_traitsIcESaIcEEEbxydSaNS2_14adl_serializerES0_IhSaIhEEvEESaISE_EEZNSE_6createISG_JEEEPT_DpOT0_EUlPSG_E_Lb1ELb0EECI1St15__uniq_ptr_implISG_SO_EIRKSO_EESN_OSI_, symObjAddr: 0x1B400, symBinAddr: 0x10001D538, symSize: 0x30 }
  - { offsetInCU: 0x672D9, offset: 0x672D9, size: 0x8, addend: 0x0, symName: __ZN8nlohmann16json_abi_v3_11_36detail11concat_intoINSt7__cxx1112basic_stringIcSt11char_traitsIcESaIcEEEPKcJELi0EEEvRT_OT0_DpOT1_, symObjAddr: 0x1B3C4, symBinAddr: 0x10001D4FC, symSize: 0x3C }
  - { offsetInCU: 0x67331, offset: 0x67331, size: 0x8, addend: 0x0, symName: __ZN8nlohmann16json_abi_v3_11_36detail13concat_lengthIJEEEmPKcDpRKT_, symObjAddr: 0x1B394, symBinAddr: 0x10001D4CC, symSize: 0x30 }
  - { offsetInCU: 0x67366, offset: 0x67366, size: 0x8, addend: 0x0, symName: __ZN8nlohmann16json_abi_v3_11_36detail7to_jsonINS0_10basic_jsonISt3mapSt6vectorNSt7__cxx1112basic_stringIcSt11char_traitsIcESaIcEEEbxydSaNS0_14adl_serializerES5_IhSaIhEEvEEjLi0EEEvRT_T0_, symObjAddr: 0x1B368, symBinAddr: 0x10001D4A0, symSize: 0x2C }
  - { offsetInCU: 0x673B3, offset: 0x673B3, size: 0x8, addend: 0x0, symName: __ZN8nlohmann16json_abi_v3_11_36detail7to_jsonINS0_10basic_jsonISt3mapSt6vectorNSt7__cxx1112basic_stringIcSt11char_traitsIcESaIcEEEbxydSaNS0_14adl_serializerES5_IhSaIhEEvEEiLi0EEEvRT_T0_, symObjAddr: 0x1B33C, symBinAddr: 0x10001D474, symSize: 0x2C }
  - { offsetInCU: 0x67404, offset: 0x67404, size: 0x8, addend: 0x0, symName: __ZNSt3mapINSt7__cxx1112basic_stringIcSt11char_traitsIcESaIcEEEN8nlohmann16json_abi_v3_11_310basic_jsonIS_St6vectorS5_bxydSaNS7_14adl_serializerES9_IhSaIhEEvEESt4lessIvESaISt4pairIKS5_SD_EEE12emplace_hintIJS5_DnEEESt17_Rb_tree_iteratorISI_ESt23_Rb_tree_const_iteratorISI_EDpOT_, symObjAddr: 0x1B2E8, symBinAddr: 0x10001D420, symSize: 0x54 }
  - { offsetInCU: 0x6746B, offset: 0x6746B, size: 0x8, addend: 0x0, symName: __ZSt7forwardIDnEOT_RNSt16remove_referenceIS0_E4typeE, symObjAddr: 0x1B2D4, symBinAddr: 0x10001D40C, symSize: 0x14 }
  - { offsetInCU: 0x674A4, offset: 0x674A4, size: 0x8, addend: 0x0, symName: __ZSt7forwardIRDnEOT_RNSt16remove_referenceIS1_E4typeE, symObjAddr: 0x1B2C0, symBinAddr: 0x10001D3F8, symSize: 0x14 }
  - { offsetInCU: 0x674DA, offset: 0x674DA, size: 0x8, addend: 0x0, symName: __ZNSt10unique_ptrISt3mapINSt7__cxx1112basic_stringIcSt11char_traitsIcESaIcEEEN8nlohmann16json_abi_v3_11_310basic_jsonIS0_St6vectorS6_bxydSaNS8_14adl_serializerESA_IhSaIhEEvEESt4lessIvESaISt4pairIKS6_SE_EEEZNSE_6createISL_JEEEPT_DpOT0_EUlPSL_E_E7releaseEv, symObjAddr: 0x1B2A4, symBinAddr: 0x10001D3DC, symSize: 0x1C }
  - { offsetInCU: 0x67500, offset: 0x67500, size: 0x8, addend: 0x0, symName: __ZStneISt3mapINSt7__cxx1112basic_stringIcSt11char_traitsIcESaIcEEEN8nlohmann16json_abi_v3_11_310basic_jsonIS0_St6vectorS6_bxydSaNS8_14adl_serializerESA_IhSaIhEEvEESt4lessIvESaISt4pairIKS6_SE_EEEZNSE_6createISL_JEEEPT_DpOT0_EUlPSL_E_EbRKSt10unique_ptrISN_T0_EDn, symObjAddr: 0x1B284, symBinAddr: 0x10001D3BC, symSize: 0x20 }
  - { offsetInCU: 0x67581, offset: 0x67581, size: 0x8, addend: 0x0, symName: __ZNKSt10unique_ptrISt3mapINSt7__cxx1112basic_stringIcSt11char_traitsIcESaIcEEEN8nlohmann16json_abi_v3_11_310basic_jsonIS0_St6vectorS6_bxydSaNS8_14adl_serializerESA_IhSaIhEEvEESt4lessIvESaISt4pairIKS6_SE_EEEZNSE_6createISL_JEEEPT_DpOT0_EUlPSL_E_E3getEv, symObjAddr: 0x1B268, symBinAddr: 0x10001D3A0, symSize: 0x1C }
  - { offsetInCU: 0x676D5, offset: 0x676D5, size: 0x8, addend: 0x0, symName: __ZNSt10unique_ptrISt3mapINSt7__cxx1112basic_stringIcSt11char_traitsIcESaIcEEEN8nlohmann16json_abi_v3_11_310basic_jsonIS0_St6vectorS6_bxydSaNS8_14adl_serializerESA_IhSaIhEEvEESt4lessIvESaISt4pairIKS6_SE_EEEZNSE_6createISL_JEEEPT_DpOT0_EUlPSL_E_ED1Ev, symObjAddr: 0x1B200, symBinAddr: 0x10001D338, symSize: 0x68 }
  - { offsetInCU: 0x67774, offset: 0x67774, size: 0x8, addend: 0x0, symName: __ZNSt10unique_ptrISt3mapINSt7__cxx1112basic_stringIcSt11char_traitsIcESaIcEEEN8nlohmann16json_abi_v3_11_310basic_jsonIS0_St6vectorS6_bxydSaNS8_14adl_serializerESA_IhSaIhEEvEESt4lessIvESaISt4pairIKS6_SE_EEEZNSE_6createISL_JEEEPT_DpOT0_EUlPSL_E_EC1IST_vEESS_RKST_, symObjAddr: 0x1B1D0, symBinAddr: 0x10001D308, symSize: 0x30 }
  - { offsetInCU: 0x6780E, offset: 0x6780E, size: 0x8, addend: 0x0, symName: __ZNSt15__uniq_ptr_dataISt3mapINSt7__cxx1112basic_stringIcSt11char_traitsIcESaIcEEEN8nlohmann16json_abi_v3_11_310basic_jsonIS0_St6vectorS6_bxydSaNS8_14adl_serializerESA_IhSaIhEEvEESt4lessIvESaISt4pairIKS6_SE_EEEZNSE_6createISL_JEEEPT_DpOT0_EUlPSL_E_Lb1ELb0EECI1St15__uniq_ptr_implISL_ST_EIRKST_EESS_OSN_, symObjAddr: 0x1B1A0, symBinAddr: 0x10001D2D8, symSize: 0x30 }
  - { offsetInCU: 0x67744, offset: 0x67744, size: 0x8, addend: 0x0, symName: __ZSt12__relocate_aIPiS0_SaIiEET0_T_S3_S2_RT1_, symObjAddr: 0x1B144, symBinAddr: 0x10001D27C, symSize: 0x5C }
  - { offsetInCU: 0x677C0, offset: 0x677C0, size: 0x8, addend: 0x0, symName: __ZNKSt6vectorIiSaIiEE8max_sizeEv, symObjAddr: 0x1B124, symBinAddr: 0x10001D25C, symSize: 0x20 }
  - { offsetInCU: 0x677EA, offset: 0x677EA, size: 0x8, addend: 0x0, symName: __ZNK9__gnu_cxx17__normal_iteratorIPSt6vectorIiSaIiEES1_IS3_SaIS3_EEEdeEv, symObjAddr: 0x1B10C, symBinAddr: 0x10001D244, symSize: 0x18 }
  - { offsetInCU: 0x67814, offset: 0x67814, size: 0x8, addend: 0x0, symName: __ZNK9__gnu_cxx17__normal_iteratorIPSt6vectorIiSaIiEES1_IS3_SaIS3_EEEmiEl, symObjAddr: 0x1B0BC, symBinAddr: 0x10001D1F4, symSize: 0x50 }
  - { offsetInCU: 0x6784B, offset: 0x6784B, size: 0x8, addend: 0x0, symName: __ZNSt6vectorIS_IiSaIiEESaIS1_EE11_S_relocateEPS1_S4_S4_RS2_, symObjAddr: 0x1B088, symBinAddr: 0x10001D1C0, symSize: 0x34 }
  - { offsetInCU: 0x678A8, offset: 0x678A8, size: 0x8, addend: 0x0, symName: __ZSt12__to_addressISt6vectorIiSaIiEEEPT_S4_, symObjAddr: 0x1B074, symBinAddr: 0x10001D1AC, symSize: 0x14 }
  - { offsetInCU: 0x678DA, offset: 0x678DA, size: 0x8, addend: 0x0, symName: __ZN9__gnu_cxxmiIPSt6vectorIiSaIiEES1_IS3_SaIS3_EEEENS_17__normal_iteratorIT_T0_E15difference_typeERKSA_SD_, symObjAddr: 0x1B028, symBinAddr: 0x10001D160, symSize: 0x4C }
  - { offsetInCU: 0x6792B, offset: 0x6792B, size: 0x8, addend: 0x0, symName: __ZNKSt6vectorIS_IiSaIiEESaIS1_EE12_M_check_lenEmPKc, symObjAddr: 0x1AF58, symBinAddr: 0x10001D090, symSize: 0xD0 }
  - { offsetInCU: 0x679D6, offset: 0x679D6, size: 0x8, addend: 0x0, symName: __ZNK8nlohmann16json_abi_v3_11_36detail12from_json_fnclINS0_10basic_jsonISt3mapSt6vectorNSt7__cxx1112basic_stringIcSt11char_traitsIcESaIcEEEbxydSaNS0_14adl_serializerES6_IhSaIhEEvEERSC_EEDTcl9from_jsonfp_cl7forwardIT0_Efp0_EEERKT_OSI_, symObjAddr: 0x1AF24, symBinAddr: 0x10001D05C, symSize: 0x34 }
  - { offsetInCU: 0x67A37, offset: 0x67A37, size: 0x8, addend: 0x0, symName: __ZSt7forwardIRKN8nlohmann16json_abi_v3_11_310basic_jsonISt3mapSt6vectorNSt7__cxx1112basic_stringIcSt11char_traitsIcESaIcEEEbxydSaNS1_14adl_serializerES4_IhSaIhEEvEEEOT_RNSt16remove_referenceISH_E4typeE, symObjAddr: 0x1AF10, symBinAddr: 0x10001D048, symSize: 0x14 }
  - { offsetInCU: 0x67A69, offset: 0x67A69, size: 0x8, addend: 0x0, symName: __ZN8nlohmann16json_abi_v3_11_36detail11concat_intoINSt7__cxx1112basic_stringIcSt11char_traitsIcESaIcEEES8_JS8_RKS8_ELi0EEEvRT_OT0_DpOT1_, symObjAddr: 0x1AEAC, symBinAddr: 0x10001CFE4, symSize: 0x64 }
  - { offsetInCU: 0x67ADF, offset: 0x67ADF, size: 0x8, addend: 0x0, symName: __ZN8nlohmann16json_abi_v3_11_36detail13concat_lengthINSt7__cxx1112basic_stringIcSt11char_traitsIcESaIcEEEJS8_S8_EEEmRKT_DpRKT0_, symObjAddr: 0x1AE6C, symBinAddr: 0x10001CFA4, symSize: 0x40 }
  - { offsetInCU: 0x67B3F, offset: 0x67B3F, size: 0x8, addend: 0x0, symName: __ZN9__gnu_cxx16__aligned_membufISt4pairIKNSt7__cxx1112basic_stringIcSt11char_traitsIcESaIcEEEN8nlohmann16json_abi_v3_11_310basic_jsonISt3mapSt6vectorS7_bxydSaNSA_14adl_serializerESD_IhSaIhEEvEEEE6_M_ptrEv, symObjAddr: 0x1AE50, symBinAddr: 0x10001CF88, symSize: 0x1C }
  - { offsetInCU: 0x67C64, offset: 0x67C64, size: 0x8, addend: 0x0, symName: __ZNSt17_Rb_tree_iteratorISt4pairIKNSt7__cxx1112basic_stringIcSt11char_traitsIcESaIcEEEN8nlohmann16json_abi_v3_11_310basic_jsonISt3mapSt6vectorS6_bxydSaNS9_14adl_serializerESC_IhSaIhEEvEEEEC1EPSt18_Rb_tree_node_base, symObjAddr: 0x1AE2C, symBinAddr: 0x10001CF64, symSize: 0x24 }
  - { offsetInCU: 0x67BC0, offset: 0x67BC0, size: 0x8, addend: 0x0, symName: __ZN9__gnu_cxx17__normal_iteratorIPN8nlohmann16json_abi_v3_11_310basic_jsonISt3mapSt6vectorNSt7__cxx1112basic_stringIcSt11char_traitsIcESaIcEEEbxydSaNS2_14adl_serializerES5_IhSaIhEEvEES5_ISF_SaISF_EEEpLEl, symObjAddr: 0x1ADF8, symBinAddr: 0x10001CF30, symSize: 0x34 }
  - { offsetInCU: 0x67BFB, offset: 0x67BFB, size: 0x8, addend: 0x0, symName: __ZNSt17_Rb_tree_iteratorISt4pairIKNSt7__cxx1112basic_stringIcSt11char_traitsIcESaIcEEEN8nlohmann16json_abi_v3_11_310basic_jsonISt3mapSt6vectorS6_bxydSaNS9_14adl_serializerESC_IhSaIhEEvEEEEmmEv, symObjAddr: 0x1ADC8, symBinAddr: 0x10001CF00, symSize: 0x30 }
  - { offsetInCU: 0x67D07, offset: 0x67D07, size: 0x8, addend: 0x0, symName: __ZN9__gnu_cxx17__normal_iteratorIPN8nlohmann16json_abi_v3_11_310basic_jsonISt3mapSt6vectorNSt7__cxx1112basic_stringIcSt11char_traitsIcESaIcEEEbxydSaNS2_14adl_serializerES5_IhSaIhEEvEES5_ISF_SaISF_EEEC1Ev, symObjAddr: 0x1ADAC, symBinAddr: 0x10001CEE4, symSize: 0x1C }
  - { offsetInCU: 0x67D3C, offset: 0x67D3C, size: 0x8, addend: 0x0, symName: __ZNSt17_Rb_tree_iteratorISt4pairIKNSt7__cxx1112basic_stringIcSt11char_traitsIcESaIcEEEN8nlohmann16json_abi_v3_11_310basic_jsonISt3mapSt6vectorS6_bxydSaNS9_14adl_serializerESC_IhSaIhEEvEEEEC1Ev, symObjAddr: 0x1AD90, symBinAddr: 0x10001CEC8, symSize: 0x1C }
  - { offsetInCU: 0x67CA8, offset: 0x67CA8, size: 0x8, addend: 0x0, symName: __ZN8nlohmann16json_abi_v3_11_36detail11concat_intoINSt7__cxx1112basic_stringIcSt11char_traitsIcESaIcEEERA51_KcJPS9_ELi0EEEvRT_OT0_DpOT1_, symObjAddr: 0x1AD48, symBinAddr: 0x10001CE80, symSize: 0x48 }
  - { offsetInCU: 0x67D17, offset: 0x67D17, size: 0x8, addend: 0x0, symName: __ZSt7forwardIRA51_KcEOT_RNSt16remove_referenceIS3_E4typeE, symObjAddr: 0x1AD34, symBinAddr: 0x10001CE6C, symSize: 0x14 }
  - { offsetInCU: 0x67D4D, offset: 0x67D4D, size: 0x8, addend: 0x0, symName: __ZNSt8_Rb_treeINSt7__cxx1112basic_stringIcSt11char_traitsIcESaIcEEESt4pairIKS5_N8nlohmann16json_abi_v3_11_310basic_jsonISt3mapSt6vectorS5_bxydSaNS9_14adl_serializerESC_IhSaIhEEvEEESt10_Select1stISH_ESt4lessIvESaISH_EE4findERS7_, symObjAddr: 0x1AC8C, symBinAddr: 0x10001CDC4, symSize: 0xA8 }
  - { offsetInCU: 0x67D99, offset: 0x67D99, size: 0x8, addend: 0x0, symName: __ZNK9__gnu_cxx17__normal_iteratorIPiSt6vectorIiSaIiEEEmiEl, symObjAddr: 0x1AC48, symBinAddr: 0x10001CD80, symSize: 0x44 }
  - { offsetInCU: 0x67E16, offset: 0x67E16, size: 0x8, addend: 0x0, symName: __ZNSt15__new_allocatorIiE10deallocateEPim, symObjAddr: 0x1AC18, symBinAddr: 0x10001CD50, symSize: 0x30 }
  - { offsetInCU: 0x67E5C, offset: 0x67E5C, size: 0x8, addend: 0x0, symName: __ZNSt20__uninitialized_copyILb0EE13__uninit_copyIPSt6vectorIiSaIiEES5_EET0_T_S7_S6_, symObjAddr: 0x1ABEC, symBinAddr: 0x10001CD24, symSize: 0x2C }
  - { offsetInCU: 0x67EB7, offset: 0x67EB7, size: 0x8, addend: 0x0, symName: __ZSt12__niter_wrapIPSt6vectorIiSaIiEEET_RKS4_S4_, symObjAddr: 0x1ABD4, symBinAddr: 0x10001CD0C, symSize: 0x18 }
  - { offsetInCU: 0x67EF3, offset: 0x67EF3, size: 0x8, addend: 0x0, symName: __ZSt14__copy_move_a1ILb0EPSt6vectorIiSaIiEES3_ET1_T0_S5_S4_, symObjAddr: 0x1ABA8, symBinAddr: 0x10001CCE0, symSize: 0x2C }
  - { offsetInCU: 0x67F5B, offset: 0x67F5B, size: 0x8, addend: 0x0, symName: __ZSt12__niter_baseIPSt6vectorIiSaIiEEET_S4_, symObjAddr: 0x1AB94, symBinAddr: 0x10001CCCC, symSize: 0x14 }
  - { offsetInCU: 0x67F8E, offset: 0x67F8E, size: 0x8, addend: 0x0, symName: __ZNSt12_Destroy_auxILb0EE9__destroyIN9__gnu_cxx17__normal_iteratorIPSt6vectorIiSaIiEES4_IS6_SaIS6_EEEEEEvT_SB_, symObjAddr: 0x1AB40, symBinAddr: 0x10001CC78, symSize: 0x54 }
  - { offsetInCU: 0x67FD0, offset: 0x67FD0, size: 0x8, addend: 0x0, symName: __ZSt12__niter_wrapIN9__gnu_cxx17__normal_iteratorIPSt6vectorIiSaIiEES2_IS4_SaIS4_EEEES5_ET_S9_T0_, symObjAddr: 0x1AAEC, symBinAddr: 0x10001CC24, symSize: 0x54 }
  - { offsetInCU: 0x6801D, offset: 0x6801D, size: 0x8, addend: 0x0, symName: __ZSt14__copy_move_a1ILb0EPKSt6vectorIiSaIiEEPS2_ET1_T0_S7_S6_, symObjAddr: 0x1AAC0, symBinAddr: 0x10001CBF8, symSize: 0x2C }
  - { offsetInCU: 0x68085, offset: 0x68085, size: 0x8, addend: 0x0, symName: __ZSt12__niter_baseIPSt6vectorIiSaIiEES0_IS2_SaIS2_EEET_N9__gnu_cxx17__normal_iteratorIS6_T0_EE, symObjAddr: 0x1AAA0, symBinAddr: 0x10001CBD8, symSize: 0x20 }
  - { offsetInCU: 0x680C1, offset: 0x680C1, size: 0x8, addend: 0x0, symName: __ZSt12__niter_baseIPKSt6vectorIiSaIiEES0_IS2_SaIS2_EEET_N9__gnu_cxx17__normal_iteratorIS7_T0_EE, symObjAddr: 0x1AA80, symBinAddr: 0x10001CBB8, symSize: 0x20 }
  - { offsetInCU: 0x680FD, offset: 0x680FD, size: 0x8, addend: 0x0, symName: __ZSt18uninitialized_copyIN9__gnu_cxx17__normal_iteratorIPKSt6vectorIiSaIiEES2_IS4_SaIS4_EEEEPS4_ET0_T_SC_SB_, symObjAddr: 0x1AA4C, symBinAddr: 0x10001CB84, symSize: 0x34 }
  - { offsetInCU: 0x681A0, offset: 0x681A0, size: 0x8, addend: 0x0, symName: __ZNSt15__new_allocatorISt6vectorIiSaIiEEE10deallocateEPS2_m, symObjAddr: 0x1AA10, symBinAddr: 0x10001CB48, symSize: 0x3C }
  - { offsetInCU: 0x681EA, offset: 0x681EA, size: 0x8, addend: 0x0, symName: __ZNSt8_Rb_treeIiSt4pairIKiSt6vectorIS2_IiSaIiEESaIS4_EEESt10_Select1stIS7_ESt4lessIiESaIS7_EE14_M_insert_nodeEPSt18_Rb_tree_node_baseSF_PSt13_Rb_tree_nodeIS7_E, symObjAddr: 0x1A940, symBinAddr: 0x10001CA78, symSize: 0xD0 }
  - { offsetInCU: 0x68254, offset: 0x68254, size: 0x8, addend: 0x0, symName: __ZNSt8_Rb_treeIiSt4pairIKiSt6vectorIS2_IiSaIiEESaIS4_EEESt10_Select1stIS7_ESt4lessIiESaIS7_EE6_S_keyEPKSt13_Rb_tree_nodeIS7_E, symObjAddr: 0x1A918, symBinAddr: 0x10001CA50, symSize: 0x28 }
  - { offsetInCU: 0x68282, offset: 0x68282, size: 0x8, addend: 0x0, symName: __ZNSt17_Rb_tree_iteratorISt4pairIKiSt6vectorIS2_IiSaIiEESaIS4_EEEEppEv, symObjAddr: 0x1A8E8, symBinAddr: 0x10001CA20, symSize: 0x30 }
  - { offsetInCU: 0x682AC, offset: 0x682AC, size: 0x8, addend: 0x0, symName: __ZNSt17_Rb_tree_iteratorISt4pairIKiSt6vectorIS2_IiSaIiEESaIS4_EEEEmmEv, symObjAddr: 0x1A8B8, symBinAddr: 0x10001C9F0, symSize: 0x30 }
  - { offsetInCU: 0x68358, offset: 0x68358, size: 0x8, addend: 0x0, symName: __ZNSt4pairIPSt18_Rb_tree_node_baseS1_EC1IRS1_S4_Lb1EEEOT_OT0_, symObjAddr: 0x1A870, symBinAddr: 0x10001C9A8, symSize: 0x48 }
  - { offsetInCU: 0x68368, offset: 0x68368, size: 0x8, addend: 0x0, symName: __ZNSt8_Rb_treeIiSt4pairIKiSt6vectorIS2_IiSaIiEESaIS4_EEESt10_Select1stIS7_ESt4lessIiESaIS7_EE11_M_leftmostEv, symObjAddr: 0x1A858, symBinAddr: 0x10001C990, symSize: 0x18 }
  - { offsetInCU: 0x68392, offset: 0x68392, size: 0x8, addend: 0x0, symName: __ZNSt8_Rb_treeIiSt4pairIKiSt6vectorIS2_IiSaIiEESaIS4_EEESt10_Select1stIS7_ESt4lessIiESaIS7_EE24_M_get_insert_unique_posERS1_, symObjAddr: 0x1A700, symBinAddr: 0x10001C838, symSize: 0x158 }
  - { offsetInCU: 0x68498, offset: 0x68498, size: 0x8, addend: 0x0, symName: __ZNSt4pairIPSt18_Rb_tree_node_baseS1_EC1IS1_S1_Lb1EEERKS1_S5_, symObjAddr: 0x1A6C4, symBinAddr: 0x10001C7FC, symSize: 0x3C }
  - { offsetInCU: 0x684A4, offset: 0x684A4, size: 0x8, addend: 0x0, symName: __ZNSt8_Rb_treeIiSt4pairIKiSt6vectorIS2_IiSaIiEESaIS4_EEESt10_Select1stIS7_ESt4lessIiESaIS7_EE6_S_keyEPKSt18_Rb_tree_node_base, symObjAddr: 0x1A6A8, symBinAddr: 0x10001C7E0, symSize: 0x1C }
  - { offsetInCU: 0x684D2, offset: 0x684D2, size: 0x8, addend: 0x0, symName: __ZNSt8_Rb_treeIiSt4pairIKiSt6vectorIS2_IiSaIiEESaIS4_EEESt10_Select1stIS7_ESt4lessIiESaIS7_EE12_M_rightmostEv, symObjAddr: 0x1A690, symBinAddr: 0x10001C7C8, symSize: 0x18 }
  - { offsetInCU: 0x684FC, offset: 0x684FC, size: 0x8, addend: 0x0, symName: __ZNKSt8_Rb_treeIiSt4pairIKiSt6vectorIS2_IiSaIiEESaIS4_EEESt10_Select1stIS7_ESt4lessIiESaIS7_EE4sizeEv, symObjAddr: 0x1A678, symBinAddr: 0x10001C7B0, symSize: 0x18 }
  - { offsetInCU: 0x68526, offset: 0x68526, size: 0x8, addend: 0x0, symName: __ZNKSt23_Rb_tree_const_iteratorISt4pairIKiSt6vectorIS2_IiSaIiEESaIS4_EEEE13_M_const_castEv, symObjAddr: 0x1A650, symBinAddr: 0x10001C788, symSize: 0x28 }
  - { offsetInCU: 0x68550, offset: 0x68550, size: 0x8, addend: 0x0, symName: __ZNSt8_Rb_treeIiSt4pairIKiSt6vectorIS2_IiSaIiEESaIS4_EEESt10_Select1stIS7_ESt4lessIiESaIS7_EE14_M_create_nodeIJRKSt21piecewise_construct_tSt5tupleIJRS1_EESI_IJEEEEEPSt13_Rb_tree_nodeIS7_EDpOT_, symObjAddr: 0x1A5E0, symBinAddr: 0x10001C718, symSize: 0x70 }
  - { offsetInCU: 0x6860A, offset: 0x6860A, size: 0x8, addend: 0x0, symName: __ZNSt10_Head_baseILm0ERKiLb0EEC2ES1_, symObjAddr: 0x1A5BC, symBinAddr: 0x10001C6F4, symSize: 0x24 }
  - { offsetInCU: 0x68618, offset: 0x68618, size: 0x8, addend: 0x0, symName: __ZN9__gnu_cxx16__aligned_membufISt4pairIKiSt6vectorIS3_IiSaIiEESaIS5_EEEE6_M_ptrEv, symObjAddr: 0x1A5A0, symBinAddr: 0x10001C6D8, symSize: 0x1C }
  - { offsetInCU: 0x68642, offset: 0x68642, size: 0x8, addend: 0x0, symName: __ZNSt8_Rb_treeIiSt4pairIKiSt6vectorIS2_IiSaIiEESaIS4_EEESt10_Select1stIS7_ESt4lessIiESaIS7_EE14_M_lower_boundEPSt13_Rb_tree_nodeIS7_EPSt18_Rb_tree_node_baseRS1_, symObjAddr: 0x1A504, symBinAddr: 0x10001C63C, symSize: 0x9C }
  - { offsetInCU: 0x6869F, offset: 0x6869F, size: 0x8, addend: 0x0, symName: __ZNSt8_Rb_treeIiSt4pairIKiSt6vectorIS2_IiSaIiEESaIS4_EEESt10_Select1stIS7_ESt4lessIiESaIS7_EE6_M_endEv, symObjAddr: 0x1A4EC, symBinAddr: 0x10001C624, symSize: 0x18 }
  - { offsetInCU: 0x686C5, offset: 0x686C5, size: 0x8, addend: 0x0, symName: __ZNSt12_Destroy_auxILb0EE9__destroyIPSt6vectorIiSaIiEEEEvT_S6_, symObjAddr: 0x1A4A0, symBinAddr: 0x10001C5D8, symSize: 0x4C }
  - { offsetInCU: 0x68707, offset: 0x68707, size: 0x8, addend: 0x0, symName: __ZSt20uninitialized_fill_nIPSt6vectorIiSaIiEEmS2_ET_S4_T0_RKT1_, symObjAddr: 0x1A470, symBinAddr: 0x10001C5A8, symSize: 0x30 }
  - { offsetInCU: 0x687B0, offset: 0x687B0, size: 0x8, addend: 0x0, symName: __ZNSt12_Destroy_auxILb1EE9__destroyIPiEEvT_S3_, symObjAddr: 0x1A458, symBinAddr: 0x10001C590, symSize: 0x18 }
  - { offsetInCU: 0x687E4, offset: 0x687E4, size: 0x8, addend: 0x0, symName: __ZSt20uninitialized_fill_nIPimiET_S1_T0_RKT1_, symObjAddr: 0x1A424, symBinAddr: 0x10001C55C, symSize: 0x34 }
  - { offsetInCU: 0x68876, offset: 0x68876, size: 0x8, addend: 0x0, symName: __ZNSt8_Rb_treeIiSt4pairIKiSt6vectorIS2_IiSaIiEESaIS4_EEESt10_Select1stIS7_ESt4lessIiESaIS7_EE11_M_put_nodeEPSt13_Rb_tree_nodeIS7_E, symObjAddr: 0x1A3D8, symBinAddr: 0x10001C510, symSize: 0x4C }
  - { offsetInCU: 0x688E7, offset: 0x688E7, size: 0x8, addend: 0x0, symName: __ZNSt8_Rb_treeIiSt4pairIKiSt6vectorIS2_IiSaIiEESaIS4_EEESt10_Select1stIS7_ESt4lessIiESaIS7_EE15_M_destroy_nodeEPSt13_Rb_tree_nodeIS7_E, symObjAddr: 0x1A378, symBinAddr: 0x10001C4B0, symSize: 0x60 }
  - { offsetInCU: 0x6897C, offset: 0x6897C, size: 0x8, addend: 0x0, symName: __ZNSt10unique_ptrISt6vectorIN8nlohmann16json_abi_v3_11_310basic_jsonISt3mapS0_NSt7__cxx1112basic_stringIcSt11char_traitsIcESaIcEEEbxydSaNS2_14adl_serializerES0_IhSaIhEEvEESaISE_EEZNSE_6createISG_JPKNS2_6detail8json_refISE_EESM_EEEPT_DpOT0_EUlPSG_E_E7releaseEv, symObjAddr: 0x1A35C, symBinAddr: 0x10001C494, symSize: 0x1C }
  - { offsetInCU: 0x689A2, offset: 0x689A2, size: 0x8, addend: 0x0, symName: __ZStneISt6vectorIN8nlohmann16json_abi_v3_11_310basic_jsonISt3mapS0_NSt7__cxx1112basic_stringIcSt11char_traitsIcESaIcEEEbxydSaNS2_14adl_serializerES0_IhSaIhEEvEESaISE_EEZNSE_6createISG_JPKNS2_6detail8json_refISE_EESM_EEEPT_DpOT0_EUlPSG_E_EbRKSt10unique_ptrISN_T0_EDn, symObjAddr: 0x1A33C, symBinAddr: 0x10001C474, symSize: 0x20 }
  - { offsetInCU: 0x68A52, offset: 0x68A52, size: 0x8, addend: 0x0, symName: __ZSt7forwardIPKN8nlohmann16json_abi_v3_11_36detail8json_refINS1_10basic_jsonISt3mapSt6vectorNSt7__cxx1112basic_stringIcSt11char_traitsIcESaIcEEEbxydSaNS1_14adl_serializerES6_IhSaIhEEvEEEEEOT_RNSt16remove_referenceISK_E4typeE, symObjAddr: 0x1A328, symBinAddr: 0x10001C460, symSize: 0x14 }
  - { offsetInCU: 0x68A88, offset: 0x68A88, size: 0x8, addend: 0x0, symName: __ZNKSt10unique_ptrISt6vectorIN8nlohmann16json_abi_v3_11_310basic_jsonISt3mapS0_NSt7__cxx1112basic_stringIcSt11char_traitsIcESaIcEEEbxydSaNS2_14adl_serializerES0_IhSaIhEEvEESaISE_EEZNSE_6createISG_JPKNS2_6detail8json_refISE_EESM_EEEPT_DpOT0_EUlPSG_E_E3getEv, symObjAddr: 0x1A30C, symBinAddr: 0x10001C444, symSize: 0x1C }
  - { offsetInCU: 0x68BE1, offset: 0x68BE1, size: 0x8, addend: 0x0, symName: __ZNSt10unique_ptrISt6vectorIN8nlohmann16json_abi_v3_11_310basic_jsonISt3mapS0_NSt7__cxx1112basic_stringIcSt11char_traitsIcESaIcEEEbxydSaNS2_14adl_serializerES0_IhSaIhEEvEESaISE_EEZNSE_6createISG_JPKNS2_6detail8json_refISE_EESM_EEEPT_DpOT0_EUlPSG_E_ED1Ev, symObjAddr: 0x1A2A4, symBinAddr: 0x10001C3DC, symSize: 0x68 }
  - { offsetInCU: 0x68C80, offset: 0x68C80, size: 0x8, addend: 0x0, symName: __ZNSt10unique_ptrISt6vectorIN8nlohmann16json_abi_v3_11_310basic_jsonISt3mapS0_NSt7__cxx1112basic_stringIcSt11char_traitsIcESaIcEEEbxydSaNS2_14adl_serializerES0_IhSaIhEEvEESaISE_EEZNSE_6createISG_JPKNS2_6detail8json_refISE_EESM_EEEPT_DpOT0_EUlPSG_E_EC1IST_vEESS_RKST_, symObjAddr: 0x1A274, symBinAddr: 0x10001C3AC, symSize: 0x30 }
  - { offsetInCU: 0x68D1A, offset: 0x68D1A, size: 0x8, addend: 0x0, symName: __ZNSt15__uniq_ptr_dataISt6vectorIN8nlohmann16json_abi_v3_11_310basic_jsonISt3mapS0_NSt7__cxx1112basic_stringIcSt11char_traitsIcESaIcEEEbxydSaNS2_14adl_serializerES0_IhSaIhEEvEESaISE_EEZNSE_6createISG_JPKNS2_6detail8json_refISE_EESM_EEEPT_DpOT0_EUlPSG_E_Lb1ELb0EECI1St15__uniq_ptr_implISG_ST_EIRKST_EESS_OSN_, symObjAddr: 0x1A244, symBinAddr: 0x10001C37C, symSize: 0x30 }
  - { offsetInCU: 0x68D6A, offset: 0x68D6A, size: 0x8, addend: 0x0, symName: __ZNSt4pairISt17_Rb_tree_iteratorIS_IKNSt7__cxx1112basic_stringIcSt11char_traitsIcESaIcEEEN8nlohmann16json_abi_v3_11_310basic_jsonISt3mapSt6vectorS6_bxydSaNS9_14adl_serializerESC_IhSaIhEEvEEEEbEC1IRSI_bLb1EEEOT_OT0_, symObjAddr: 0x1A1F8, symBinAddr: 0x10001C330, symSize: 0x4C }
  - { offsetInCU: 0x68CE1, offset: 0x68CE1, size: 0x8, addend: 0x0, symName: __ZNSt3mapINSt7__cxx1112basic_stringIcSt11char_traitsIcESaIcEEEN8nlohmann16json_abi_v3_11_310basic_jsonIS_St6vectorS5_bxydSaNS7_14adl_serializerES9_IhSaIhEEvEESt4lessIvESaISt4pairIKS5_SD_EEE12emplace_hintIJS5_SD_EEESt17_Rb_tree_iteratorISI_ESt23_Rb_tree_const_iteratorISI_EDpOT_, symObjAddr: 0x1A1A4, symBinAddr: 0x10001C2DC, symSize: 0x54 }
  - { offsetInCU: 0x68E4B, offset: 0x68E4B, size: 0x8, addend: 0x0, symName: __ZNSt23_Rb_tree_const_iteratorISt4pairIKNSt7__cxx1112basic_stringIcSt11char_traitsIcESaIcEEEN8nlohmann16json_abi_v3_11_310basic_jsonISt3mapSt6vectorS6_bxydSaNS9_14adl_serializerESC_IhSaIhEEvEEEEC1ERKSt17_Rb_tree_iteratorISH_E, symObjAddr: 0x1A17C, symBinAddr: 0x10001C2B4, symSize: 0x28 }
  - { offsetInCU: 0x68D9F, offset: 0x68D9F, size: 0x8, addend: 0x0, symName: __ZSt7forwardIN8nlohmann16json_abi_v3_11_310basic_jsonISt3mapSt6vectorNSt7__cxx1112basic_stringIcSt11char_traitsIcESaIcEEEbxydSaNS1_14adl_serializerES4_IhSaIhEEvEEEOT_RNSt16remove_referenceISF_E4typeE, symObjAddr: 0x1A168, symBinAddr: 0x10001C2A0, symSize: 0x14 }
  - { offsetInCU: 0x68DE1, offset: 0x68DE1, size: 0x8, addend: 0x0, symName: __ZNKSt4lessIvEclIRKNSt7__cxx1112basic_stringIcSt11char_traitsIcESaIcEEES9_EEDTltcl7forwardIT_Efp_Ecl7forwardIT0_Efp0_EEOSA_OSB_, symObjAddr: 0x1A120, symBinAddr: 0x10001C258, symSize: 0x48 }
  - { offsetInCU: 0x68E3B, offset: 0x68E3B, size: 0x8, addend: 0x0, symName: __ZNSt4lessIvE6_S_cmpIRKNSt7__cxx1112basic_stringIcSt11char_traitsIcESaIcEEES9_EEDcOT_OT0_St17integral_constantIbLb0EE, symObjAddr: 0x1A0DC, symBinAddr: 0x10001C214, symSize: 0x44 }
  - { offsetInCU: 0x68E95, offset: 0x68E95, size: 0x8, addend: 0x0, symName: __ZNKSt3mapINSt7__cxx1112basic_stringIcSt11char_traitsIcESaIcEEEN8nlohmann16json_abi_v3_11_310basic_jsonIS_St6vectorS5_bxydSaNS7_14adl_serializerES9_IhSaIhEEvEESt4lessIvESaISt4pairIKS5_SD_EEE8key_compEv, symObjAddr: 0x1A0B0, symBinAddr: 0x10001C1E8, symSize: 0x2C }
  - { offsetInCU: 0x68EBF, offset: 0x68EBF, size: 0x8, addend: 0x0, symName: __ZNSt3mapINSt7__cxx1112basic_stringIcSt11char_traitsIcESaIcEEEN8nlohmann16json_abi_v3_11_310basic_jsonIS_St6vectorS5_bxydSaNS7_14adl_serializerES9_IhSaIhEEvEESt4lessIvESaISt4pairIKS5_SD_EEE11lower_boundERSH_, symObjAddr: 0x1A08C, symBinAddr: 0x10001C1C4, symSize: 0x24 }
  - { offsetInCU: 0x68EFD, offset: 0x68EFD, size: 0x8, addend: 0x0, symName: __ZSt7forwardIRN8nlohmann16json_abi_v3_11_310basic_jsonISt3mapSt6vectorNSt7__cxx1112basic_stringIcSt11char_traitsIcESaIcEEEbxydSaNS1_14adl_serializerES4_IhSaIhEEvEEEOT_RNSt16remove_referenceISG_E4typeE, symObjAddr: 0x1A078, symBinAddr: 0x10001C1B0, symSize: 0x14 }
  - { offsetInCU: 0x68F2F, offset: 0x68F2F, size: 0x8, addend: 0x0, symName: __ZSt11find_if_notIPKN8nlohmann16json_abi_v3_11_36detail8json_refINS1_10basic_jsonISt3mapSt6vectorNSt7__cxx1112basic_stringIcSt11char_traitsIcESaIcEEEbxydSaNS1_14adl_serializerES6_IhSaIhEEvEEEEZNSG_C4ESt16initializer_listISH_EbNS2_7value_tEEUlRSI_E_ET_SP_SP_T0_, symObjAddr: 0x1A03C, symBinAddr: 0x10001C174, symSize: 0x3C }
  - { offsetInCU: 0x68F8D, offset: 0x68F8D, size: 0x8, addend: 0x0, symName: __ZN8nlohmann16json_abi_v3_11_36detail6concatINSt7__cxx1112basic_stringIcSt11char_traitsIcESaIcEEEJRA52_KcPS9_EEET_DpOT0_, symObjAddr: 0x19FB8, symBinAddr: 0x10001C0F0, symSize: 0x84 }
  - { offsetInCU: 0x68FEE, offset: 0x68FEE, size: 0x8, addend: 0x0, symName: __ZNKSt16initializer_listIN8nlohmann16json_abi_v3_11_36detail8json_refINS1_10basic_jsonISt3mapSt6vectorNSt7__cxx1112basic_stringIcSt11char_traitsIcESaIcEEEbxydSaNS1_14adl_serializerES6_IhSaIhEEvEEEEE4sizeEv, symObjAddr: 0x19FA0, symBinAddr: 0x10001C0D8, symSize: 0x18 }
  - { offsetInCU: 0x69014, offset: 0x69014, size: 0x8, addend: 0x0, symName: __ZSt18uninitialized_copyIPKiPiET0_T_S4_S3_, symObjAddr: 0x19F64, symBinAddr: 0x10001C09C, symSize: 0x3C }
  - { offsetInCU: 0x690B3, offset: 0x690B3, size: 0x8, addend: 0x0, symName: __ZSt13__countl_zeroImEiT_, symObjAddr: 0x19F10, symBinAddr: 0x10001C048, symSize: 0x54 }
  - { offsetInCU: 0x6914C, offset: 0x6914C, size: 0x8, addend: 0x0, symName: __ZNSt15__new_allocatorImE10deallocateEPmm, symObjAddr: 0x19EE0, symBinAddr: 0x10001C018, symSize: 0x30 }
  - { offsetInCU: 0x691D6, offset: 0x691D6, size: 0x8, addend: 0x0, symName: __ZN8nlohmann16json_abi_v3_11_36detail17replace_substringINSt7__cxx1112basic_stringIcSt11char_traitsIcESaIcEEEEEvRT_RKS9_SC_, symObjAddr: 0x19E20, symBinAddr: 0x10001BF58, symSize: 0xC0 }
  - { offsetInCU: 0x692D8, offset: 0x692D8, size: 0x8, addend: 0x0, symName: __ZNSt15__new_allocatorINSt7__cxx1112basic_stringIcSt11char_traitsIcESaIcEEEED2Ev, symObjAddr: 0x19E0C, symBinAddr: 0x10001BF44, symSize: 0x14 }
  - { offsetInCU: 0x694E5, offset: 0x694E5, size: 0x8, addend: 0x0, symName: __ZNSt3mapINSt7__cxx1112basic_stringIcSt11char_traitsIcESaIcEEEN8nlohmann16json_abi_v3_11_310basic_jsonIS_St6vectorS5_bxydSaNS7_14adl_serializerES9_IhSaIhEEvEESt4lessIvESaISt4pairIKS5_SD_EEE5clearEv, symObjAddr: 0x19DEC, symBinAddr: 0x10001BF24, symSize: 0x20 }
  - { offsetInCU: 0x6950F, offset: 0x6950F, size: 0x8, addend: 0x0, symName: __ZNSt6vectorIN8nlohmann16json_abi_v3_11_310basic_jsonISt3mapS_NSt7__cxx1112basic_stringIcSt11char_traitsIcESaIcEEEbxydSaNS1_14adl_serializerES_IhSaIhEEvEESaISD_EE5clearEv, symObjAddr: 0x19DC0, symBinAddr: 0x10001BEF8, symSize: 0x2C }
  - { offsetInCU: 0x69539, offset: 0x69539, size: 0x8, addend: 0x0, symName: __ZNSt6vectorIN8nlohmann16json_abi_v3_11_310basic_jsonISt3mapS_NSt7__cxx1112basic_stringIcSt11char_traitsIcESaIcEEEbxydSaNS1_14adl_serializerES_IhSaIhEEvEESaISD_EE8pop_backEv, symObjAddr: 0x19D60, symBinAddr: 0x10001BE98, symSize: 0x60 }
  - { offsetInCU: 0x695BD, offset: 0x695BD, size: 0x8, addend: 0x0, symName: __ZNSt6vectorIN8nlohmann16json_abi_v3_11_310basic_jsonISt3mapS_NSt7__cxx1112basic_stringIcSt11char_traitsIcESaIcEEEbxydSaNS1_14adl_serializerES_IhSaIhEEvEESaISD_EE9push_backEOSD_, symObjAddr: 0x19D30, symBinAddr: 0x10001BE68, symSize: 0x30 }
  - { offsetInCU: 0x695F8, offset: 0x695F8, size: 0x8, addend: 0x0, symName: __ZNKSt17_Rb_tree_iteratorISt4pairIKNSt7__cxx1112basic_stringIcSt11char_traitsIcESaIcEEEN8nlohmann16json_abi_v3_11_310basic_jsonISt3mapSt6vectorS6_bxydSaNS9_14adl_serializerESC_IhSaIhEEvEEEEdeEv, symObjAddr: 0x19D10, symBinAddr: 0x10001BE48, symSize: 0x20 }
  - { offsetInCU: 0x69622, offset: 0x69622, size: 0x8, addend: 0x0, symName: __ZNSt17_Rb_tree_iteratorISt4pairIKNSt7__cxx1112basic_stringIcSt11char_traitsIcESaIcEEEN8nlohmann16json_abi_v3_11_310basic_jsonISt3mapSt6vectorS6_bxydSaNS9_14adl_serializerESC_IhSaIhEEvEEEEppEv, symObjAddr: 0x19CE0, symBinAddr: 0x10001BE18, symSize: 0x30 }
  - { offsetInCU: 0x6964C, offset: 0x6964C, size: 0x8, addend: 0x0, symName: __ZNSt3mapINSt7__cxx1112basic_stringIcSt11char_traitsIcESaIcEEEN8nlohmann16json_abi_v3_11_310basic_jsonIS_St6vectorS5_bxydSaNS7_14adl_serializerES9_IhSaIhEEvEESt4lessIvESaISt4pairIKS5_SD_EEE5beginEv, symObjAddr: 0x19CC4, symBinAddr: 0x10001BDFC, symSize: 0x1C }
  - { offsetInCU: 0x69672, offset: 0x69672, size: 0x8, addend: 0x0, symName: __ZSt4moveIN9__gnu_cxx17__normal_iteratorIPN8nlohmann16json_abi_v3_11_310basic_jsonISt3mapSt6vectorNSt7__cxx1112basic_stringIcSt11char_traitsIcESaIcEEEbxydSaNS3_14adl_serializerES6_IhSaIhEEvEES6_ISG_SaISG_EEEESt20back_insert_iteratorISJ_EET0_T_SO_SN_, symObjAddr: 0x19C7C, symBinAddr: 0x10001BDB4, symSize: 0x48 }
  - { offsetInCU: 0x696D0, offset: 0x696D0, size: 0x8, addend: 0x0, symName: __ZSt13back_inserterISt6vectorIN8nlohmann16json_abi_v3_11_310basic_jsonISt3mapS0_NSt7__cxx1112basic_stringIcSt11char_traitsIcESaIcEEEbxydSaNS2_14adl_serializerES0_IhSaIhEEvEESaISE_EEESt20back_insert_iteratorIT_ERSI_, symObjAddr: 0x19C58, symBinAddr: 0x10001BD90, symSize: 0x24 }
  - { offsetInCU: 0x69707, offset: 0x69707, size: 0x8, addend: 0x0, symName: __ZNSt6vectorIN8nlohmann16json_abi_v3_11_310basic_jsonISt3mapS_NSt7__cxx1112basic_stringIcSt11char_traitsIcESaIcEEEbxydSaNS1_14adl_serializerES_IhSaIhEEvEESaISD_EE5beginEv, symObjAddr: 0x19C34, symBinAddr: 0x10001BD6C, symSize: 0x24 }
  - { offsetInCU: 0x69731, offset: 0x69731, size: 0x8, addend: 0x0, symName: __ZNSt6vectorIN8nlohmann16json_abi_v3_11_310basic_jsonISt3mapS_NSt7__cxx1112basic_stringIcSt11char_traitsIcESaIcEEEbxydSaNS1_14adl_serializerES_IhSaIhEEvEESaISD_EE7reserveEm, symObjAddr: 0x19AF8, symBinAddr: 0x10001BC30, symSize: 0x13C }
  - { offsetInCU: 0x6979E, offset: 0x6979E, size: 0x8, addend: 0x0, symName: __ZNKSt6vectorIN8nlohmann16json_abi_v3_11_310basic_jsonISt3mapS_NSt7__cxx1112basic_stringIcSt11char_traitsIcESaIcEEEbxydSaNS1_14adl_serializerES_IhSaIhEEvEESaISD_EE4sizeEv, symObjAddr: 0x19AD0, symBinAddr: 0x10001BC08, symSize: 0x28 }
  - { offsetInCU: 0x6988F, offset: 0x6988F, size: 0x8, addend: 0x0, symName: __ZNSt6vectorIN8nlohmann16json_abi_v3_11_310basic_jsonISt3mapS_NSt7__cxx1112basic_stringIcSt11char_traitsIcESaIcEEEbxydSaNS1_14adl_serializerES_IhSaIhEEvEESaISD_EED1Ev, symObjAddr: 0x19A74, symBinAddr: 0x10001BBAC, symSize: 0x5C }
  - { offsetInCU: 0x6991E, offset: 0x6991E, size: 0x8, addend: 0x0, symName: __ZNSt12_Vector_baseIN8nlohmann16json_abi_v3_11_310basic_jsonISt3mapSt6vectorNSt7__cxx1112basic_stringIcSt11char_traitsIcESaIcEEEbxydSaNS1_14adl_serializerES4_IhSaIhEEvEESaISE_EED2Ev, symObjAddr: 0x19A24, symBinAddr: 0x10001BB5C, symSize: 0x50 }
  - { offsetInCU: 0x6998C, offset: 0x6998C, size: 0x8, addend: 0x0, symName: __ZNSt12_Vector_baseIN8nlohmann16json_abi_v3_11_310basic_jsonISt3mapSt6vectorNSt7__cxx1112basic_stringIcSt11char_traitsIcESaIcEEEbxydSaNS1_14adl_serializerES4_IhSaIhEEvEESaISE_EE12_Vector_implC1Ev, symObjAddr: 0x199EC, symBinAddr: 0x10001BB24, symSize: 0x38 }
  - { offsetInCU: 0x69938, offset: 0x69938, size: 0x8, addend: 0x0, symName: __ZN8nlohmann16json_abi_v3_11_36detail19json_sax_dom_parserINS0_10basic_jsonISt3mapSt6vectorNSt7__cxx1112basic_stringIcSt11char_traitsIcESaIcEEEbxydSaNS0_14adl_serializerES5_IhSaIhEEvEEE15number_unsignedEy, symObjAddr: 0x199C0, symBinAddr: 0x10001BAF8, symSize: 0x2C }
  - { offsetInCU: 0x69973, offset: 0x69973, size: 0x8, addend: 0x0, symName: __ZN8nlohmann16json_abi_v3_11_36detail19json_sax_dom_parserINS0_10basic_jsonISt3mapSt6vectorNSt7__cxx1112basic_stringIcSt11char_traitsIcESaIcEEEbxydSaNS0_14adl_serializerES5_IhSaIhEEvEEE6stringERSB_, symObjAddr: 0x19998, symBinAddr: 0x10001BAD0, symSize: 0x28 }
  - { offsetInCU: 0x699AE, offset: 0x699AE, size: 0x8, addend: 0x0, symName: __ZN8nlohmann16json_abi_v3_11_36detail19json_sax_dom_parserINS0_10basic_jsonISt3mapSt6vectorNSt7__cxx1112basic_stringIcSt11char_traitsIcESaIcEEEbxydSaNS0_14adl_serializerES5_IhSaIhEEvEEE14number_integerEx, symObjAddr: 0x1996C, symBinAddr: 0x10001BAA4, symSize: 0x2C }
  - { offsetInCU: 0x699E9, offset: 0x699E9, size: 0x8, addend: 0x0, symName: __ZN8nlohmann16json_abi_v3_11_36detail19json_sax_dom_parserINS0_10basic_jsonISt3mapSt6vectorNSt7__cxx1112basic_stringIcSt11char_traitsIcESaIcEEEbxydSaNS0_14adl_serializerES5_IhSaIhEEvEEE4nullEv, symObjAddr: 0x19940, symBinAddr: 0x10001BA78, symSize: 0x2C }
  - { offsetInCU: 0x69A13, offset: 0x69A13, size: 0x8, addend: 0x0, symName: __ZN8nlohmann16json_abi_v3_11_36detail19json_sax_dom_parserINS0_10basic_jsonISt3mapSt6vectorNSt7__cxx1112basic_stringIcSt11char_traitsIcESaIcEEEbxydSaNS0_14adl_serializerES5_IhSaIhEEvEEE7booleanEb, symObjAddr: 0x19910, symBinAddr: 0x10001BA48, symSize: 0x30 }
  - { offsetInCU: 0x69A4E, offset: 0x69A4E, size: 0x8, addend: 0x0, symName: __ZN8nlohmann16json_abi_v3_11_36detail19json_sax_dom_parserINS0_10basic_jsonISt3mapSt6vectorNSt7__cxx1112basic_stringIcSt11char_traitsIcESaIcEEEbxydSaNS0_14adl_serializerES5_IhSaIhEEvEEE12number_floatEdRKSB_, symObjAddr: 0x198E0, symBinAddr: 0x10001BA18, symSize: 0x30 }
  - { offsetInCU: 0x69A92, offset: 0x69A92, size: 0x8, addend: 0x0, symName: __ZN8nlohmann16json_abi_v3_11_36detail19json_sax_dom_parserINS0_10basic_jsonISt3mapSt6vectorNSt7__cxx1112basic_stringIcSt11char_traitsIcESaIcEEEbxydSaNS0_14adl_serializerES5_IhSaIhEEvEEE11parse_errorINS1_12out_of_rangeEEEbmRKSB_RKT_, symObjAddr: 0x19864, symBinAddr: 0x10001B99C, symSize: 0x7C }
  - { offsetInCU: 0x69AE8, offset: 0x69AE8, size: 0x8, addend: 0x0, symName: __ZN8nlohmann16json_abi_v3_11_36detail19json_sax_dom_parserINS0_10basic_jsonISt3mapSt6vectorNSt7__cxx1112basic_stringIcSt11char_traitsIcESaIcEEEbxydSaNS0_14adl_serializerES5_IhSaIhEEvEEE9end_arrayEv, symObjAddr: 0x197AC, symBinAddr: 0x10001B8E4, symSize: 0xB8 }
  - { offsetInCU: 0x69B26, offset: 0x69B26, size: 0x8, addend: 0x0, symName: __ZN8nlohmann16json_abi_v3_11_36detail19json_sax_dom_parserINS0_10basic_jsonISt3mapSt6vectorNSt7__cxx1112basic_stringIcSt11char_traitsIcESaIcEEEbxydSaNS0_14adl_serializerES5_IhSaIhEEvEEE11start_arrayEm, symObjAddr: 0x1961C, symBinAddr: 0x10001B754, symSize: 0x190 }
  - { offsetInCU: 0x69B63, offset: 0x69B63, size: 0x8, addend: 0x0, symName: __ZN8nlohmann16json_abi_v3_11_36detail19json_sax_dom_parserINS0_10basic_jsonISt3mapSt6vectorNSt7__cxx1112basic_stringIcSt11char_traitsIcESaIcEEEbxydSaNS0_14adl_serializerES5_IhSaIhEEvEEE3keyERSB_, symObjAddr: 0x19558, symBinAddr: 0x10001B690, symSize: 0xC4 }
  - { offsetInCU: 0x69BB2, offset: 0x69BB2, size: 0x8, addend: 0x0, symName: __ZN8nlohmann16json_abi_v3_11_36detail19json_sax_dom_parserINS0_10basic_jsonISt3mapSt6vectorNSt7__cxx1112basic_stringIcSt11char_traitsIcESaIcEEEbxydSaNS0_14adl_serializerES5_IhSaIhEEvEEE10end_objectEv, symObjAddr: 0x194A0, symBinAddr: 0x10001B5D8, symSize: 0xB8 }
  - { offsetInCU: 0x69BF0, offset: 0x69BF0, size: 0x8, addend: 0x0, symName: __ZN8nlohmann16json_abi_v3_11_36detail19json_sax_dom_parserINS0_10basic_jsonISt3mapSt6vectorNSt7__cxx1112basic_stringIcSt11char_traitsIcESaIcEEEbxydSaNS0_14adl_serializerES5_IhSaIhEEvEEE12start_objectEm, symObjAddr: 0x19310, symBinAddr: 0x10001B448, symSize: 0x190 }
  - { offsetInCU: 0x69C29, offset: 0x69C29, size: 0x8, addend: 0x0, symName: __ZN8nlohmann16json_abi_v3_11_36detail6concatINSt7__cxx1112basic_stringIcSt11char_traitsIcESaIcEEEJS8_RA12_KcS8_RA3_S9_S8_RKS8_EEET_DpOT0_, symObjAddr: 0x1921C, symBinAddr: 0x10001B354, symSize: 0xF4 }
  - { offsetInCU: 0x69CBE, offset: 0x69CBE, size: 0x8, addend: 0x0, symName: __ZN8nlohmann16json_abi_v3_11_36detail6concatINSt7__cxx1112basic_stringIcSt11char_traitsIcESaIcEEEJRA12_KcPS9_EEET_DpOT0_, symObjAddr: 0x19198, symBinAddr: 0x10001B2D0, symSize: 0x84 }
  - { offsetInCU: 0x69D1B, offset: 0x69D1B, size: 0x8, addend: 0x0, symName: __ZN8nlohmann16json_abi_v3_11_36detail10lexer_baseINS0_10basic_jsonISt3mapSt6vectorNSt7__cxx1112basic_stringIcSt11char_traitsIcESaIcEEEbxydSaNS0_14adl_serializerES5_IhSaIhEEvEEE15token_type_nameENSG_10token_typeE, symObjAddr: 0x18F78, symBinAddr: 0x10001B0B0, symSize: 0x220 }
  - { offsetInCU: 0x69D45, offset: 0x69D45, size: 0x8, addend: 0x0, symName: __ZN8nlohmann16json_abi_v3_11_36detail6concatINSt7__cxx1112basic_stringIcSt11char_traitsIcESaIcEEEJPKcRA15_S9_S8_cEEET_DpOT0_, symObjAddr: 0x18EB8, symBinAddr: 0x10001AFF0, symSize: 0xC0 }
  - { offsetInCU: 0x69DBE, offset: 0x69DBE, size: 0x8, addend: 0x0, symName: __ZN8nlohmann16json_abi_v3_11_36detail6concatINSt7__cxx1112basic_stringIcSt11char_traitsIcESaIcEEEJRA15_KcRKS8_cEEET_DpOT0_, symObjAddr: 0x18E14, symBinAddr: 0x10001AF4C, symSize: 0xA4 }
  - { offsetInCU: 0x69E2D, offset: 0x69E2D, size: 0x8, addend: 0x0, symName: __ZNK9__gnu_cxx17__normal_iteratorIPKcSt6vectorIcSaIcEEEdeEv, symObjAddr: 0x18DFC, symBinAddr: 0x10001AF34, symSize: 0x18 }
  - { offsetInCU: 0x69E57, offset: 0x69E57, size: 0x8, addend: 0x0, symName: __ZN9__gnu_cxx17__normal_iteratorIPKcSt6vectorIcSaIcEEEppEv, symObjAddr: 0x18DD4, symBinAddr: 0x10001AF0C, symSize: 0x28 }
  - { offsetInCU: 0x69E7D, offset: 0x69E7D, size: 0x8, addend: 0x0, symName: __ZN9__gnu_cxxneIPKcSt6vectorIcSaIcEEEEbRKNS_17__normal_iteratorIT_T0_EESB_, symObjAddr: 0x18D90, symBinAddr: 0x10001AEC8, symSize: 0x44 }
  - { offsetInCU: 0x69ECE, offset: 0x69ECE, size: 0x8, addend: 0x0, symName: __ZNKSt6vectorIcSaIcEE3endEv, symObjAddr: 0x18D68, symBinAddr: 0x10001AEA0, symSize: 0x28 }
  - { offsetInCU: 0x69EF8, offset: 0x69EF8, size: 0x8, addend: 0x0, symName: __ZNKSt6vectorIcSaIcEE5beginEv, symObjAddr: 0x18D44, symBinAddr: 0x10001AE7C, symSize: 0x24 }
  - { offsetInCU: 0x69F4E, offset: 0x69F4E, size: 0x8, addend: 0x0, symName: __ZNSt6vectorIbSaIbEE8pop_backEv, symObjAddr: 0x18D20, symBinAddr: 0x10001AE58, symSize: 0x24 }
  - { offsetInCU: 0x69F78, offset: 0x69F78, size: 0x8, addend: 0x0, symName: __ZNSt6vectorIbSaIbEE4backEv, symObjAddr: 0x18CE8, symBinAddr: 0x10001AE20, symSize: 0x38 }
  - { offsetInCU: 0x69FA2, offset: 0x69FA2, size: 0x8, addend: 0x0, symName: __ZNKSt6vectorIbSaIbEE5emptyEv, symObjAddr: 0x18CB0, symBinAddr: 0x10001ADE8, symSize: 0x38 }
  - { offsetInCU: 0x69FCC, offset: 0x69FCC, size: 0x8, addend: 0x0, symName: __ZN8nlohmann16json_abi_v3_11_36detail28json_sax_dom_callback_parserINS0_10basic_jsonISt3mapSt6vectorNSt7__cxx1112basic_stringIcSt11char_traitsIcESaIcEEEbxydSaNS0_14adl_serializerES5_IhSaIhEEvEEE15number_unsignedEy, symObjAddr: 0x18C80, symBinAddr: 0x10001ADB8, symSize: 0x30 }
  - { offsetInCU: 0x6A007, offset: 0x6A007, size: 0x8, addend: 0x0, symName: __ZN8nlohmann16json_abi_v3_11_36detail28json_sax_dom_callback_parserINS0_10basic_jsonISt3mapSt6vectorNSt7__cxx1112basic_stringIcSt11char_traitsIcESaIcEEEbxydSaNS0_14adl_serializerES5_IhSaIhEEvEEE6stringERSB_, symObjAddr: 0x18C54, symBinAddr: 0x10001AD8C, symSize: 0x2C }
  - { offsetInCU: 0x6A042, offset: 0x6A042, size: 0x8, addend: 0x0, symName: __ZN8nlohmann16json_abi_v3_11_36detail28json_sax_dom_callback_parserINS0_10basic_jsonISt3mapSt6vectorNSt7__cxx1112basic_stringIcSt11char_traitsIcESaIcEEEbxydSaNS0_14adl_serializerES5_IhSaIhEEvEEE14number_integerEx, symObjAddr: 0x18C24, symBinAddr: 0x10001AD5C, symSize: 0x30 }
  - { offsetInCU: 0x6A07D, offset: 0x6A07D, size: 0x8, addend: 0x0, symName: __ZN8nlohmann16json_abi_v3_11_36detail28json_sax_dom_callback_parserINS0_10basic_jsonISt3mapSt6vectorNSt7__cxx1112basic_stringIcSt11char_traitsIcESaIcEEEbxydSaNS0_14adl_serializerES5_IhSaIhEEvEEE4nullEv, symObjAddr: 0x18BF4, symBinAddr: 0x10001AD2C, symSize: 0x30 }
  - { offsetInCU: 0x6A0A7, offset: 0x6A0A7, size: 0x8, addend: 0x0, symName: __ZN8nlohmann16json_abi_v3_11_36detail28json_sax_dom_callback_parserINS0_10basic_jsonISt3mapSt6vectorNSt7__cxx1112basic_stringIcSt11char_traitsIcESaIcEEEbxydSaNS0_14adl_serializerES5_IhSaIhEEvEEE7booleanEb, symObjAddr: 0x18BC0, symBinAddr: 0x10001ACF8, symSize: 0x34 }
  - { offsetInCU: 0x6A0E2, offset: 0x6A0E2, size: 0x8, addend: 0x0, symName: __ZN8nlohmann16json_abi_v3_11_36detail28json_sax_dom_callback_parserINS0_10basic_jsonISt3mapSt6vectorNSt7__cxx1112basic_stringIcSt11char_traitsIcESaIcEEEbxydSaNS0_14adl_serializerES5_IhSaIhEEvEEE12number_floatEdRKSB_, symObjAddr: 0x18B8C, symBinAddr: 0x10001ACC4, symSize: 0x34 }
  - { offsetInCU: 0x6A126, offset: 0x6A126, size: 0x8, addend: 0x0, symName: __ZN8nlohmann16json_abi_v3_11_36detail28json_sax_dom_callback_parserINS0_10basic_jsonISt3mapSt6vectorNSt7__cxx1112basic_stringIcSt11char_traitsIcESaIcEEEbxydSaNS0_14adl_serializerES5_IhSaIhEEvEEE11parse_errorINS1_12out_of_rangeEEEbmRKSB_RKT_, symObjAddr: 0x18B10, symBinAddr: 0x10001AC48, symSize: 0x7C }
  - { offsetInCU: 0x6A1D7, offset: 0x6A1D7, size: 0x8, addend: 0x0, symName: __ZN8nlohmann16json_abi_v3_11_36detail12out_of_rangeC1ERKS2_, symObjAddr: 0x18AD4, symBinAddr: 0x10001AC0C, symSize: 0x3C }
  - { offsetInCU: 0x6A1CA, offset: 0x6A1CA, size: 0x8, addend: 0x0, symName: __ZN8nlohmann16json_abi_v3_11_36detail12out_of_range6createIDnLi0EEES2_iRKNSt7__cxx1112basic_stringIcSt11char_traitsIcESaIcEEET_, symObjAddr: 0x18994, symBinAddr: 0x10001AACC, symSize: 0x140 }
  - { offsetInCU: 0x6A2BA, offset: 0x6A2BA, size: 0x8, addend: 0x0, symName: __ZN8nlohmann16json_abi_v3_11_36detail6concatINSt7__cxx1112basic_stringIcSt11char_traitsIcESaIcEEEJRA26_KcS8_cEEET_DpOT0_, symObjAddr: 0x188F0, symBinAddr: 0x10001AA28, symSize: 0xA4 }
  - { offsetInCU: 0x6A329, offset: 0x6A329, size: 0x8, addend: 0x0, symName: __ZN8nlohmann16json_abi_v3_11_36detail28json_sax_dom_callback_parserINS0_10basic_jsonISt3mapSt6vectorNSt7__cxx1112basic_stringIcSt11char_traitsIcESaIcEEEbxydSaNS0_14adl_serializerES5_IhSaIhEEvEEE9end_arrayEv, symObjAddr: 0x186F8, symBinAddr: 0x10001A830, symSize: 0x1F8 }
  - { offsetInCU: 0x6A378, offset: 0x6A378, size: 0x8, addend: 0x0, symName: __ZN8nlohmann16json_abi_v3_11_36detail28json_sax_dom_callback_parserINS0_10basic_jsonISt3mapSt6vectorNSt7__cxx1112basic_stringIcSt11char_traitsIcESaIcEEEbxydSaNS0_14adl_serializerES5_IhSaIhEEvEEE11start_arrayEm, symObjAddr: 0x184FC, symBinAddr: 0x10001A634, symSize: 0x1FC }
  - { offsetInCU: 0x6A3D8, offset: 0x6A3D8, size: 0x8, addend: 0x0, symName: __ZN8nlohmann16json_abi_v3_11_36detail28json_sax_dom_callback_parserINS0_10basic_jsonISt3mapSt6vectorNSt7__cxx1112basic_stringIcSt11char_traitsIcESaIcEEEbxydSaNS0_14adl_serializerES5_IhSaIhEEvEEE3keyERSB_, symObjAddr: 0x183C4, symBinAddr: 0x10001A4FC, symSize: 0x138 }
  - { offsetInCU: 0x6A435, offset: 0x6A435, size: 0x8, addend: 0x0, symName: __ZN8nlohmann16json_abi_v3_11_36detail28json_sax_dom_callback_parserINS0_10basic_jsonISt3mapSt6vectorNSt7__cxx1112basic_stringIcSt11char_traitsIcESaIcEEEbxydSaNS0_14adl_serializerES5_IhSaIhEEvEEE10end_objectEv, symObjAddr: 0x18140, symBinAddr: 0x10001A278, symSize: 0x284 }
  - { offsetInCU: 0x6A499, offset: 0x6A499, size: 0x8, addend: 0x0, symName: __ZN8nlohmann16json_abi_v3_11_36detail28json_sax_dom_callback_parserINS0_10basic_jsonISt3mapSt6vectorNSt7__cxx1112basic_stringIcSt11char_traitsIcESaIcEEEbxydSaNS0_14adl_serializerES5_IhSaIhEEvEEE12start_objectEm, symObjAddr: 0x17F44, symBinAddr: 0x10001A07C, symSize: 0x1FC }
  - { offsetInCU: 0x6A534, offset: 0x6A534, size: 0x8, addend: 0x0, symName: __ZNSt12_Vector_baseIPN8nlohmann16json_abi_v3_11_310basic_jsonISt3mapSt6vectorNSt7__cxx1112basic_stringIcSt11char_traitsIcESaIcEEEbxydSaNS1_14adl_serializerES4_IhSaIhEEvEESaISF_EE19_M_get_Tp_allocatorEv, symObjAddr: 0x17F30, symBinAddr: 0x10001A068, symSize: 0x14 }
  - { offsetInCU: 0x6A55E, offset: 0x6A55E, size: 0x8, addend: 0x0, symName: __ZNSt6vectorIbSaIbEE9push_backEb, symObjAddr: 0x17E84, symBinAddr: 0x100019FBC, symSize: 0xAC }
  - { offsetInCU: 0x6A5D9, offset: 0x6A5D9, size: 0x8, addend: 0x0, symName: __ZNSt13_Bvector_baseISaIbEED2Ev, symObjAddr: 0x17E5C, symBinAddr: 0x100019F94, symSize: 0x28 }
  - { offsetInCU: 0x6A628, offset: 0x6A628, size: 0x8, addend: 0x0, symName: __ZNSt13_Bvector_baseISaIbEE13_Bvector_implC1Ev, symObjAddr: 0x17E24, symBinAddr: 0x100019F5C, symSize: 0x38 }
  - { offsetInCU: 0x6A741, offset: 0x6A741, size: 0x8, addend: 0x0, symName: __ZNSt12_Vector_baseIPN8nlohmann16json_abi_v3_11_310basic_jsonISt3mapSt6vectorNSt7__cxx1112basic_stringIcSt11char_traitsIcESaIcEEEbxydSaNS1_14adl_serializerES4_IhSaIhEEvEESaISF_EED2Ev, symObjAddr: 0x17DD4, symBinAddr: 0x100019F0C, symSize: 0x50 }
  - { offsetInCU: 0x6A7AF, offset: 0x6A7AF, size: 0x8, addend: 0x0, symName: __ZNSt12_Vector_baseIPN8nlohmann16json_abi_v3_11_310basic_jsonISt3mapSt6vectorNSt7__cxx1112basic_stringIcSt11char_traitsIcESaIcEEEbxydSaNS1_14adl_serializerES4_IhSaIhEEvEESaISF_EE12_Vector_implC1Ev, symObjAddr: 0x17D9C, symBinAddr: 0x100019ED4, symSize: 0x38 }
  - { offsetInCU: 0x6A756, offset: 0x6A756, size: 0x8, addend: 0x0, symName: __ZSt8_DestroyIPcEvT_S1_, symObjAddr: 0x17D74, symBinAddr: 0x100019EAC, symSize: 0x28 }
  - { offsetInCU: 0x6A79C, offset: 0x6A79C, size: 0x8, addend: 0x0, symName: __ZNSt12_Vector_baseIcSaIcEE13_M_deallocateEPcm, symObjAddr: 0x17D1C, symBinAddr: 0x100019E54, symSize: 0x58 }
  - { offsetInCU: 0x6A84D, offset: 0x6A84D, size: 0x8, addend: 0x0, symName: __ZNSt6vectorIcSaIcEEC1Ev, symObjAddr: 0x17CFC, symBinAddr: 0x100019E34, symSize: 0x20 }
  - { offsetInCU: 0x6A894, offset: 0x6A894, size: 0x8, addend: 0x0, symName: __ZNSt12_Vector_baseIcSaIcEEC2Ev, symObjAddr: 0x17CDC, symBinAddr: 0x100019E14, symSize: 0x20 }
  - { offsetInCU: 0x6A8C2, offset: 0x6A8C2, size: 0x8, addend: 0x0, symName: __ZNSt15__new_allocatorIcE10deallocateEPcm, symObjAddr: 0x17CB4, symBinAddr: 0x100019DEC, symSize: 0x28 }
  - { offsetInCU: 0x6A90F, offset: 0x6A90F, size: 0x8, addend: 0x0, symName: __ZN8nlohmann16json_abi_v3_11_36detail11concat_intoINSt7__cxx1112basic_stringIcSt11char_traitsIcESaIcEEERA10_KcJS8_ELi0EEEvRT_OT0_DpOT1_, symObjAddr: 0x17C6C, symBinAddr: 0x100019DA4, symSize: 0x48 }
  - { offsetInCU: 0x6A977, offset: 0x6A977, size: 0x8, addend: 0x0, symName: __ZN8nlohmann16json_abi_v3_11_36detail13concat_lengthIJNSt7__cxx1112basic_stringIcSt11char_traitsIcESaIcEEEEEEmPKcDpRKT_, symObjAddr: 0x17C34, symBinAddr: 0x100019D6C, symSize: 0x38 }
  - { offsetInCU: 0x6A9BC, offset: 0x6A9BC, size: 0x8, addend: 0x0, symName: __ZN8nlohmann16json_abi_v3_11_36detail11concat_intoINSt7__cxx1112basic_stringIcSt11char_traitsIcESaIcEEEcJS8_RA3_KcELi0EEEvRT_OT0_DpOT1_, symObjAddr: 0x17BCC, symBinAddr: 0x100019D04, symSize: 0x68 }
  - { offsetInCU: 0x6AA32, offset: 0x6AA32, size: 0x8, addend: 0x0, symName: __ZN8nlohmann16json_abi_v3_11_36detail13concat_lengthIJNSt7__cxx1112basic_stringIcSt11char_traitsIcESaIcEEEA3_cEEEmcDpRKT_, symObjAddr: 0x17BA0, symBinAddr: 0x100019CD8, symSize: 0x2C }
  - { offsetInCU: 0x6AAB1, offset: 0x6AAB1, size: 0x8, addend: 0x0, symName: __ZN8nlohmann16json_abi_v3_11_36detail10serializerINS0_10basic_jsonISt3mapSt6vectorNSt7__cxx1112basic_stringIcSt11char_traitsIcESaIcEEEbxydSaNS0_14adl_serializerES5_IhSaIhEEvEEE10dump_floatEd, symObjAddr: 0x17B2C, symBinAddr: 0x100019C64, symSize: 0x74 }
  - { offsetInCU: 0x6AAFF, offset: 0x6AAFF, size: 0x8, addend: 0x0, symName: __ZN8nlohmann16json_abi_v3_11_36detail10serializerINS0_10basic_jsonISt3mapSt6vectorNSt7__cxx1112basic_stringIcSt11char_traitsIcESaIcEEEbxydSaNS0_14adl_serializerES5_IhSaIhEEvEEE12dump_integerIxLi0EEEvT_, symObjAddr: 0x17860, symBinAddr: 0x100019998, symSize: 0x2CC }
  - { offsetInCU: 0x6AC37, offset: 0x6AC37, size: 0x8, addend: 0x0, symName: __ZZN8nlohmann16json_abi_v3_11_36detail10serializerINS0_10basic_jsonISt3mapSt6vectorNSt7__cxx1112basic_stringIcSt11char_traitsIcESaIcEEEbxydSaNS0_14adl_serializerES5_IhSaIhEEvEEE12dump_integerIxLi0EEEvT_E12digits_to_99, symObjAddr: 0x33E58, symBinAddr: 0x10003BC28, symSize: 0x0 }
  - { offsetInCU: 0x6AC36, offset: 0x6AC36, size: 0x8, addend: 0x0, symName: __ZN8nlohmann16json_abi_v3_11_36detail10serializerINS0_10basic_jsonISt3mapSt6vectorNSt7__cxx1112basic_stringIcSt11char_traitsIcESaIcEEEbxydSaNS0_14adl_serializerES5_IhSaIhEEvEEE12dump_integerIyLi0EEEvT_, symObjAddr: 0x17590, symBinAddr: 0x1000196C8, symSize: 0x2D0 }
  - { offsetInCU: 0x6AD6E, offset: 0x6AD6E, size: 0x8, addend: 0x0, symName: __ZZN8nlohmann16json_abi_v3_11_36detail10serializerINS0_10basic_jsonISt3mapSt6vectorNSt7__cxx1112basic_stringIcSt11char_traitsIcESaIcEEEbxydSaNS0_14adl_serializerES5_IhSaIhEEvEEE12dump_integerIyLi0EEEvT_E12digits_to_99, symObjAddr: 0x33D90, symBinAddr: 0x10003BB60, symSize: 0x0 }
  - { offsetInCU: 0x6AD6D, offset: 0x6AD6D, size: 0x8, addend: 0x0, symName: __ZNK8nlohmann16json_abi_v3_11_327byte_container_with_subtypeISt6vectorIhSaIhEEE7subtypeEv, symObjAddr: 0x1755C, symBinAddr: 0x100019694, symSize: 0x34 }
  - { offsetInCU: 0x6AD97, offset: 0x6AD97, size: 0x8, addend: 0x0, symName: __ZNK8nlohmann16json_abi_v3_11_327byte_container_with_subtypeISt6vectorIhSaIhEEE11has_subtypeEv, symObjAddr: 0x17544, symBinAddr: 0x10001967C, symSize: 0x18 }
  - { offsetInCU: 0x6ADC1, offset: 0x6ADC1, size: 0x8, addend: 0x0, symName: __ZNSt6vectorIhSaIhEE4backEv, symObjAddr: 0x1750C, symBinAddr: 0x100019644, symSize: 0x38 }
  - { offsetInCU: 0x6ADEB, offset: 0x6ADEB, size: 0x8, addend: 0x0, symName: __ZN8nlohmann16json_abi_v3_11_36detail10serializerINS0_10basic_jsonISt3mapSt6vectorNSt7__cxx1112basic_stringIcSt11char_traitsIcESaIcEEEbxydSaNS0_14adl_serializerES5_IhSaIhEEvEEE12dump_integerIhLi0EEEvT_, symObjAddr: 0x17234, symBinAddr: 0x10001936C, symSize: 0x2D8 }
  - { offsetInCU: 0x6AF23, offset: 0x6AF23, size: 0x8, addend: 0x0, symName: __ZZN8nlohmann16json_abi_v3_11_36detail10serializerINS0_10basic_jsonISt3mapSt6vectorNSt7__cxx1112basic_stringIcSt11char_traitsIcESaIcEEEbxydSaNS0_14adl_serializerES5_IhSaIhEEvEEE12dump_integerIhLi0EEEvT_E12digits_to_99, symObjAddr: 0x33CC8, symBinAddr: 0x10003BA98, symSize: 0x0 }
  - { offsetInCU: 0x6AF22, offset: 0x6AF22, size: 0x8, addend: 0x0, symName: __ZNK9__gnu_cxx17__normal_iteratorIPKhSt6vectorIhSaIhEEEdeEv, symObjAddr: 0x1721C, symBinAddr: 0x100019354, symSize: 0x18 }
  - { offsetInCU: 0x6AF4C, offset: 0x6AF4C, size: 0x8, addend: 0x0, symName: __ZN9__gnu_cxx17__normal_iteratorIPKhSt6vectorIhSaIhEEEppEv, symObjAddr: 0x171F4, symBinAddr: 0x10001932C, symSize: 0x28 }
  - { offsetInCU: 0x6AF72, offset: 0x6AF72, size: 0x8, addend: 0x0, symName: __ZN9__gnu_cxxneIPKhSt6vectorIhSaIhEEEEbRKNS_17__normal_iteratorIT_T0_EESB_, symObjAddr: 0x171B0, symBinAddr: 0x1000192E8, symSize: 0x44 }
  - { offsetInCU: 0x6AFC3, offset: 0x6AFC3, size: 0x8, addend: 0x0, symName: __ZNK9__gnu_cxx17__normal_iteratorIPKhSt6vectorIhSaIhEEEmiEl, symObjAddr: 0x17170, symBinAddr: 0x1000192A8, symSize: 0x40 }
  - { offsetInCU: 0x6AFFE, offset: 0x6AFFE, size: 0x8, addend: 0x0, symName: __ZNKSt6vectorIhSaIhEE4cendEv, symObjAddr: 0x17148, symBinAddr: 0x100019280, symSize: 0x28 }
  - { offsetInCU: 0x6B028, offset: 0x6B028, size: 0x8, addend: 0x0, symName: __ZNKSt6vectorIhSaIhEE6cbeginEv, symObjAddr: 0x17124, symBinAddr: 0x10001925C, symSize: 0x24 }
  - { offsetInCU: 0x6B052, offset: 0x6B052, size: 0x8, addend: 0x0, symName: __ZNKSt6vectorIhSaIhEE5emptyEv, symObjAddr: 0x170EC, symBinAddr: 0x100019224, symSize: 0x38 }
  - { offsetInCU: 0x6B07C, offset: 0x6B07C, size: 0x8, addend: 0x0, symName: __ZNK9__gnu_cxx17__normal_iteratorIPKN8nlohmann16json_abi_v3_11_310basic_jsonISt3mapSt6vectorNSt7__cxx1112basic_stringIcSt11char_traitsIcESaIcEEEbxydSaNS2_14adl_serializerES5_IhSaIhEEvEES5_ISF_SaISF_EEEdeEv, symObjAddr: 0x170D4, symBinAddr: 0x10001920C, symSize: 0x18 }
  - { offsetInCU: 0x6B0A6, offset: 0x6B0A6, size: 0x8, addend: 0x0, symName: __ZN9__gnu_cxx17__normal_iteratorIPKN8nlohmann16json_abi_v3_11_310basic_jsonISt3mapSt6vectorNSt7__cxx1112basic_stringIcSt11char_traitsIcESaIcEEEbxydSaNS2_14adl_serializerES5_IhSaIhEEvEES5_ISF_SaISF_EEEppEv, symObjAddr: 0x170AC, symBinAddr: 0x1000191E4, symSize: 0x28 }
  - { offsetInCU: 0x6B0CC, offset: 0x6B0CC, size: 0x8, addend: 0x0, symName: __ZN9__gnu_cxxneIPKN8nlohmann16json_abi_v3_11_310basic_jsonISt3mapSt6vectorNSt7__cxx1112basic_stringIcSt11char_traitsIcESaIcEEEbxydSaNS2_14adl_serializerES5_IhSaIhEEvEES5_ISF_SaISF_EEEEbRKNS_17__normal_iteratorIT_T0_EESP_, symObjAddr: 0x17068, symBinAddr: 0x1000191A0, symSize: 0x44 }
  - { offsetInCU: 0x6B11D, offset: 0x6B11D, size: 0x8, addend: 0x0, symName: __ZNK9__gnu_cxx17__normal_iteratorIPKN8nlohmann16json_abi_v3_11_310basic_jsonISt3mapSt6vectorNSt7__cxx1112basic_stringIcSt11char_traitsIcESaIcEEEbxydSaNS2_14adl_serializerES5_IhSaIhEEvEES5_ISF_SaISF_EEEmiEl, symObjAddr: 0x17024, symBinAddr: 0x10001915C, symSize: 0x44 }
  - { offsetInCU: 0x6B158, offset: 0x6B158, size: 0x8, addend: 0x0, symName: __ZNKSt6vectorIN8nlohmann16json_abi_v3_11_310basic_jsonISt3mapS_NSt7__cxx1112basic_stringIcSt11char_traitsIcESaIcEEEbxydSaNS1_14adl_serializerES_IhSaIhEEvEESaISD_EE4cendEv, symObjAddr: 0x16FFC, symBinAddr: 0x100019134, symSize: 0x28 }
  - { offsetInCU: 0x6B182, offset: 0x6B182, size: 0x8, addend: 0x0, symName: __ZNKSt6vectorIN8nlohmann16json_abi_v3_11_310basic_jsonISt3mapS_NSt7__cxx1112basic_stringIcSt11char_traitsIcESaIcEEEbxydSaNS1_14adl_serializerES_IhSaIhEEvEESaISD_EE6cbeginEv, symObjAddr: 0x16FD8, symBinAddr: 0x100019110, symSize: 0x24 }
  - { offsetInCU: 0x6B1AC, offset: 0x6B1AC, size: 0x8, addend: 0x0, symName: __ZNKSt6vectorIN8nlohmann16json_abi_v3_11_310basic_jsonISt3mapS_NSt7__cxx1112basic_stringIcSt11char_traitsIcESaIcEEEbxydSaNS1_14adl_serializerES_IhSaIhEEvEESaISD_EE5emptyEv, symObjAddr: 0x16FA0, symBinAddr: 0x1000190D8, symSize: 0x38 }
  - { offsetInCU: 0x6B1D9, offset: 0x6B1D9, size: 0x8, addend: 0x0, symName: __ZSteqRKSt23_Rb_tree_const_iteratorISt4pairIKNSt7__cxx1112basic_stringIcSt11char_traitsIcESaIcEEEN8nlohmann16json_abi_v3_11_310basic_jsonISt3mapSt6vectorS6_bxydSaNS9_14adl_serializerESC_IhSaIhEEvEEEESK_, symObjAddr: 0x16F70, symBinAddr: 0x1000190A8, symSize: 0x30 }
  - { offsetInCU: 0x6B23F, offset: 0x6B23F, size: 0x8, addend: 0x0, symName: __ZStneRKSt23_Rb_tree_const_iteratorISt4pairIKNSt7__cxx1112basic_stringIcSt11char_traitsIcESaIcEEEN8nlohmann16json_abi_v3_11_310basic_jsonISt3mapSt6vectorS6_bxydSaNS9_14adl_serializerESC_IhSaIhEEvEEEESK_, symObjAddr: 0x16F40, symBinAddr: 0x100019078, symSize: 0x30 }
  - { offsetInCU: 0x6B27E, offset: 0x6B27E, size: 0x8, addend: 0x0, symName: __ZNKSt3mapINSt7__cxx1112basic_stringIcSt11char_traitsIcESaIcEEEN8nlohmann16json_abi_v3_11_310basic_jsonIS_St6vectorS5_bxydSaNS7_14adl_serializerES9_IhSaIhEEvEESt4lessIvESaISt4pairIKS5_SD_EEE4cendEv, symObjAddr: 0x16F24, symBinAddr: 0x10001905C, symSize: 0x1C }
  - { offsetInCU: 0x6B2A8, offset: 0x6B2A8, size: 0x8, addend: 0x0, symName: __ZNKSt23_Rb_tree_const_iteratorISt4pairIKNSt7__cxx1112basic_stringIcSt11char_traitsIcESaIcEEEN8nlohmann16json_abi_v3_11_310basic_jsonISt3mapSt6vectorS6_bxydSaNS9_14adl_serializerESC_IhSaIhEEvEEEEptEv, symObjAddr: 0x16F04, symBinAddr: 0x10001903C, symSize: 0x20 }
  - { offsetInCU: 0x6B2D2, offset: 0x6B2D2, size: 0x8, addend: 0x0, symName: __ZN8nlohmann16json_abi_v3_11_36detail10serializerINS0_10basic_jsonISt3mapSt6vectorNSt7__cxx1112basic_stringIcSt11char_traitsIcESaIcEEEbxydSaNS0_14adl_serializerES5_IhSaIhEEvEEE12dump_escapedERKSB_b, symObjAddr: 0x1641C, symBinAddr: 0x100018554, symSize: 0xAE8 }
  - { offsetInCU: 0x6B506, offset: 0x6B506, size: 0x8, addend: 0x0, symName: __ZNSt23_Rb_tree_const_iteratorISt4pairIKNSt7__cxx1112basic_stringIcSt11char_traitsIcESaIcEEEN8nlohmann16json_abi_v3_11_310basic_jsonISt3mapSt6vectorS6_bxydSaNS9_14adl_serializerESC_IhSaIhEEvEEEEppEv, symObjAddr: 0x163EC, symBinAddr: 0x100018524, symSize: 0x30 }
  - { offsetInCU: 0x6B530, offset: 0x6B530, size: 0x8, addend: 0x0, symName: __ZNKSt3mapINSt7__cxx1112basic_stringIcSt11char_traitsIcESaIcEEEN8nlohmann16json_abi_v3_11_310basic_jsonIS_St6vectorS5_bxydSaNS7_14adl_serializerES9_IhSaIhEEvEESt4lessIvESaISt4pairIKS5_SD_EEE4sizeEv, symObjAddr: 0x163D0, symBinAddr: 0x100018508, symSize: 0x1C }
  - { offsetInCU: 0x6B55A, offset: 0x6B55A, size: 0x8, addend: 0x0, symName: __ZNKSt3mapINSt7__cxx1112basic_stringIcSt11char_traitsIcESaIcEEEN8nlohmann16json_abi_v3_11_310basic_jsonIS_St6vectorS5_bxydSaNS7_14adl_serializerES9_IhSaIhEEvEESt4lessIvESaISt4pairIKS5_SD_EEE6cbeginEv, symObjAddr: 0x163B4, symBinAddr: 0x1000184EC, symSize: 0x1C }
  - { offsetInCU: 0x6B584, offset: 0x6B584, size: 0x8, addend: 0x0, symName: __ZNKSt19__shared_ptr_accessIN8nlohmann16json_abi_v3_11_36detail23output_adapter_protocolIcEELN9__gnu_cxx12_Lock_policyE2ELb0ELb0EEptEv, symObjAddr: 0x16398, symBinAddr: 0x1000184D0, symSize: 0x1C }
  - { offsetInCU: 0x6B5AE, offset: 0x6B5AE, size: 0x8, addend: 0x0, symName: __ZNKSt3mapINSt7__cxx1112basic_stringIcSt11char_traitsIcESaIcEEEN8nlohmann16json_abi_v3_11_310basic_jsonIS_St6vectorS5_bxydSaNS7_14adl_serializerES9_IhSaIhEEvEESt4lessIvESaISt4pairIKS5_SD_EEE5emptyEv, symObjAddr: 0x1637C, symBinAddr: 0x1000184B4, symSize: 0x1C }
  - { offsetInCU: 0x6B65D, offset: 0x6B65D, size: 0x8, addend: 0x0, symName: __ZNSt7__cxx1112basic_stringIcSt11char_traitsIcESaIcEEC1IS3_EEmcRKS3_, symObjAddr: 0x16308, symBinAddr: 0x100018440, symSize: 0x74 }
  - { offsetInCU: 0x6B6DC, offset: 0x6B6DC, size: 0x8, addend: 0x0, symName: __ZNSt10shared_ptrIN8nlohmann16json_abi_v3_11_36detail23output_adapter_protocolIcEEEC1EOS5_, symObjAddr: 0x162CC, symBinAddr: 0x100018404, symSize: 0x3C }
  - { offsetInCU: 0x6B6B7, offset: 0x6B6B7, size: 0x8, addend: 0x0, symName: __ZSt4moveIRSt10shared_ptrIN8nlohmann16json_abi_v3_11_36detail23output_adapter_protocolIcEEEEONSt16remove_referenceIT_E4typeEOS9_, symObjAddr: 0x162B8, symBinAddr: 0x1000183F0, symSize: 0x14 }
  - { offsetInCU: 0x6B7CE, offset: 0x6B7CE, size: 0x8, addend: 0x0, symName: __ZNSt10shared_ptrIN8nlohmann16json_abi_v3_11_36detail23output_adapter_protocolIcEEEC1INS2_21output_string_adapterIcNSt7__cxx1112basic_stringIcSt11char_traitsIcESaIcEEEEEvEEOS_IT_E, symObjAddr: 0x1627C, symBinAddr: 0x1000183B4, symSize: 0x3C }
  - { offsetInCU: 0x6B752, offset: 0x6B752, size: 0x8, addend: 0x0, symName: __ZSt11make_sharedIN8nlohmann16json_abi_v3_11_36detail21output_string_adapterIcNSt7__cxx1112basic_stringIcSt11char_traitsIcESaIcEEEEEJRS9_EESt10shared_ptrINSt9enable_ifIXntsrSt8is_arrayIT_E5valueESF_E4typeEEDpOT0_, symObjAddr: 0x16238, symBinAddr: 0x100018370, symSize: 0x44 }
  - { offsetInCU: 0x6B7AD, offset: 0x6B7AD, size: 0x8, addend: 0x0, symName: __ZN8nlohmann16json_abi_v3_11_310basic_jsonISt3mapSt6vectorNSt7__cxx1112basic_stringIcSt11char_traitsIcESaIcEEEbxydSaNS0_14adl_serializerES3_IhSaIhEEvE6createINS0_27byte_container_with_subtypeISC_EEJRKSG_EEEPT_DpOT0_, symObjAddr: 0x1609C, symBinAddr: 0x1000181D4, symSize: 0x19C }
  - { offsetInCU: 0x6B985, offset: 0x6B985, size: 0x8, addend: 0x0, symName: __ZZN8nlohmann16json_abi_v3_11_310basic_jsonISt3mapSt6vectorNSt7__cxx1112basic_stringIcSt11char_traitsIcESaIcEEEbxydSaNS0_14adl_serializerES3_IhSaIhEEvE6createINS0_27byte_container_with_subtypeISC_EEJRKSG_EEEPT_DpOT0_ENKUlPSG_E_clESO_, symObjAddr: 0x16050, symBinAddr: 0x100018188, symSize: 0x4C }
  - { offsetInCU: 0x6BA43, offset: 0x6BA43, size: 0x8, addend: 0x0, symName: __ZN8nlohmann16json_abi_v3_11_310basic_jsonISt3mapSt6vectorNSt7__cxx1112basic_stringIcSt11char_traitsIcESaIcEEEbxydSaNS0_14adl_serializerES3_IhSaIhEEvE6createIS9_JRKS9_EEEPT_DpOT0_, symObjAddr: 0x15EB4, symBinAddr: 0x100017FEC, symSize: 0x19C }
  - { offsetInCU: 0x6BBF7, offset: 0x6BBF7, size: 0x8, addend: 0x0, symName: __ZZN8nlohmann16json_abi_v3_11_310basic_jsonISt3mapSt6vectorNSt7__cxx1112basic_stringIcSt11char_traitsIcESaIcEEEbxydSaNS0_14adl_serializerES3_IhSaIhEEvE6createIS9_JRKS9_EEEPT_DpOT0_ENKUlPS9_E_clESM_, symObjAddr: 0x15E68, symBinAddr: 0x100017FA0, symSize: 0x4C }
  - { offsetInCU: 0x6BCD9, offset: 0x6BCD9, size: 0x8, addend: 0x0, symName: __ZN8nlohmann16json_abi_v3_11_310basic_jsonISt3mapSt6vectorNSt7__cxx1112basic_stringIcSt11char_traitsIcESaIcEEEbxydSaNS0_14adl_serializerES3_IhSaIhEEvE6createIS3_ISD_SaISD_EEJRKSG_EEEPT_DpOT0_, symObjAddr: 0x15CCC, symBinAddr: 0x100017E04, symSize: 0x19C }
  - { offsetInCU: 0x6BE99, offset: 0x6BE99, size: 0x8, addend: 0x0, symName: __ZZN8nlohmann16json_abi_v3_11_310basic_jsonISt3mapSt6vectorNSt7__cxx1112basic_stringIcSt11char_traitsIcESaIcEEEbxydSaNS0_14adl_serializerES3_IhSaIhEEvE6createIS3_ISD_SaISD_EEJRKSG_EEEPT_DpOT0_ENKUlPSG_E_clESO_, symObjAddr: 0x15C80, symBinAddr: 0x100017DB8, symSize: 0x4C }
  - { offsetInCU: 0x6BF6F, offset: 0x6BF6F, size: 0x8, addend: 0x0, symName: __ZN8nlohmann16json_abi_v3_11_310basic_jsonISt3mapSt6vectorNSt7__cxx1112basic_stringIcSt11char_traitsIcESaIcEEEbxydSaNS0_14adl_serializerES3_IhSaIhEEvE6createIS2_IS9_SD_St4lessIvESaISt4pairIKS9_SD_EEEJRKSL_EEEPT_DpOT0_, symObjAddr: 0x15AE4, symBinAddr: 0x100017C1C, symSize: 0x19C }
  - { offsetInCU: 0x6C149, offset: 0x6C149, size: 0x8, addend: 0x0, symName: __ZZN8nlohmann16json_abi_v3_11_310basic_jsonISt3mapSt6vectorNSt7__cxx1112basic_stringIcSt11char_traitsIcESaIcEEEbxydSaNS0_14adl_serializerES3_IhSaIhEEvE6createIS2_IS9_SD_St4lessIvESaISt4pairIKS9_SD_EEEJRKSL_EEEPT_DpOT0_ENKUlPSL_E_clEST_, symObjAddr: 0x15A98, symBinAddr: 0x100017BD0, symSize: 0x4C }
  - { offsetInCU: 0x6C205, offset: 0x6C205, size: 0x8, addend: 0x0, symName: __ZSt22__final_insertion_sortIN9__gnu_cxx17__normal_iteratorIPSt4pairIiS2_IiiEESt6vectorIS4_SaIS4_EEEENS0_5__ops15_Iter_less_iterEEvT_SC_T0_, symObjAddr: 0x159FC, symBinAddr: 0x100017B34, symSize: 0x9C }
  - { offsetInCU: 0x6C263, offset: 0x6C263, size: 0x8, addend: 0x0, symName: __ZSt16__introsort_loopIN9__gnu_cxx17__normal_iteratorIPSt4pairIiS2_IiiEESt6vectorIS4_SaIS4_EEEElNS0_5__ops15_Iter_less_iterEEvT_SC_T0_T1_, symObjAddr: 0x15944, symBinAddr: 0x100017A7C, symSize: 0xB8 }
  - { offsetInCU: 0x6C2FF, offset: 0x6C2FF, size: 0x8, addend: 0x0, symName: __ZSt4__lgIlET_S0_, symObjAddr: 0x15920, symBinAddr: 0x100017A58, symSize: 0x24 }
  - { offsetInCU: 0x6C332, offset: 0x6C332, size: 0x8, addend: 0x0, symName: __ZN9__gnu_cxxmiIPSt4pairIiS1_IiiEESt6vectorIS3_SaIS3_EEEENS_17__normal_iteratorIT_T0_E15difference_typeERKSB_SE_, symObjAddr: 0x158D4, symBinAddr: 0x100017A0C, symSize: 0x4C }
  - { offsetInCU: 0x6C37F, offset: 0x6C37F, size: 0x8, addend: 0x0, symName: __ZN9__gnu_cxxneIPSt4pairIiS1_IiiEESt6vectorIS3_SaIS3_EEEEbRKNS_17__normal_iteratorIT_T0_EESD_, symObjAddr: 0x15890, symBinAddr: 0x1000179C8, symSize: 0x44 }
  - { offsetInCU: 0x6C3D0, offset: 0x6C3D0, size: 0x8, addend: 0x0, symName: __ZNSt6vectorISt4pairIiS0_IiiEESaIS2_EE4backEv, symObjAddr: 0x15858, symBinAddr: 0x100017990, symSize: 0x38 }
  - { offsetInCU: 0x6C3FA, offset: 0x6C3FA, size: 0x8, addend: 0x0, symName: __ZNSt6vectorISt4pairIiS0_IiiEESaIS2_EE17_M_realloc_appendIJS2_EEEvDpOT_, symObjAddr: 0x15660, symBinAddr: 0x100017798, symSize: 0x1F8 }
  - { offsetInCU: 0x6C5DA, offset: 0x6C5DA, size: 0x8, addend: 0x0, symName: __ZZNSt6vectorISt4pairIiS0_IiiEESaIS2_EE17_M_realloc_appendIJS2_EEEvDpOT_EN6_GuardC1EPS2_mRS3_, symObjAddr: 0x155BC, symBinAddr: 0x1000176F4, symSize: 0x44 }
  - { offsetInCU: 0x6C617, offset: 0x6C617, size: 0x8, addend: 0x0, symName: __ZZNSt6vectorISt4pairIiS0_IiiEESaIS2_EE17_M_realloc_appendIJS2_EEEvDpOT_EN6_GuardD1Ev, symObjAddr: 0x15600, symBinAddr: 0x100017738, symSize: 0x60 }
  - { offsetInCU: 0x6C6FF, offset: 0x6C6FF, size: 0x8, addend: 0x0, symName: __ZSt7forwardISt4pairIiS0_IiiEEEOT_RNSt16remove_referenceIS3_E4typeE, symObjAddr: 0x155A8, symBinAddr: 0x1000176E0, symSize: 0x14 }
  - { offsetInCU: 0x6C731, offset: 0x6C731, size: 0x8, addend: 0x0, symName: __ZSt8_DestroyIPSt4pairIiS0_IiiEEEvT_S4_, symObjAddr: 0x15580, symBinAddr: 0x1000176B8, symSize: 0x28 }
  - { offsetInCU: 0x6C7BF, offset: 0x6C7BF, size: 0x8, addend: 0x0, symName: __ZN8nlohmann16json_abi_v3_11_36detail6parserINS0_10basic_jsonISt3mapSt6vectorNSt7__cxx1112basic_stringIcSt11char_traitsIcESaIcEEEbxydSaNS0_14adl_serializerES5_IhSaIhEEvEENS1_22iterator_input_adapterIN9__gnu_cxx17__normal_iteratorIPKcSB_EEEEE18sax_parse_internalINS1_19json_sax_dom_parserISF_EEEEbPT_, symObjAddr: 0x13F28, symBinAddr: 0x100016060, symSize: 0x1658 }
  - { offsetInCU: 0x6CD94, offset: 0x6CD94, size: 0x8, addend: 0x0, symName: __ZN8nlohmann16json_abi_v3_11_36detail6parserINS0_10basic_jsonISt3mapSt6vectorNSt7__cxx1112basic_stringIcSt11char_traitsIcESaIcEEEbxydSaNS0_14adl_serializerES5_IhSaIhEEvEENS1_22iterator_input_adapterIN9__gnu_cxx17__normal_iteratorIPKcSB_EEEEE17exception_messageENS1_10lexer_baseISF_E10token_typeERKSB_, symObjAddr: 0x13CBC, symBinAddr: 0x100015DF4, symSize: 0x26C }
  - { offsetInCU: 0x6CE7A, offset: 0x6CE7A, size: 0x8, addend: 0x0, symName: __ZNK8nlohmann16json_abi_v3_11_36detail5lexerINS0_10basic_jsonISt3mapSt6vectorNSt7__cxx1112basic_stringIcSt11char_traitsIcESaIcEEEbxydSaNS0_14adl_serializerES5_IhSaIhEEvEENS1_22iterator_input_adapterIN9__gnu_cxx17__normal_iteratorIPKcSB_EEEEE16get_token_stringEv, symObjAddr: 0x13BC0, symBinAddr: 0x100015CF8, symSize: 0xFC }
  - { offsetInCU: 0x6CF87, offset: 0x6CF87, size: 0x8, addend: 0x0, symName: __ZNK8nlohmann16json_abi_v3_11_36detail5lexerINS0_10basic_jsonISt3mapSt6vectorNSt7__cxx1112basic_stringIcSt11char_traitsIcESaIcEEEbxydSaNS0_14adl_serializerES5_IhSaIhEEvEENS1_22iterator_input_adapterIN9__gnu_cxx17__normal_iteratorIPKcSB_EEEEE12get_positionEv, symObjAddr: 0x13B8C, symBinAddr: 0x100015CC4, symSize: 0x34 }
  - { offsetInCU: 0x6CFB1, offset: 0x6CFB1, size: 0x8, addend: 0x0, symName: __ZN8nlohmann16json_abi_v3_11_36detail6parserINS0_10basic_jsonISt3mapSt6vectorNSt7__cxx1112basic_stringIcSt11char_traitsIcESaIcEEEbxydSaNS0_14adl_serializerES5_IhSaIhEEvEENS1_22iterator_input_adapterIN9__gnu_cxx17__normal_iteratorIPKcSB_EEEEE9get_tokenEv, symObjAddr: 0x13B58, symBinAddr: 0x100015C90, symSize: 0x34 }
  - { offsetInCU: 0x6CFDB, offset: 0x6CFDB, size: 0x8, addend: 0x0, symName: __ZN8nlohmann16json_abi_v3_11_36detail6parserINS0_10basic_jsonISt3mapSt6vectorNSt7__cxx1112basic_stringIcSt11char_traitsIcESaIcEEEbxydSaNS0_14adl_serializerES5_IhSaIhEEvEENS1_22iterator_input_adapterIN9__gnu_cxx17__normal_iteratorIPKcSB_EEEEE18sax_parse_internalINS1_28json_sax_dom_callback_parserISF_EEEEbPT_, symObjAddr: 0x12500, symBinAddr: 0x100014638, symSize: 0x1658 }
  - { offsetInCU: 0x6D722, offset: 0x6D722, size: 0x8, addend: 0x0, symName: __ZN8nlohmann16json_abi_v3_11_36detail6parserINS0_10basic_jsonISt3mapSt6vectorNSt7__cxx1112basic_stringIcSt11char_traitsIcESaIcEEEbxydSaNS0_14adl_serializerES5_IhSaIhEEvEENS1_22iterator_input_adapterIN9__gnu_cxx17__normal_iteratorIPKcSB_EEEEEC1EOSM_St8functionIFbiNS1_13parse_event_tERSF_EEbb, symObjAddr: 0x12458, symBinAddr: 0x100014590, symSize: 0xA8 }
  - { offsetInCU: 0x6D657, offset: 0x6D657, size: 0x8, addend: 0x0, symName: __ZSt4moveIRN8nlohmann16json_abi_v3_11_36detail22iterator_input_adapterIN9__gnu_cxx17__normal_iteratorIPKcNSt7__cxx1112basic_stringIcSt11char_traitsIcESaIcEEEEEEEEONSt16remove_referenceIT_E4typeEOSI_, symObjAddr: 0x12444, symBinAddr: 0x10001457C, symSize: 0x14 }
  - { offsetInCU: 0x6D689, offset: 0x6D689, size: 0x8, addend: 0x0, symName: __ZN8nlohmann16json_abi_v3_11_36detail36container_input_adapter_factory_impl31container_input_adapter_factoryINSt7__cxx1112basic_stringIcSt11char_traitsIcESaIcEEEvE6createERKS9_, symObjAddr: 0x123F0, symBinAddr: 0x100014528, symSize: 0x54 }
  - { offsetInCU: 0x6D6FF, offset: 0x6D6FF, size: 0x8, addend: 0x0, symName: __ZNSt19istreambuf_iteratorIcSt11char_traitsIcEEppEv, symObjAddr: 0x123BC, symBinAddr: 0x1000144F4, symSize: 0x34 }
  - { offsetInCU: 0x6D729, offset: 0x6D729, size: 0x8, addend: 0x0, symName: __ZNKSt19istreambuf_iteratorIcSt11char_traitsIcEEdeEv, symObjAddr: 0x12394, symBinAddr: 0x1000144CC, symSize: 0x28 }
  - { offsetInCU: 0x6D75F, offset: 0x6D75F, size: 0x8, addend: 0x0, symName: __ZStneIcSt11char_traitsIcEEbRKSt19istreambuf_iteratorIT_T0_ES7_, symObjAddr: 0x12368, symBinAddr: 0x1000144A0, symSize: 0x2C }
  - { offsetInCU: 0x6D7AA, offset: 0x6D7AA, size: 0x8, addend: 0x0, symName: __ZSt34__uninitialized_move_if_noexcept_aIPiS0_SaIiEET0_T_S3_S2_RT1_, symObjAddr: 0x12318, symBinAddr: 0x100014450, symSize: 0x50 }
  - { offsetInCU: 0x6D822, offset: 0x6D822, size: 0x8, addend: 0x0, symName: __ZSt22__uninitialized_copy_aIN9__gnu_cxx17__normal_iteratorIPiSt6vectorIiSaIiEEEES2_iET0_T_S8_S7_RSaIT1_E, symObjAddr: 0x122E8, symBinAddr: 0x100014420, symSize: 0x30 }
  - { offsetInCU: 0x6D8D3, offset: 0x6D8D3, size: 0x8, addend: 0x0, symName: __ZSt13move_backwardIPiS0_ET0_T_S2_S1_, symObjAddr: 0x122A0, symBinAddr: 0x1000143D8, symSize: 0x48 }
  - { offsetInCU: 0x6D931, offset: 0x6D931, size: 0x8, addend: 0x0, symName: __ZSt22__uninitialized_move_aIPiS0_SaIiEET0_T_S3_S2_RT1_, symObjAddr: 0x12250, symBinAddr: 0x100014388, symSize: 0x50 }
  - { offsetInCU: 0x6D9DD, offset: 0x6D9DD, size: 0x8, addend: 0x0, symName: __ZNSt6vectorIiSaIiEE15_M_erase_at_endEPi, symObjAddr: 0x121C8, symBinAddr: 0x100014300, symSize: 0x88 }
  - { offsetInCU: 0x6DA6E, offset: 0x6DA6E, size: 0x8, addend: 0x0, symName: __ZSt4moveIN9__gnu_cxx17__normal_iteratorIPiSt6vectorIiSaIiEEEES6_ET0_T_S8_S7_, symObjAddr: 0x12180, symBinAddr: 0x1000142B8, symSize: 0x48 }
  - { offsetInCU: 0x6DAD0, offset: 0x6DAD0, size: 0x8, addend: 0x0, symName: __ZNK9__gnu_cxx17__normal_iteratorIPKiSt6vectorIiSaIiEEE4baseEv, symObjAddr: 0x1216C, symBinAddr: 0x1000142A4, symSize: 0x14 }
  - { offsetInCU: 0x6DB5D, offset: 0x6DB5D, size: 0x8, addend: 0x0, symName: __ZN9__gnu_cxx17__normal_iteratorIPKiSt6vectorIiSaIiEEEC1ERKS2_, symObjAddr: 0x12144, symBinAddr: 0x10001427C, symSize: 0x28 }
  - { offsetInCU: 0x6DB4D, offset: 0x6DB4D, size: 0x8, addend: 0x0, symName: __ZSt12__niter_wrapIN9__gnu_cxx17__normal_iteratorIPiSt6vectorIiSaIiEEEES2_ET_S7_T0_, symObjAddr: 0x120FC, symBinAddr: 0x100014234, symSize: 0x48 }
  - { offsetInCU: 0x6DB9A, offset: 0x6DB9A, size: 0x8, addend: 0x0, symName: __ZSt14__copy_move_a1ILb0EPiS0_ET1_T0_S2_S1_, symObjAddr: 0x120D0, symBinAddr: 0x100014208, symSize: 0x2C }
  - { offsetInCU: 0x6DC02, offset: 0x6DC02, size: 0x8, addend: 0x0, symName: __ZSt12__niter_baseIPiSt6vectorIiSaIiEEET_N9__gnu_cxx17__normal_iteratorIS4_T0_EE, symObjAddr: 0x120B0, symBinAddr: 0x1000141E8, symSize: 0x20 }
  - { offsetInCU: 0x6DC42, offset: 0x6DC42, size: 0x8, addend: 0x0, symName: __ZNK9__gnu_cxx17__normal_iteratorIPN8nlohmann16json_abi_v3_11_310basic_jsonISt3mapSt6vectorNSt7__cxx1112basic_stringIcSt11char_traitsIcESaIcEEEbxydSaNS2_14adl_serializerES5_IhSaIhEEvEES5_ISF_SaISF_EEEmiEl, symObjAddr: 0x1206C, symBinAddr: 0x1000141A4, symSize: 0x44 }
  - { offsetInCU: 0x6DC7D, offset: 0x6DC7D, size: 0x8, addend: 0x0, symName: __ZNSt6vectorIN8nlohmann16json_abi_v3_11_310basic_jsonISt3mapS_NSt7__cxx1112basic_stringIcSt11char_traitsIcESaIcEEEbxydSaNS1_14adl_serializerES_IhSaIhEEvEESaISD_EE17_M_realloc_appendIJRKSD_EEEvDpOT_, symObjAddr: 0x11E70, symBinAddr: 0x100013FA8, symSize: 0x1FC }
  - { offsetInCU: 0x6DEDB, offset: 0x6DEDB, size: 0x8, addend: 0x0, symName: __ZZNSt6vectorIN8nlohmann16json_abi_v3_11_310basic_jsonISt3mapS_NSt7__cxx1112basic_stringIcSt11char_traitsIcESaIcEEEbxydSaNS1_14adl_serializerES_IhSaIhEEvEESaISD_EE17_M_realloc_appendIJRKSD_EEEvDpOT_EN6_GuardC1EPSD_mRSE_, symObjAddr: 0x11DCC, symBinAddr: 0x100013F04, symSize: 0x44 }
  - { offsetInCU: 0x6DF18, offset: 0x6DF18, size: 0x8, addend: 0x0, symName: __ZZNSt6vectorIN8nlohmann16json_abi_v3_11_310basic_jsonISt3mapS_NSt7__cxx1112basic_stringIcSt11char_traitsIcESaIcEEEbxydSaNS1_14adl_serializerES_IhSaIhEEvEESaISD_EE17_M_realloc_appendIJRKSD_EEEvDpOT_EN6_GuardD1Ev, symObjAddr: 0x11E10, symBinAddr: 0x100013F48, symSize: 0x60 }
  - { offsetInCU: 0x6DF77, offset: 0x6DF77, size: 0x8, addend: 0x0, symName: __ZN8nlohmann16json_abi_v3_11_36detail11other_error6createIDnLi0EEES2_iRKNSt7__cxx1112basic_stringIcSt11char_traitsIcESaIcEEET_, symObjAddr: 0x11C8C, symBinAddr: 0x100013DC4, symSize: 0x140 }
  - { offsetInCU: 0x6E067, offset: 0x6E067, size: 0x8, addend: 0x0, symName: __ZN8nlohmann16json_abi_v3_11_310basic_jsonISt3mapSt6vectorNSt7__cxx1112basic_stringIcSt11char_traitsIcESaIcEEEbxydSaNS0_14adl_serializerES3_IhSaIhEEvE6createINS0_27byte_container_with_subtypeISC_EEJEEEPT_DpOT0_, symObjAddr: 0x11B5C, symBinAddr: 0x100013C94, symSize: 0x130 }
  - { offsetInCU: 0x6E228, offset: 0x6E228, size: 0x8, addend: 0x0, symName: __ZZN8nlohmann16json_abi_v3_11_310basic_jsonISt3mapSt6vectorNSt7__cxx1112basic_stringIcSt11char_traitsIcESaIcEEEbxydSaNS0_14adl_serializerES3_IhSaIhEEvE6createINS0_27byte_container_with_subtypeISC_EEJEEEPT_DpOT0_ENKUlPSG_E_clESM_, symObjAddr: 0x11B10, symBinAddr: 0x100013C48, symSize: 0x4C }
  - { offsetInCU: 0x6E2E1, offset: 0x6E2E1, size: 0x8, addend: 0x0, symName: __ZN8nlohmann16json_abi_v3_11_310basic_jsonISt3mapSt6vectorNSt7__cxx1112basic_stringIcSt11char_traitsIcESaIcEEEbxydSaNS0_14adl_serializerES3_IhSaIhEEvE6createIS9_JRA1_KcEEEPT_DpOT0_, symObjAddr: 0x11944, symBinAddr: 0x100013A7C, symSize: 0x1CC }
  - { offsetInCU: 0x6E497, offset: 0x6E497, size: 0x8, addend: 0x0, symName: __ZZN8nlohmann16json_abi_v3_11_310basic_jsonISt3mapSt6vectorNSt7__cxx1112basic_stringIcSt11char_traitsIcESaIcEEEbxydSaNS0_14adl_serializerES3_IhSaIhEEvE6createIS9_JRA1_KcEEEPT_DpOT0_ENKUlPS9_E_clESN_, symObjAddr: 0x118F8, symBinAddr: 0x100013A30, symSize: 0x4C }
  - { offsetInCU: 0x6E5FB, offset: 0x6E5FB, size: 0x8, addend: 0x0, symName: __ZN8nlohmann16json_abi_v3_11_310basic_jsonISt3mapSt6vectorNSt7__cxx1112basic_stringIcSt11char_traitsIcESaIcEEEbxydSaNS0_14adl_serializerES3_IhSaIhEEvE6createIS3_ISD_SaISD_EEJEEEPT_DpOT0_, symObjAddr: 0x117C0, symBinAddr: 0x1000138F8, symSize: 0x138 }
  - { offsetInCU: 0x6E7A4, offset: 0x6E7A4, size: 0x8, addend: 0x0, symName: __ZZN8nlohmann16json_abi_v3_11_310basic_jsonISt3mapSt6vectorNSt7__cxx1112basic_stringIcSt11char_traitsIcESaIcEEEbxydSaNS0_14adl_serializerES3_IhSaIhEEvE6createIS3_ISD_SaISD_EEJEEEPT_DpOT0_ENKUlPSG_E_clESM_, symObjAddr: 0x11774, symBinAddr: 0x1000138AC, symSize: 0x4C }
  - { offsetInCU: 0x6E875, offset: 0x6E875, size: 0x8, addend: 0x0, symName: __ZN8nlohmann16json_abi_v3_11_36detail11concat_intoINSt7__cxx1112basic_stringIcSt11char_traitsIcESaIcEEERA29_KcJPS9_ELi0EEEvRT_OT0_DpOT1_, symObjAddr: 0x1172C, symBinAddr: 0x100013864, symSize: 0x48 }
  - { offsetInCU: 0x6E8E4, offset: 0x6E8E4, size: 0x8, addend: 0x0, symName: __ZSt7forwardIPKcEOT_RNSt16remove_referenceIS2_E4typeE, symObjAddr: 0x11718, symBinAddr: 0x100013850, symSize: 0x14 }
  - { offsetInCU: 0x6E91D, offset: 0x6E91D, size: 0x8, addend: 0x0, symName: __ZSt7forwardIRA29_KcEOT_RNSt16remove_referenceIS3_E4typeE, symObjAddr: 0x11704, symBinAddr: 0x10001383C, symSize: 0x14 }
  - { offsetInCU: 0x6E94F, offset: 0x6E94F, size: 0x8, addend: 0x0, symName: __ZN8nlohmann16json_abi_v3_11_36detail13concat_lengthIJPKcEEEmS4_DpRKT_, symObjAddr: 0x116C8, symBinAddr: 0x100013800, symSize: 0x3C }
  - { offsetInCU: 0x6E99F, offset: 0x6E99F, size: 0x8, addend: 0x0, symName: __ZNK8nlohmann16json_abi_v3_11_36detail10to_json_fnclINS0_10basic_jsonISt3mapSt6vectorNSt7__cxx1112basic_stringIcSt11char_traitsIcESaIcEEEbxydSaNS0_14adl_serializerES6_IhSaIhEEvEEjEEDTcmcl7to_jsonfp_cl7forwardIT0_Efp0_EEcvv_EERT_OSH_, symObjAddr: 0x11690, symBinAddr: 0x1000137C8, symSize: 0x38 }
  - { offsetInCU: 0x6E9FD, offset: 0x6E9FD, size: 0x8, addend: 0x0, symName: __ZNK8nlohmann16json_abi_v3_11_36detail10to_json_fnclINS0_10basic_jsonISt3mapSt6vectorNSt7__cxx1112basic_stringIcSt11char_traitsIcESaIcEEEbxydSaNS0_14adl_serializerES6_IhSaIhEEvEEiEEDTcmcl7to_jsonfp_cl7forwardIT0_Efp0_EEcvv_EERT_OSH_, symObjAddr: 0x11658, symBinAddr: 0x100013790, symSize: 0x38 }
  - { offsetInCU: 0x6EA5B, offset: 0x6EA5B, size: 0x8, addend: 0x0, symName: __ZNK8nlohmann16json_abi_v3_11_36detail10to_json_fnclINS0_10basic_jsonISt3mapSt6vectorNSt7__cxx1112basic_stringIcSt11char_traitsIcESaIcEEEbxydSaNS0_14adl_serializerES6_IhSaIhEEvEERiEEDTcmcl7to_jsonfp_cl7forwardIT0_Efp0_EEcvv_EERT_OSI_, symObjAddr: 0x11620, symBinAddr: 0x100013758, symSize: 0x38 }
  - { offsetInCU: 0x6EAB9, offset: 0x6EAB9, size: 0x8, addend: 0x0, symName: __ZNSt3mapINSt7__cxx1112basic_stringIcSt11char_traitsIcESaIcEEEN8nlohmann16json_abi_v3_11_310basic_jsonIS_St6vectorS5_bxydSaNS7_14adl_serializerES9_IhSaIhEEvEESt4lessIvESaISt4pairIKS5_SD_EEE7emplaceIJS5_DnEEESG_ISt17_Rb_tree_iteratorISI_EbEDpOT_, symObjAddr: 0x114D8, symBinAddr: 0x100013610, symSize: 0x148 }
  - { offsetInCU: 0x6EB7F, offset: 0x6EB7F, size: 0x8, addend: 0x0, symName: __ZNSt10__pair_getILm1EE10__move_getIRNSt7__cxx1112basic_stringIcSt11char_traitsIcESaIcEEERDnEEOT0_OSt4pairIT_SA_E, symObjAddr: 0x114B8, symBinAddr: 0x1000135F0, symSize: 0x20 }
  - { offsetInCU: 0x6EBBB, offset: 0x6EBBB, size: 0x8, addend: 0x0, symName: __ZSt3getILm1ERNSt7__cxx1112basic_stringIcSt11char_traitsIcESaIcEEERDnEONSt13tuple_elementIXT_ESt4pairIT0_T1_EE4typeEOSC_, symObjAddr: 0x11498, symBinAddr: 0x1000135D0, symSize: 0x20 }
  - { offsetInCU: 0x6EC01, offset: 0x6EC01, size: 0x8, addend: 0x0, symName: __ZNSt10__pair_getILm0EE10__move_getIRNSt7__cxx1112basic_stringIcSt11char_traitsIcESaIcEEERDnEEOT_OSt4pairISA_T0_E, symObjAddr: 0x11478, symBinAddr: 0x1000135B0, symSize: 0x20 }
  - { offsetInCU: 0x6EC44, offset: 0x6EC44, size: 0x8, addend: 0x0, symName: __ZSt4moveIRSt4pairIRNSt7__cxx1112basic_stringIcSt11char_traitsIcESaIcEEERDnEEONSt16remove_referenceIT_E4typeEOSC_, symObjAddr: 0x11464, symBinAddr: 0x10001359C, symSize: 0x14 }
  - { offsetInCU: 0x6EC76, offset: 0x6EC76, size: 0x8, addend: 0x0, symName: __ZSt3getILm0ERNSt7__cxx1112basic_stringIcSt11char_traitsIcESaIcEEERDnEONSt13tuple_elementIXT_ESt4pairIT0_T1_EE4typeEOSC_, symObjAddr: 0x11444, symBinAddr: 0x10001357C, symSize: 0x20 }
  - { offsetInCU: 0x6ED5E, offset: 0x6ED5E, size: 0x8, addend: 0x0, symName: __ZNSt4pairIRNSt7__cxx1112basic_stringIcSt11char_traitsIcESaIcEEERDnEC1IS6_S7_Lb1EEES6_S7_, symObjAddr: 0x11410, symBinAddr: 0x100013548, symSize: 0x34 }
  - { offsetInCU: 0x6ED4E, offset: 0x6ED4E, size: 0x8, addend: 0x0, symName: __ZN8nlohmann16json_abi_v3_11_310basic_jsonISt3mapSt6vectorNSt7__cxx1112basic_stringIcSt11char_traitsIcESaIcEEEbxydSaNS0_14adl_serializerES3_IhSaIhEEvE6createIS2_IS9_SD_St4lessIvESaISt4pairIKS9_SD_EEEJEEEPT_DpOT0_, symObjAddr: 0x112D4, symBinAddr: 0x10001340C, symSize: 0x13C }
  - { offsetInCU: 0x6EF11, offset: 0x6EF11, size: 0x8, addend: 0x0, symName: __ZZN8nlohmann16json_abi_v3_11_310basic_jsonISt3mapSt6vectorNSt7__cxx1112basic_stringIcSt11char_traitsIcESaIcEEEbxydSaNS0_14adl_serializerES3_IhSaIhEEvE6createIS2_IS9_SD_St4lessIvESaISt4pairIKS9_SD_EEEJEEEPT_DpOT0_ENKUlPSL_E_clESR_, symObjAddr: 0x11288, symBinAddr: 0x1000133C0, symSize: 0x4C }
  - { offsetInCU: 0x6F0A3, offset: 0x6F0A3, size: 0x8, addend: 0x0, symName: __ZN8nlohmann16json_abi_v3_11_310basic_jsonISt3mapSt6vectorNSt7__cxx1112basic_stringIcSt11char_traitsIcESaIcEEEbxydSaNS0_14adl_serializerES3_IhSaIhEEvE4dataC1ENS0_6detail7value_tE, symObjAddr: 0x1124C, symBinAddr: 0x100013384, symSize: 0x3C }
  - { offsetInCU: 0x6F01F, offset: 0x6F01F, size: 0x8, addend: 0x0, symName: __ZNSt6vectorIiSaIiEE11_S_relocateEPiS2_S2_RS0_, symObjAddr: 0x11218, symBinAddr: 0x100013350, symSize: 0x34 }
  - { offsetInCU: 0x6F07C, offset: 0x6F07C, size: 0x8, addend: 0x0, symName: __ZSt12__to_addressIiEPT_S1_, symObjAddr: 0x11204, symBinAddr: 0x10001333C, symSize: 0x14 }
  - { offsetInCU: 0x6F0B5, offset: 0x6F0B5, size: 0x8, addend: 0x0, symName: __ZN9__gnu_cxxmiIPiSt6vectorIiSaIiEEEENS_17__normal_iteratorIT_T0_E15difference_typeERKS8_SB_, symObjAddr: 0x111C4, symBinAddr: 0x1000132FC, symSize: 0x40 }
  - { offsetInCU: 0x6F106, offset: 0x6F106, size: 0x8, addend: 0x0, symName: __ZNKSt6vectorIiSaIiEE12_M_check_lenEmPKc, symObjAddr: 0x110F4, symBinAddr: 0x10001322C, symSize: 0xD0 }
  - { offsetInCU: 0x6F1A8, offset: 0x6F1A8, size: 0x8, addend: 0x0, symName: __ZSt7forwardIRKiEOT_RNSt16remove_referenceIS2_E4typeE, symObjAddr: 0x110E0, symBinAddr: 0x100013218, symSize: 0x14 }
  - { offsetInCU: 0x6F1DE, offset: 0x6F1DE, size: 0x8, addend: 0x0, symName: __ZNSt6vectorIS_IiSaIiEESaIS1_EE4backEv, symObjAddr: 0x110A8, symBinAddr: 0x1000131E0, symSize: 0x38 }
  - { offsetInCU: 0x6F208, offset: 0x6F208, size: 0x8, addend: 0x0, symName: __ZNSt6vectorIS_IiSaIiEESaIS1_EE17_M_realloc_appendIJS1_EEEvDpOT_, symObjAddr: 0x10EBC, symBinAddr: 0x100012FF4, symSize: 0x1EC }
  - { offsetInCU: 0x6F3E1, offset: 0x6F3E1, size: 0x8, addend: 0x0, symName: __ZZNSt6vectorIS_IiSaIiEESaIS1_EE17_M_realloc_appendIJS1_EEEvDpOT_EN6_GuardC1EPS1_mRS2_, symObjAddr: 0x10E18, symBinAddr: 0x100012F50, symSize: 0x44 }
  - { offsetInCU: 0x6F41E, offset: 0x6F41E, size: 0x8, addend: 0x0, symName: __ZZNSt6vectorIS_IiSaIiEESaIS1_EE17_M_realloc_appendIJS1_EEEvDpOT_EN6_GuardD1Ev, symObjAddr: 0x10E5C, symBinAddr: 0x100012F94, symSize: 0x60 }
  - { offsetInCU: 0x6F50D, offset: 0x6F50D, size: 0x8, addend: 0x0, symName: __ZSt7forwardISt6vectorIiSaIiEEEOT_RNSt16remove_referenceIS3_E4typeE, symObjAddr: 0x10E04, symBinAddr: 0x100012F3C, symSize: 0x14 }
  - { offsetInCU: 0x6F53F, offset: 0x6F53F, size: 0x8, addend: 0x0, symName: __ZN8nlohmann16json_abi_v3_11_314adl_serializerINSt7__cxx1112basic_stringIcSt11char_traitsIcESaIcEEEvE9from_jsonIRKNS0_10basic_jsonISt3mapSt6vectorS7_bxydSaS1_SC_IhSaIhEEvEES7_EEDTcmclL_ZNS0_9from_jsonEEcl7forwardIT_Efp_Efp0_Ecvv_EEOSI_RT0_, symObjAddr: 0x10DC0, symBinAddr: 0x100012EF8, symSize: 0x44 }
  - { offsetInCU: 0x6F58C, offset: 0x6F58C, size: 0x8, addend: 0x0, symName: __ZN8nlohmann16json_abi_v3_11_36detail6concatINSt7__cxx1112basic_stringIcSt11char_traitsIcESaIcEEEJS8_S8_RKS8_EEET_DpOT0_, symObjAddr: 0x10D1C, symBinAddr: 0x100012E54, symSize: 0xA4 }
  - { offsetInCU: 0x6F5F7, offset: 0x6F5F7, size: 0x8, addend: 0x0, symName: __ZN8nlohmann16json_abi_v3_11_36detail9exception11diagnosticsINS0_10basic_jsonISt3mapSt6vectorNSt7__cxx1112basic_stringIcSt11char_traitsIcESaIcEEEbxydSaNS0_14adl_serializerES6_IhSaIhEEvEEEESC_PKT_, symObjAddr: 0x10CA8, symBinAddr: 0x100012DE0, symSize: 0x74 }
  - { offsetInCU: 0x6F6B4, offset: 0x6F6B4, size: 0x8, addend: 0x0, symName: __ZNK9__gnu_cxx17__normal_iteratorIPN8nlohmann16json_abi_v3_11_310basic_jsonISt3mapSt6vectorNSt7__cxx1112basic_stringIcSt11char_traitsIcESaIcEEEbxydSaNS2_14adl_serializerES5_IhSaIhEEvEES5_ISF_SaISF_EEE4baseEv, symObjAddr: 0x10C94, symBinAddr: 0x100012DCC, symSize: 0x14 }
  - { offsetInCU: 0x6F7D2, offset: 0x6F7D2, size: 0x8, addend: 0x0, symName: __ZN9__gnu_cxx17__normal_iteratorIPN8nlohmann16json_abi_v3_11_310basic_jsonISt3mapSt6vectorNSt7__cxx1112basic_stringIcSt11char_traitsIcESaIcEEEbxydSaNS2_14adl_serializerES5_IhSaIhEEvEES5_ISF_SaISF_EEEC1ERKSG_, symObjAddr: 0x10C6C, symBinAddr: 0x100012DA4, symSize: 0x28 }
  - { offsetInCU: 0x6F735, offset: 0x6F735, size: 0x8, addend: 0x0, symName: __ZNSt13_Rb_tree_nodeISt4pairIKNSt7__cxx1112basic_stringIcSt11char_traitsIcESaIcEEEN8nlohmann16json_abi_v3_11_310basic_jsonISt3mapSt6vectorS6_bxydSaNS9_14adl_serializerESC_IhSaIhEEvEEEE9_M_valptrEv, symObjAddr: 0x10C4C, symBinAddr: 0x100012D84, symSize: 0x20 }
  - { offsetInCU: 0x6F75F, offset: 0x6F75F, size: 0x8, addend: 0x0, symName: __ZNSt8_Rb_treeINSt7__cxx1112basic_stringIcSt11char_traitsIcESaIcEEESt4pairIKS5_N8nlohmann16json_abi_v3_11_310basic_jsonISt3mapSt6vectorS5_bxydSaNS9_14adl_serializerESC_IhSaIhEEvEEESt10_Select1stISH_ESt4lessIvESaISH_EE3endEv, symObjAddr: 0x10C24, symBinAddr: 0x100012D5C, symSize: 0x28 }
  - { offsetInCU: 0x6F785, offset: 0x6F785, size: 0x8, addend: 0x0, symName: __ZSt9__advanceIN9__gnu_cxx17__normal_iteratorIPN8nlohmann16json_abi_v3_11_310basic_jsonISt3mapSt6vectorNSt7__cxx1112basic_stringIcSt11char_traitsIcESaIcEEEbxydSaNS3_14adl_serializerES6_IhSaIhEEvEES6_ISG_SaISG_EEEElEvRT_T0_St26random_access_iterator_tag, symObjAddr: 0x10BF8, symBinAddr: 0x100012D30, symSize: 0x2C }
  - { offsetInCU: 0x6F7EF, offset: 0x6F7EF, size: 0x8, addend: 0x0, symName: __ZSt9__advanceISt17_Rb_tree_iteratorISt4pairIKNSt7__cxx1112basic_stringIcSt11char_traitsIcESaIcEEEN8nlohmann16json_abi_v3_11_310basic_jsonISt3mapSt6vectorS7_bxydSaNSA_14adl_serializerESD_IhSaIhEEvEEEElEvRT_T0_St26bidirectional_iterator_tag, symObjAddr: 0x10B6C, symBinAddr: 0x100012CA4, symSize: 0x8C }
  - { offsetInCU: 0x6F859, offset: 0x6F859, size: 0x8, addend: 0x0, symName: __ZN9__gnu_cxxeqIPN8nlohmann16json_abi_v3_11_310basic_jsonISt3mapSt6vectorNSt7__cxx1112basic_stringIcSt11char_traitsIcESaIcEEEbxydSaNS2_14adl_serializerES5_IhSaIhEEvEES5_ISF_SaISF_EEEEbRKNS_17__normal_iteratorIT_T0_EESO_, symObjAddr: 0x10B28, symBinAddr: 0x100012C60, symSize: 0x44 }
  - { offsetInCU: 0x6F8AD, offset: 0x6F8AD, size: 0x8, addend: 0x0, symName: __ZSteqRKSt17_Rb_tree_iteratorISt4pairIKNSt7__cxx1112basic_stringIcSt11char_traitsIcESaIcEEEN8nlohmann16json_abi_v3_11_310basic_jsonISt3mapSt6vectorS6_bxydSaNS9_14adl_serializerESC_IhSaIhEEvEEEESK_, symObjAddr: 0x10AF8, symBinAddr: 0x100012C30, symSize: 0x30 }
  - { offsetInCU: 0x6F8EC, offset: 0x6F8EC, size: 0x8, addend: 0x0, symName: __ZN8nlohmann16json_abi_v3_11_36detail9iter_implIKNS0_10basic_jsonISt3mapSt6vectorNSt7__cxx1112basic_stringIcSt11char_traitsIcESaIcEEEbxydSaNS0_14adl_serializerES5_IhSaIhEEvEEE7set_endEv, symObjAddr: 0x10A30, symBinAddr: 0x100012B68, symSize: 0xC8 }
  - { offsetInCU: 0x6F92A, offset: 0x6F92A, size: 0x8, addend: 0x0, symName: __ZN8nlohmann16json_abi_v3_11_36detail9iter_implIKNS0_10basic_jsonISt3mapSt6vectorNSt7__cxx1112basic_stringIcSt11char_traitsIcESaIcEEEbxydSaNS0_14adl_serializerES5_IhSaIhEEvEEE9set_beginEv, symObjAddr: 0x1094C, symBinAddr: 0x100012A84, symSize: 0xE4 }
  - { offsetInCU: 0x6FA4D, offset: 0x6FA4D, size: 0x8, addend: 0x0, symName: __ZN8nlohmann16json_abi_v3_11_36detail9iter_implIKNS0_10basic_jsonISt3mapSt6vectorNSt7__cxx1112basic_stringIcSt11char_traitsIcESaIcEEEbxydSaNS0_14adl_serializerES5_IhSaIhEEvEEEC1EPSG_, symObjAddr: 0x1084C, symBinAddr: 0x100012984, symSize: 0x100 }
  - { offsetInCU: 0x6FA37, offset: 0x6FA37, size: 0x8, addend: 0x0, symName: __ZN8nlohmann16json_abi_v3_11_36detail20primitive_iterator_tC1Ev, symObjAddr: 0x10824, symBinAddr: 0x10001295C, symSize: 0x28 }
  - { offsetInCU: 0x6FA1D, offset: 0x6FA1D, size: 0x8, addend: 0x0, symName: __ZN8nlohmann16json_abi_v3_11_36detail10type_error6createIPKNS0_10basic_jsonISt3mapSt6vectorNSt7__cxx1112basic_stringIcSt11char_traitsIcESaIcEEEbxydSaNS0_14adl_serializerES6_IhSaIhEEvEELi0EEES2_iRKSC_T_, symObjAddr: 0x106E4, symBinAddr: 0x10001281C, symSize: 0x140 }
  - { offsetInCU: 0x6FB0D, offset: 0x6FB0D, size: 0x8, addend: 0x0, symName: __ZN8nlohmann16json_abi_v3_11_36detail6concatINSt7__cxx1112basic_stringIcSt11char_traitsIcESaIcEEEJRA51_KcPS9_EEET_DpOT0_, symObjAddr: 0x10660, symBinAddr: 0x100012798, symSize: 0x84 }
  - { offsetInCU: 0x6FB6E, offset: 0x6FB6E, size: 0x8, addend: 0x0, symName: __ZNSt3mapINSt7__cxx1112basic_stringIcSt11char_traitsIcESaIcEEEN8nlohmann16json_abi_v3_11_310basic_jsonIS_St6vectorS5_bxydSaNS7_14adl_serializerES9_IhSaIhEEvEESt4lessIvESaISt4pairIKS5_SD_EEE4findERSH_, symObjAddr: 0x1063C, symBinAddr: 0x100012774, symSize: 0x24 }
  - { offsetInCU: 0x6FBC4, offset: 0x6FBC4, size: 0x8, addend: 0x0, symName: __ZNSt6vectorIiSaIiEE4backEv, symObjAddr: 0x10604, symBinAddr: 0x10001273C, symSize: 0x38 }
  - { offsetInCU: 0x6FBEE, offset: 0x6FBEE, size: 0x8, addend: 0x0, symName: __ZNSt6vectorIiSaIiEE17_M_realloc_appendIJiEEEvDpOT_, symObjAddr: 0x10448, symBinAddr: 0x100012580, symSize: 0x1BC }
  - { offsetInCU: 0x6FDB8, offset: 0x6FDB8, size: 0x8, addend: 0x0, symName: __ZZNSt6vectorIiSaIiEE17_M_realloc_appendIJiEEEvDpOT_EN6_GuardC1EPimRS0_, symObjAddr: 0x103A4, symBinAddr: 0x1000124DC, symSize: 0x44 }
  - { offsetInCU: 0x6FDF7, offset: 0x6FDF7, size: 0x8, addend: 0x0, symName: __ZZNSt6vectorIiSaIiEE17_M_realloc_appendIJiEEEvDpOT_EN6_GuardD1Ev, symObjAddr: 0x103E8, symBinAddr: 0x100012520, symSize: 0x60 }
  - { offsetInCU: 0x6FF88, offset: 0x6FF88, size: 0x8, addend: 0x0, symName: __ZNSt6chrono8durationIxSt5ratioILl1ELl1000EEEC1IxvEERKT_, symObjAddr: 0x1037C, symBinAddr: 0x1000124B4, symSize: 0x28 }
  - { offsetInCU: 0x6FF87, offset: 0x6FF87, size: 0x8, addend: 0x0, symName: __ZSt18uninitialized_copyIPSt6vectorIiSaIiEES3_ET0_T_S5_S4_, symObjAddr: 0x10348, symBinAddr: 0x100012480, symSize: 0x34 }
  - { offsetInCU: 0x70002, offset: 0x70002, size: 0x8, addend: 0x0, symName: __ZSt13__copy_move_aILb0EPSt6vectorIiSaIiEES3_ET1_T0_S5_S4_, symObjAddr: 0x102E8, symBinAddr: 0x100012420, symSize: 0x60 }
  - { offsetInCU: 0x7006A, offset: 0x7006A, size: 0x8, addend: 0x0, symName: __ZSt12__miter_baseIPSt6vectorIiSaIiEEET_S4_, symObjAddr: 0x102D4, symBinAddr: 0x10001240C, symSize: 0x14 }
  - { offsetInCU: 0x7009D, offset: 0x7009D, size: 0x8, addend: 0x0, symName: __ZSt8_DestroyIN9__gnu_cxx17__normal_iteratorIPSt6vectorIiSaIiEES2_IS4_SaIS4_EEEEEvT_S9_, symObjAddr: 0x102AC, symBinAddr: 0x1000123E4, symSize: 0x28 }
  - { offsetInCU: 0x700DF, offset: 0x700DF, size: 0x8, addend: 0x0, symName: __ZSt13__copy_move_aILb0EN9__gnu_cxx17__normal_iteratorIPKSt6vectorIiSaIiEES2_IS4_SaIS4_EEEENS1_IPS4_S8_EEET1_T0_SD_SC_, symObjAddr: 0x1024C, symBinAddr: 0x100012384, symSize: 0x60 }
  - { offsetInCU: 0x70147, offset: 0x70147, size: 0x8, addend: 0x0, symName: __ZSt12__miter_baseIN9__gnu_cxx17__normal_iteratorIPKSt6vectorIiSaIiEES2_IS4_SaIS4_EEEEET_SA_, symObjAddr: 0x10238, symBinAddr: 0x100012370, symSize: 0x14 }
  - { offsetInCU: 0x701EE, offset: 0x701EE, size: 0x8, addend: 0x0, symName: __ZN9__gnu_cxx17__normal_iteratorIPSt6vectorIiSaIiEES1_IS3_SaIS3_EEEC1ERKS4_, symObjAddr: 0x10210, symBinAddr: 0x100012348, symSize: 0x28 }
  - { offsetInCU: 0x701D1, offset: 0x701D1, size: 0x8, addend: 0x0, symName: __ZSt22__uninitialized_copy_aIN9__gnu_cxx17__normal_iteratorIPKSt6vectorIiSaIiEES2_IS4_SaIS4_EEEEPS4_S4_ET0_T_SC_SB_RSaIT1_E, symObjAddr: 0x101E0, symBinAddr: 0x100012318, symSize: 0x30 }
  - { offsetInCU: 0x70245, offset: 0x70245, size: 0x8, addend: 0x0, symName: __ZNSt12_Vector_baseISt6vectorIiSaIiEESaIS2_EE11_M_allocateEm, symObjAddr: 0x10190, symBinAddr: 0x1000122C8, symSize: 0x50 }
  - { offsetInCU: 0x7031E, offset: 0x7031E, size: 0x8, addend: 0x0, symName: __ZN9__gnu_cxx17__normal_iteratorIPKSt6vectorIiSaIiEES1_IS3_SaIS3_EEEC1ERKS5_, symObjAddr: 0x10168, symBinAddr: 0x1000122A0, symSize: 0x28 }
  - { offsetInCU: 0x70336, offset: 0x70336, size: 0x8, addend: 0x0, symName: __ZNSt6vectorIS_IiSaIiEESaIS1_EE15_M_erase_at_endEPS1_, symObjAddr: 0x100D4, symBinAddr: 0x10001220C, symSize: 0x94 }
  - { offsetInCU: 0x7044C, offset: 0x7044C, size: 0x8, addend: 0x0, symName: __ZNSt17_Rb_tree_iteratorISt4pairIKiSt6vectorIS2_IiSaIiEESaIS4_EEEEC1EPSt18_Rb_tree_node_base, symObjAddr: 0x100B0, symBinAddr: 0x1000121E8, symSize: 0x24 }
  - { offsetInCU: 0x70422, offset: 0x70422, size: 0x8, addend: 0x0, symName: __ZNSt8_Rb_treeIiSt4pairIKiSt6vectorIS2_IiSaIiEESaIS4_EEESt10_Select1stIS7_ESt4lessIiESaIS7_EE10_Auto_node9_M_insertES0_IPSt18_Rb_tree_node_baseSG_E, symObjAddr: 0x10064, symBinAddr: 0x10001219C, symSize: 0x4C }
  - { offsetInCU: 0x7046E, offset: 0x7046E, size: 0x8, addend: 0x0, symName: __ZNKSt8_Rb_treeIiSt4pairIKiSt6vectorIS2_IiSaIiEESaIS4_EEESt10_Select1stIS7_ESt4lessIiESaIS7_EE10_Auto_node6_M_keyEv, symObjAddr: 0x10044, symBinAddr: 0x10001217C, symSize: 0x20 }
  - { offsetInCU: 0x70498, offset: 0x70498, size: 0x8, addend: 0x0, symName: __ZNSt8_Rb_treeIiSt4pairIKiSt6vectorIS2_IiSaIiEESaIS4_EEESt10_Select1stIS7_ESt4lessIiESaIS7_EE29_M_get_insert_hint_unique_posESt23_Rb_tree_const_iteratorIS7_ERS1_, symObjAddr: 0xFD20, symBinAddr: 0x100011E58, symSize: 0x324 }
  - { offsetInCU: 0x705D1, offset: 0x705D1, size: 0x8, addend: 0x0, symName: __ZNSt8_Rb_treeIiSt4pairIKiSt6vectorIS2_IiSaIiEESaIS4_EEESt10_Select1stIS7_ESt4lessIiESaIS7_EE10_Auto_nodeD1Ev, symObjAddr: 0xFCDC, symBinAddr: 0x100011E14, symSize: 0x44 }
  - { offsetInCU: 0x70688, offset: 0x70688, size: 0x8, addend: 0x0, symName: __ZNSt8_Rb_treeIiSt4pairIKiSt6vectorIS2_IiSaIiEESaIS4_EEESt10_Select1stIS7_ESt4lessIiESaIS7_EE10_Auto_nodeC1IJRKSt21piecewise_construct_tSt5tupleIJRS1_EESJ_IJEEEEERSD_DpOT_, symObjAddr: 0xFC60, symBinAddr: 0x100011D98, symSize: 0x7C }
  - { offsetInCU: 0x70649, offset: 0x70649, size: 0x8, addend: 0x0, symName: __ZSt7forwardISt5tupleIJEEEOT_RNSt16remove_referenceIS2_E4typeE, symObjAddr: 0xFC4C, symBinAddr: 0x100011D84, symSize: 0x14 }
  - { offsetInCU: 0x70682, offset: 0x70682, size: 0x8, addend: 0x0, symName: __ZSt7forwardISt5tupleIJRKiEEEOT_RNSt16remove_referenceIS4_E4typeE, symObjAddr: 0xFC38, symBinAddr: 0x100011D70, symSize: 0x14 }
  - { offsetInCU: 0x706BB, offset: 0x706BB, size: 0x8, addend: 0x0, symName: __ZSt7forwardIRKSt21piecewise_construct_tEOT_RNSt16remove_referenceIS3_E4typeE, symObjAddr: 0xFC24, symBinAddr: 0x100011D5C, symSize: 0x14 }
  - { offsetInCU: 0x70739, offset: 0x70739, size: 0x8, addend: 0x0, symName: __ZNSt11_Tuple_implILm0EJRKiEEC2ES1_, symObjAddr: 0xFBFC, symBinAddr: 0x100011D34, symSize: 0x28 }
  - { offsetInCU: 0x70748, offset: 0x70748, size: 0x8, addend: 0x0, symName: __ZNSt13_Rb_tree_nodeISt4pairIKiSt6vectorIS2_IiSaIiEESaIS4_EEEE9_M_valptrEv, symObjAddr: 0xFBDC, symBinAddr: 0x100011D14, symSize: 0x20 }
  - { offsetInCU: 0x70772, offset: 0x70772, size: 0x8, addend: 0x0, symName: __ZNKSt8_Rb_treeIiSt4pairIKiSt6vectorIS2_IiSaIiEESaIS4_EEESt10_Select1stIS7_ESt4lessIiESaIS7_EE8key_compEv, symObjAddr: 0xFBC4, symBinAddr: 0x100011CFC, symSize: 0x18 }
  - { offsetInCU: 0x7079C, offset: 0x7079C, size: 0x8, addend: 0x0, symName: __ZNSt8_Rb_treeIiSt4pairIKiSt6vectorIS2_IiSaIiEESaIS4_EEESt10_Select1stIS7_ESt4lessIiESaIS7_EE3endEv, symObjAddr: 0xFB9C, symBinAddr: 0x100011CD4, symSize: 0x28 }
  - { offsetInCU: 0x707C6, offset: 0x707C6, size: 0x8, addend: 0x0, symName: __ZNSt8_Rb_treeIiSt4pairIKiSt6vectorIS2_IiSaIiEESaIS4_EEESt10_Select1stIS7_ESt4lessIiESaIS7_EE11lower_boundERS1_, symObjAddr: 0xFB54, symBinAddr: 0x100011C8C, symSize: 0x48 }
  - { offsetInCU: 0x707FD, offset: 0x707FD, size: 0x8, addend: 0x0, symName: __ZSt8_DestroyIPSt6vectorIiSaIiEEEvT_S4_, symObjAddr: 0xFB2C, symBinAddr: 0x100011C64, symSize: 0x28 }
  - { offsetInCU: 0x7083F, offset: 0x7083F, size: 0x8, addend: 0x0, symName: __ZSt24__uninitialized_fill_n_aIPSt6vectorIiSaIiEEmS2_S2_ET_S4_T0_RKT1_RSaIT2_E, symObjAddr: 0xFAFC, symBinAddr: 0x100011C34, symSize: 0x30 }
  - { offsetInCU: 0x708BC, offset: 0x708BC, size: 0x8, addend: 0x0, symName: __ZNSt12_Vector_baseISt6vectorIiSaIiEESaIS2_EE17_M_create_storageEm, symObjAddr: 0xFA90, symBinAddr: 0x100011BC8, symSize: 0x6C }
  - { offsetInCU: 0x7095E, offset: 0x7095E, size: 0x8, addend: 0x0, symName: __ZNSt12_Vector_baseISt6vectorIiSaIiEESaIS2_EE12_Vector_implC1ERKS3_, symObjAddr: 0xFA44, symBinAddr: 0x100011B7C, symSize: 0x4C }
  - { offsetInCU: 0x709C4, offset: 0x709C4, size: 0x8, addend: 0x0, symName: __ZNSt6vectorIS_IiSaIiEESaIS1_EE11_S_max_sizeERKS2_, symObjAddr: 0xF9E8, symBinAddr: 0x100011B20, symSize: 0x5C }
  - { offsetInCU: 0x70A7B, offset: 0x70A7B, size: 0x8, addend: 0x0, symName: __ZSt8_DestroyIPiEvT_S1_, symObjAddr: 0xF9C0, symBinAddr: 0x100011AF8, symSize: 0x28 }
  - { offsetInCU: 0x70ABD, offset: 0x70ABD, size: 0x8, addend: 0x0, symName: __ZSt24__uninitialized_fill_n_aIPimiiET_S1_T0_RKT1_RSaIT2_E, symObjAddr: 0xF990, symBinAddr: 0x100011AC8, symSize: 0x30 }
  - { offsetInCU: 0x70B3A, offset: 0x70B3A, size: 0x8, addend: 0x0, symName: __ZNSt12_Vector_baseIiSaIiEE17_M_create_storageEm, symObjAddr: 0xF930, symBinAddr: 0x100011A68, symSize: 0x60 }
  - { offsetInCU: 0x70B71, offset: 0x70B71, size: 0x8, addend: 0x0, symName: __ZNSt6vectorIiSaIiEE11_S_max_sizeERKS0_, symObjAddr: 0xF8DC, symBinAddr: 0x100011A14, symSize: 0x54 }
  - { offsetInCU: 0x70C2C, offset: 0x70C2C, size: 0x8, addend: 0x0, symName: __ZNKSt8_Rb_treeIiSt4pairIKiSt6vectorIS2_IiSaIiEESaIS4_EEESt10_Select1stIS7_ESt4lessIiESaIS7_EE9_M_mbeginEv, symObjAddr: 0xF8C4, symBinAddr: 0x1000119FC, symSize: 0x18 }
  - { offsetInCU: 0x70C56, offset: 0x70C56, size: 0x8, addend: 0x0, symName: __ZNSt8_Rb_treeIiSt4pairIKiSt6vectorIS2_IiSaIiEESaIS4_EEESt10_Select1stIS7_ESt4lessIiESaIS7_EE12_M_drop_nodeEPSt13_Rb_tree_nodeIS7_E, symObjAddr: 0xF890, symBinAddr: 0x1000119C8, symSize: 0x34 }
  - { offsetInCU: 0x70C8D, offset: 0x70C8D, size: 0x8, addend: 0x0, symName: __ZNSt8_Rb_treeIiSt4pairIKiSt6vectorIS2_IiSaIiEESaIS4_EEESt10_Select1stIS7_ESt4lessIiESaIS7_EE7_S_leftEPSt18_Rb_tree_node_base, symObjAddr: 0xF878, symBinAddr: 0x1000119B0, symSize: 0x18 }
  - { offsetInCU: 0x70CB7, offset: 0x70CB7, size: 0x8, addend: 0x0, symName: __ZNSt8_Rb_treeIiSt4pairIKiSt6vectorIS2_IiSaIiEESaIS4_EEESt10_Select1stIS7_ESt4lessIiESaIS7_EE8_S_rightEPSt18_Rb_tree_node_base, symObjAddr: 0xF860, symBinAddr: 0x100011998, symSize: 0x18 }
  - { offsetInCU: 0x70CF7, offset: 0x70CF7, size: 0x8, addend: 0x0, symName: __ZN8nlohmann16json_abi_v3_11_310basic_jsonISt3mapSt6vectorNSt7__cxx1112basic_stringIcSt11char_traitsIcESaIcEEEbxydSaNS0_14adl_serializerES3_IhSaIhEEvE6createIS3_ISD_SaISD_EEJPKNS0_6detail8json_refISD_EESL_EEEPT_DpOT0_, symObjAddr: 0xF65C, symBinAddr: 0x100011794, symSize: 0x204 }
  - { offsetInCU: 0x70EE1, offset: 0x70EE1, size: 0x8, addend: 0x0, symName: __ZZN8nlohmann16json_abi_v3_11_310basic_jsonISt3mapSt6vectorNSt7__cxx1112basic_stringIcSt11char_traitsIcESaIcEEEbxydSaNS0_14adl_serializerES3_IhSaIhEEvE6createIS3_ISD_SaISD_EEJPKNS0_6detail8json_refISD_EESL_EEEPT_DpOT0_ENKUlPSG_E_clESR_, symObjAddr: 0xF610, symBinAddr: 0x100011748, symSize: 0x4C }
  - { offsetInCU: 0x71038, offset: 0x71038, size: 0x8, addend: 0x0, symName: __ZNSt3mapINSt7__cxx1112basic_stringIcSt11char_traitsIcESaIcEEEN8nlohmann16json_abi_v3_11_310basic_jsonIS_St6vectorS5_bxydSaNS7_14adl_serializerES9_IhSaIhEEvEESt4lessIvESaISt4pairIKS5_SD_EEE7emplaceIJS5_SD_EEESG_ISt17_Rb_tree_iteratorISI_EbEDpOT_, symObjAddr: 0xF4C8, symBinAddr: 0x100011600, symSize: 0x148 }
  - { offsetInCU: 0x710FE, offset: 0x710FE, size: 0x8, addend: 0x0, symName: __ZNSt10__pair_getILm1EE10__move_getIRNSt7__cxx1112basic_stringIcSt11char_traitsIcESaIcEEERN8nlohmann16json_abi_v3_11_310basic_jsonISt3mapSt6vectorS7_bxydSaNSA_14adl_serializerESD_IhSaIhEEvEEEEOT0_OSt4pairIT_SJ_E, symObjAddr: 0xF4A8, symBinAddr: 0x1000115E0, symSize: 0x20 }
  - { offsetInCU: 0x7113A, offset: 0x7113A, size: 0x8, addend: 0x0, symName: __ZSt3getILm1ERNSt7__cxx1112basic_stringIcSt11char_traitsIcESaIcEEERN8nlohmann16json_abi_v3_11_310basic_jsonISt3mapSt6vectorS5_bxydSaNS8_14adl_serializerESB_IhSaIhEEvEEEONSt13tuple_elementIXT_ESt4pairIT0_T1_EE4typeEOSL_, symObjAddr: 0xF488, symBinAddr: 0x1000115C0, symSize: 0x20 }
  - { offsetInCU: 0x71180, offset: 0x71180, size: 0x8, addend: 0x0, symName: __ZNSt10__pair_getILm0EE10__move_getIRNSt7__cxx1112basic_stringIcSt11char_traitsIcESaIcEEERN8nlohmann16json_abi_v3_11_310basic_jsonISt3mapSt6vectorS7_bxydSaNSA_14adl_serializerESD_IhSaIhEEvEEEEOT_OSt4pairISJ_T0_E, symObjAddr: 0xF468, symBinAddr: 0x1000115A0, symSize: 0x20 }
  - { offsetInCU: 0x711C3, offset: 0x711C3, size: 0x8, addend: 0x0, symName: __ZSt4moveIRSt4pairIRNSt7__cxx1112basic_stringIcSt11char_traitsIcESaIcEEERN8nlohmann16json_abi_v3_11_310basic_jsonISt3mapSt6vectorS6_bxydSaNS9_14adl_serializerESC_IhSaIhEEvEEEEONSt16remove_referenceIT_E4typeEOSL_, symObjAddr: 0xF454, symBinAddr: 0x10001158C, symSize: 0x14 }
  - { offsetInCU: 0x711F5, offset: 0x711F5, size: 0x8, addend: 0x0, symName: __ZSt3getILm0ERNSt7__cxx1112basic_stringIcSt11char_traitsIcESaIcEEERN8nlohmann16json_abi_v3_11_310basic_jsonISt3mapSt6vectorS5_bxydSaNS8_14adl_serializerESB_IhSaIhEEvEEEONSt13tuple_elementIXT_ESt4pairIT0_T1_EE4typeEOSL_, symObjAddr: 0xF434, symBinAddr: 0x10001156C, symSize: 0x20 }
  - { offsetInCU: 0x7133F, offset: 0x7133F, size: 0x8, addend: 0x0, symName: __ZNSt4pairIRNSt7__cxx1112basic_stringIcSt11char_traitsIcESaIcEEERN8nlohmann16json_abi_v3_11_310basic_jsonISt3mapSt6vectorS5_bxydSaNS8_14adl_serializerESB_IhSaIhEEvEEEC1IS6_SG_Lb1EEES6_SG_, symObjAddr: 0xF400, symBinAddr: 0x100011538, symSize: 0x34 }
  - { offsetInCU: 0x712D1, offset: 0x712D1, size: 0x8, addend: 0x0, symName: __ZNSt6vectorIN8nlohmann16json_abi_v3_11_310basic_jsonISt3mapS_NSt7__cxx1112basic_stringIcSt11char_traitsIcESaIcEEEbxydSaNS1_14adl_serializerES_IhSaIhEEvEESaISD_EEixEm, symObjAddr: 0xF3D8, symBinAddr: 0x100011510, symSize: 0x28 }
  - { offsetInCU: 0x7130C, offset: 0x7130C, size: 0x8, addend: 0x0, symName: __ZNK8nlohmann16json_abi_v3_11_36detail8json_refINS0_10basic_jsonISt3mapSt6vectorNSt7__cxx1112basic_stringIcSt11char_traitsIcESaIcEEEbxydSaNS0_14adl_serializerES5_IhSaIhEEvEEE15moved_or_copiedEv, symObjAddr: 0xF378, symBinAddr: 0x1000114B0, symSize: 0x60 }
  - { offsetInCU: 0x71332, offset: 0x71332, size: 0x8, addend: 0x0, symName: __ZN8nlohmann16json_abi_v3_11_36detail10type_error6createIDnLi0EEES2_iRKNSt7__cxx1112basic_stringIcSt11char_traitsIcESaIcEEET_, symObjAddr: 0xF238, symBinAddr: 0x100011370, symSize: 0x140 }
  - { offsetInCU: 0x71422, offset: 0x71422, size: 0x8, addend: 0x0, symName: __ZSt6all_ofIPKN8nlohmann16json_abi_v3_11_36detail8json_refINS1_10basic_jsonISt3mapSt6vectorNSt7__cxx1112basic_stringIcSt11char_traitsIcESaIcEEEbxydSaNS1_14adl_serializerES6_IhSaIhEEvEEEEZNSG_C4ESt16initializer_listISH_EbNS2_7value_tEEUlRSI_E_EbT_SP_T0_, symObjAddr: 0xF1F8, symBinAddr: 0x100011330, symSize: 0x40 }
  - { offsetInCU: 0x71484, offset: 0x71484, size: 0x8, addend: 0x0, symName: __ZNK8nlohmann16json_abi_v3_11_310basic_jsonISt3mapSt6vectorNSt7__cxx1112basic_stringIcSt11char_traitsIcESaIcEEEbxydSaNS0_14adl_serializerES3_IhSaIhEEvE9is_stringEv, symObjAddr: 0xF1D4, symBinAddr: 0x10001130C, symSize: 0x24 }
  - { offsetInCU: 0x714AE, offset: 0x714AE, size: 0x8, addend: 0x0, symName: __ZNK8nlohmann16json_abi_v3_11_310basic_jsonISt3mapSt6vectorNSt7__cxx1112basic_stringIcSt11char_traitsIcESaIcEEEbxydSaNS0_14adl_serializerES3_IhSaIhEEvEixEm, symObjAddr: 0xF0EC, symBinAddr: 0x100011224, symSize: 0xE8 }
  - { offsetInCU: 0x714E9, offset: 0x714E9, size: 0x8, addend: 0x0, symName: __ZNK8nlohmann16json_abi_v3_11_36detail8json_refINS0_10basic_jsonISt3mapSt6vectorNSt7__cxx1112basic_stringIcSt11char_traitsIcESaIcEEEbxydSaNS0_14adl_serializerES5_IhSaIhEEvEEEdeEv, symObjAddr: 0xF0BC, symBinAddr: 0x1000111F4, symSize: 0x30 }
  - { offsetInCU: 0x71513, offset: 0x71513, size: 0x8, addend: 0x0, symName: __ZNK8nlohmann16json_abi_v3_11_310basic_jsonISt3mapSt6vectorNSt7__cxx1112basic_stringIcSt11char_traitsIcESaIcEEEbxydSaNS0_14adl_serializerES3_IhSaIhEEvE4sizeEv, symObjAddr: 0xF050, symBinAddr: 0x100011188, symSize: 0x6C }
  - { offsetInCU: 0x7153D, offset: 0x7153D, size: 0x8, addend: 0x0, symName: __ZNK8nlohmann16json_abi_v3_11_36detail8json_refINS0_10basic_jsonISt3mapSt6vectorNSt7__cxx1112basic_stringIcSt11char_traitsIcESaIcEEEbxydSaNS0_14adl_serializerES5_IhSaIhEEvEEEptEv, symObjAddr: 0xF034, symBinAddr: 0x10001116C, symSize: 0x1C }
  - { offsetInCU: 0x71567, offset: 0x71567, size: 0x8, addend: 0x0, symName: __ZNKSt16initializer_listIN8nlohmann16json_abi_v3_11_36detail8json_refINS1_10basic_jsonISt3mapSt6vectorNSt7__cxx1112basic_stringIcSt11char_traitsIcESaIcEEEbxydSaNS1_14adl_serializerES6_IhSaIhEEvEEEEE3endEv, symObjAddr: 0xEFEC, symBinAddr: 0x100011124, symSize: 0x48 }
  - { offsetInCU: 0x71591, offset: 0x71591, size: 0x8, addend: 0x0, symName: __ZNKSt16initializer_listIN8nlohmann16json_abi_v3_11_36detail8json_refINS1_10basic_jsonISt3mapSt6vectorNSt7__cxx1112basic_stringIcSt11char_traitsIcESaIcEEEbxydSaNS1_14adl_serializerES6_IhSaIhEEvEEEEE5beginEv, symObjAddr: 0xEFD4, symBinAddr: 0x10001110C, symSize: 0x18 }
  - { offsetInCU: 0x715B7, offset: 0x715B7, size: 0x8, addend: 0x0, symName: __ZSt22__uninitialized_copy_aIPKiPiiET0_T_S4_S3_RSaIT1_E, symObjAddr: 0xEFA4, symBinAddr: 0x1000110DC, symSize: 0x30 }
  - { offsetInCU: 0x7162B, offset: 0x7162B, size: 0x8, addend: 0x0, symName: __ZNSt12_Vector_baseIiSaIiEE11_M_allocateEm, symObjAddr: 0xEF54, symBinAddr: 0x10001108C, symSize: 0x50 }
  - { offsetInCU: 0x716D9, offset: 0x716D9, size: 0x8, addend: 0x0, symName: __ZNKSt16initializer_listIiE4sizeEv, symObjAddr: 0xEF3C, symBinAddr: 0x100011074, symSize: 0x18 }
  - { offsetInCU: 0x71758, offset: 0x71758, size: 0x8, addend: 0x0, symName: __ZNSt12_Vector_baseIiSaIiEE12_Vector_implC1ERKS0_, symObjAddr: 0xEEF0, symBinAddr: 0x100011028, symSize: 0x4C }
  - { offsetInCU: 0x717AD, offset: 0x717AD, size: 0x8, addend: 0x0, symName: __ZSt11__bit_widthImEiT_, symObjAddr: 0xEEC0, symBinAddr: 0x100010FF8, symSize: 0x30 }
  - { offsetInCU: 0x7183D, offset: 0x7183D, size: 0x8, addend: 0x0, symName: __ZNSt16_Sp_counted_baseILN9__gnu_cxx12_Lock_policyE2EE15_M_add_ref_copyEv, symObjAddr: 0xEE28, symBinAddr: 0x100010F60, symSize: 0x98 }
  - { offsetInCU: 0x71900, offset: 0x71900, size: 0x8, addend: 0x0, symName: __ZN8nlohmann16json_abi_v3_11_36detailL8unescapeINSt7__cxx1112basic_stringIcSt11char_traitsIcESaIcEEEEEvRT_, symObjAddr: 0xEC50, symBinAddr: 0x100010D88, symSize: 0x1D8 }
  - { offsetInCU: 0x71B70, offset: 0x71B70, size: 0x8, addend: 0x0, symName: __ZN8nlohmann16json_abi_v3_11_310basic_jsonISt3mapSt6vectorNSt7__cxx1112basic_stringIcSt11char_traitsIcESaIcEEEbxydSaNS0_14adl_serializerES3_IhSaIhEEvE10json_value7destroyENS0_6detail7value_tE, symObjAddr: 0xE758, symBinAddr: 0x100010890, symSize: 0x4F8 }
  - { offsetInCU: 0x72192, offset: 0x72192, size: 0x8, addend: 0x0, symName: __ZNSt6vectorIN8nlohmann16json_abi_v3_11_310basic_jsonISt3mapS_NSt7__cxx1112basic_stringIcSt11char_traitsIcESaIcEEEbxydSaNS1_14adl_serializerES_IhSaIhEEvEESaISD_EEC1Ev, symObjAddr: 0xE738, symBinAddr: 0x100010870, symSize: 0x20 }
  - { offsetInCU: 0x721E1, offset: 0x721E1, size: 0x8, addend: 0x0, symName: __ZNSt12_Vector_baseIN8nlohmann16json_abi_v3_11_310basic_jsonISt3mapSt6vectorNSt7__cxx1112basic_stringIcSt11char_traitsIcESaIcEEEbxydSaNS1_14adl_serializerES4_IhSaIhEEvEESaISE_EEC2Ev, symObjAddr: 0xE718, symBinAddr: 0x100010850, symSize: 0x20 }
  - { offsetInCU: 0x7223C, offset: 0x7223C, size: 0x8, addend: 0x0, symName: __ZNSt12_Vector_baseIN8nlohmann16json_abi_v3_11_310basic_jsonISt3mapSt6vectorNSt7__cxx1112basic_stringIcSt11char_traitsIcESaIcEEEbxydSaNS1_14adl_serializerES4_IhSaIhEEvEESaISE_EE12_Vector_implD1Ev, symObjAddr: 0xE6EC, symBinAddr: 0x100010824, symSize: 0x2C }
  - { offsetInCU: 0x721C8, offset: 0x721C8, size: 0x8, addend: 0x0, symName: __ZSt4moveIRN8nlohmann16json_abi_v3_11_310basic_jsonISt3mapSt6vectorNSt7__cxx1112basic_stringIcSt11char_traitsIcESaIcEEEbxydSaNS1_14adl_serializerES4_IhSaIhEEvE4dataEEONSt16remove_referenceIT_E4typeEOSI_, symObjAddr: 0xE6D8, symBinAddr: 0x100010810, symSize: 0x14 }
  - { offsetInCU: 0x72201, offset: 0x72201, size: 0x8, addend: 0x0, symName: __ZSt7forwardIN8nlohmann16json_abi_v3_11_36detail17json_default_baseEEOT_RNSt16remove_referenceIS4_E4typeE, symObjAddr: 0xE6C4, symBinAddr: 0x1000107FC, symSize: 0x14 }
  - { offsetInCU: 0x72237, offset: 0x72237, size: 0x8, addend: 0x0, symName: __ZN8nlohmann16json_abi_v3_11_36detail19json_sax_dom_parserINS0_10basic_jsonISt3mapSt6vectorNSt7__cxx1112basic_stringIcSt11char_traitsIcESaIcEEEbxydSaNS0_14adl_serializerES5_IhSaIhEEvEEE11parse_errorINS1_11parse_errorEEEbmRKSB_RKT_, symObjAddr: 0xE648, symBinAddr: 0x100010780, symSize: 0x7C }
  - { offsetInCU: 0x72381, offset: 0x72381, size: 0x8, addend: 0x0, symName: __ZN8nlohmann16json_abi_v3_11_36detail19json_sax_dom_parserINS0_10basic_jsonISt3mapSt6vectorNSt7__cxx1112basic_stringIcSt11char_traitsIcESaIcEEEbxydSaNS0_14adl_serializerES5_IhSaIhEEvEEEC1ERSF_b, symObjAddr: 0xE5E0, symBinAddr: 0x100010718, symSize: 0x68 }
  - { offsetInCU: 0x722FB, offset: 0x722FB, size: 0x8, addend: 0x0, symName: __ZN8nlohmann16json_abi_v3_11_36detail28json_sax_dom_callback_parserINS0_10basic_jsonISt3mapSt6vectorNSt7__cxx1112basic_stringIcSt11char_traitsIcESaIcEEEbxydSaNS0_14adl_serializerES5_IhSaIhEEvEEE11parse_errorINS1_11parse_errorEEEbmRKSB_RKT_, symObjAddr: 0xE564, symBinAddr: 0x10001069C, symSize: 0x7C }
  - { offsetInCU: 0x723AB, offset: 0x723AB, size: 0x8, addend: 0x0, symName: __ZN8nlohmann16json_abi_v3_11_36detail11parse_errorC1ERKS2_, symObjAddr: 0xE518, symBinAddr: 0x100010650, symSize: 0x4C }
  - { offsetInCU: 0x723FA, offset: 0x723FA, size: 0x8, addend: 0x0, symName: __ZN8nlohmann16json_abi_v3_11_36detail9exceptionC2ERKS2_, symObjAddr: 0xE4B0, symBinAddr: 0x1000105E8, symSize: 0x68 }
  - { offsetInCU: 0x7242E, offset: 0x7242E, size: 0x8, addend: 0x0, symName: __ZNSt9exceptionC2ERKS_, symObjAddr: 0xE484, symBinAddr: 0x1000105BC, symSize: 0x2C }
  - { offsetInCU: 0x72446, offset: 0x72446, size: 0x8, addend: 0x0, symName: __ZN8nlohmann16json_abi_v3_11_36detail11parse_error6createIDnLi0EEES2_iRKNS1_10position_tERKNSt7__cxx1112basic_stringIcSt11char_traitsIcESaIcEEET_, symObjAddr: 0xE2E4, symBinAddr: 0x10001041C, symSize: 0x1A0 }
  - { offsetInCU: 0x725D4, offset: 0x725D4, size: 0x8, addend: 0x0, symName: __ZN8nlohmann16json_abi_v3_11_36detail12out_of_rangeD0Ev, symObjAddr: 0xE2BC, symBinAddr: 0x1000103F4, symSize: 0x28 }
  - { offsetInCU: 0x725FE, offset: 0x725FE, size: 0x8, addend: 0x0, symName: __ZN8nlohmann16json_abi_v3_11_36detail12out_of_rangeD1Ev, symObjAddr: 0xE288, symBinAddr: 0x1000103C0, symSize: 0x34 }
  - { offsetInCU: 0x72629, offset: 0x72629, size: 0x8, addend: 0x0, symName: __ZNSt6vectorIbSaIbEED1Ev, symObjAddr: 0xE268, symBinAddr: 0x1000103A0, symSize: 0x20 }
  - { offsetInCU: 0x72702, offset: 0x72702, size: 0x8, addend: 0x0, symName: __ZNSt6vectorIPN8nlohmann16json_abi_v3_11_310basic_jsonISt3mapS_NSt7__cxx1112basic_stringIcSt11char_traitsIcESaIcEEEbxydSaNS1_14adl_serializerES_IhSaIhEEvEESaISE_EED1Ev, symObjAddr: 0xE20C, symBinAddr: 0x100010344, symSize: 0x5C }
  - { offsetInCU: 0x727ED, offset: 0x727ED, size: 0x8, addend: 0x0, symName: __ZN8nlohmann16json_abi_v3_11_36detail28json_sax_dom_callback_parserINS0_10basic_jsonISt3mapSt6vectorNSt7__cxx1112basic_stringIcSt11char_traitsIcESaIcEEEbxydSaNS0_14adl_serializerES5_IhSaIhEEvEEEC1ERSF_St8functionIFbiNS1_13parse_event_tESH_EEb, symObjAddr: 0xE0D0, symBinAddr: 0x100010208, symSize: 0x13C }
  - { offsetInCU: 0x7276F, offset: 0x7276F, size: 0x8, addend: 0x0, symName: __ZNSt6vectorIbSaIbEEC1Ev, symObjAddr: 0xE0B0, symBinAddr: 0x1000101E8, symSize: 0x20 }
  - { offsetInCU: 0x727B6, offset: 0x727B6, size: 0x8, addend: 0x0, symName: __ZNSt13_Bvector_baseISaIbEEC2Ev, symObjAddr: 0xE090, symBinAddr: 0x1000101C8, symSize: 0x20 }
  - { offsetInCU: 0x72813, offset: 0x72813, size: 0x8, addend: 0x0, symName: __ZNSt13_Bvector_baseISaIbEE13_Bvector_implD1Ev, symObjAddr: 0xE064, symBinAddr: 0x10001019C, symSize: 0x2C }
  - { offsetInCU: 0x728F0, offset: 0x728F0, size: 0x8, addend: 0x0, symName: __ZNSt6vectorIPN8nlohmann16json_abi_v3_11_310basic_jsonISt3mapS_NSt7__cxx1112basic_stringIcSt11char_traitsIcESaIcEEEbxydSaNS1_14adl_serializerES_IhSaIhEEvEESaISE_EEC1Ev, symObjAddr: 0xE044, symBinAddr: 0x10001017C, symSize: 0x20 }
  - { offsetInCU: 0x7293F, offset: 0x7293F, size: 0x8, addend: 0x0, symName: __ZNSt12_Vector_baseIPN8nlohmann16json_abi_v3_11_310basic_jsonISt3mapSt6vectorNSt7__cxx1112basic_stringIcSt11char_traitsIcESaIcEEEbxydSaNS1_14adl_serializerES4_IhSaIhEEvEESaISF_EEC2Ev, symObjAddr: 0xE024, symBinAddr: 0x10001015C, symSize: 0x20 }
  - { offsetInCU: 0x7299A, offset: 0x7299A, size: 0x8, addend: 0x0, symName: __ZNSt12_Vector_baseIPN8nlohmann16json_abi_v3_11_310basic_jsonISt3mapSt6vectorNSt7__cxx1112basic_stringIcSt11char_traitsIcESaIcEEEbxydSaNS1_14adl_serializerES4_IhSaIhEEvEESaISF_EE12_Vector_implD1Ev, symObjAddr: 0xDFF8, symBinAddr: 0x100010130, symSize: 0x2C }
  - { offsetInCU: 0x7295D, offset: 0x7295D, size: 0x8, addend: 0x0, symName: __ZNSt12_Vector_baseIcSaIcEE19_M_get_Tp_allocatorEv, symObjAddr: 0xDFE4, symBinAddr: 0x10001011C, symSize: 0x14 }
  - { offsetInCU: 0x729C7, offset: 0x729C7, size: 0x8, addend: 0x0, symName: __ZNSt12_Vector_baseIcSaIcEED2Ev, symObjAddr: 0xDF98, symBinAddr: 0x1000100D0, symSize: 0x4C }
  - { offsetInCU: 0x72A22, offset: 0x72A22, size: 0x8, addend: 0x0, symName: __ZNSt12_Vector_baseIcSaIcEE12_Vector_implD1Ev, symObjAddr: 0xDF6C, symBinAddr: 0x1000100A4, symSize: 0x2C }
  - { offsetInCU: 0x72B32, offset: 0x72B32, size: 0x8, addend: 0x0, symName: __ZNSt8functionIFbiN8nlohmann16json_abi_v3_11_36detail13parse_event_tERNS1_10basic_jsonISt3mapSt6vectorNSt7__cxx1112basic_stringIcSt11char_traitsIcESaIcEEEbxydSaNS1_14adl_serializerES6_IhSaIhEEvEEEEC1EOSJ_, symObjAddr: 0xDEE8, symBinAddr: 0x100010020, symSize: 0x84 }
  - { offsetInCU: 0x72A9B, offset: 0x72A9B, size: 0x8, addend: 0x0, symName: __ZSt4moveIRSt8functionIFbiN8nlohmann16json_abi_v3_11_36detail13parse_event_tERNS2_10basic_jsonISt3mapSt6vectorNSt7__cxx1112basic_stringIcSt11char_traitsIcESaIcEEEbxydSaNS2_14adl_serializerES7_IhSaIhEEvEEEEEONSt16remove_referenceIT_E4typeEOSN_, symObjAddr: 0xDED4, symBinAddr: 0x10001000C, symSize: 0x14 }
  - { offsetInCU: 0x72AD1, offset: 0x72AD1, size: 0x8, addend: 0x0, symName: __ZNKSt8functionIFbiN8nlohmann16json_abi_v3_11_36detail13parse_event_tERNS1_10basic_jsonISt3mapSt6vectorNSt7__cxx1112basic_stringIcSt11char_traitsIcESaIcEEEbxydSaNS1_14adl_serializerES6_IhSaIhEEvEEEEcvbEv, symObjAddr: 0xDEB0, symBinAddr: 0x10000FFE8, symSize: 0x24 }
  - { offsetInCU: 0x72B29, offset: 0x72B29, size: 0x8, addend: 0x0, symName: __ZNSt6chrono20__duration_cast_implINS_8durationIxSt5ratioILl1ELl1000000000EEEES2_ILl1000000000ELl1EExLb0ELb1EE6__castIxS2_ILl1ELl1EEEES4_RKNS1_IT_T0_EE, symObjAddr: 0xDE70, symBinAddr: 0x10000FFA8, symSize: 0x40 }
  - { offsetInCU: 0x72B70, offset: 0x72B70, size: 0x8, addend: 0x0, symName: __ZN8nlohmann16json_abi_v3_11_36detail11concat_intoINSt7__cxx1112basic_stringIcSt11char_traitsIcESaIcEEES8_JRA10_KcS8_ELi0EEEvRT_OT0_DpOT1_, symObjAddr: 0xDE0C, symBinAddr: 0x10000FF44, symSize: 0x64 }
  - { offsetInCU: 0x72BF4, offset: 0x72BF4, size: 0x8, addend: 0x0, symName: __ZN8nlohmann16json_abi_v3_11_36detail13concat_lengthINSt7__cxx1112basic_stringIcSt11char_traitsIcESaIcEEEJA10_cS8_EEEmRKT_DpRKT0_, symObjAddr: 0xDDCC, symBinAddr: 0x10000FF04, symSize: 0x40 }
  - { offsetInCU: 0x72C50, offset: 0x72C50, size: 0x8, addend: 0x0, symName: __ZN8nlohmann16json_abi_v3_11_36detail11concat_intoINSt7__cxx1112basic_stringIcSt11char_traitsIcESaIcEEERKS8_JcS8_RA3_KcELi0EEEvRT_OT0_DpOT1_, symObjAddr: 0xDD54, symBinAddr: 0x10000FE8C, symSize: 0x78 }
  - { offsetInCU: 0x72CD4, offset: 0x72CD4, size: 0x8, addend: 0x0, symName: __ZN8nlohmann16json_abi_v3_11_36detail13concat_lengthINSt7__cxx1112basic_stringIcSt11char_traitsIcESaIcEEEJcS8_A3_cEEEmRKT_DpRKT0_, symObjAddr: 0xDD08, symBinAddr: 0x10000FE40, symSize: 0x4C }
  - { offsetInCU: 0x72D6D, offset: 0x72D6D, size: 0x8, addend: 0x0, symName: __ZN8nlohmann16json_abi_v3_11_36detail10serializerINS0_10basic_jsonISt3mapSt6vectorNSt7__cxx1112basic_stringIcSt11char_traitsIcESaIcEEEbxydSaNS0_14adl_serializerES5_IhSaIhEEvEEE4dumpERKSF_bbjj, symObjAddr: 0xCB78, symBinAddr: 0x10000ECB0, symSize: 0x1190 }
  - { offsetInCU: 0x731CB, offset: 0x731CB, size: 0x8, addend: 0x0, symName: __ZN8nlohmann16json_abi_v3_11_36detail10serializerINS0_10basic_jsonISt3mapSt6vectorNSt7__cxx1112basic_stringIcSt11char_traitsIcESaIcEEEbxydSaNS0_14adl_serializerES5_IhSaIhEEvEEEC1ESt10shared_ptrINS1_23output_adapter_protocolIcEEEcNS1_15error_handler_tE, symObjAddr: 0xC9E0, symBinAddr: 0x10000EB18, symSize: 0x198 }
  - { offsetInCU: 0x7319B, offset: 0x7319B, size: 0x8, addend: 0x0, symName: __ZN8nlohmann16json_abi_v3_11_36detail14output_adapterIcNSt7__cxx1112basic_stringIcSt11char_traitsIcESaIcEEEEcvSt10shared_ptrINS1_23output_adapter_protocolIcEEEEv, symObjAddr: 0xC9AC, symBinAddr: 0x10000EAE4, symSize: 0x34 }
  - { offsetInCU: 0x7323C, offset: 0x7323C, size: 0x8, addend: 0x0, symName: __ZNSt10shared_ptrIN8nlohmann16json_abi_v3_11_36detail23output_adapter_protocolIcEEEC1ERKS5_, symObjAddr: 0xC984, symBinAddr: 0x10000EABC, symSize: 0x28 }
  - { offsetInCU: 0x732A9, offset: 0x732A9, size: 0x8, addend: 0x0, symName: __ZNSt12__shared_ptrIN8nlohmann16json_abi_v3_11_36detail23output_adapter_protocolIcEELN9__gnu_cxx12_Lock_policyE2EEC2ERKS7_, symObjAddr: 0xC93C, symBinAddr: 0x10000EA74, symSize: 0x48 }
  - { offsetInCU: 0x732F9, offset: 0x732F9, size: 0x8, addend: 0x0, symName: __ZN8nlohmann16json_abi_v3_11_36detail14output_adapterIcNSt7__cxx1112basic_stringIcSt11char_traitsIcESaIcEEEEC1ERS8_, symObjAddr: 0xC8EC, symBinAddr: 0x10000EA24, symSize: 0x50 }
  - { offsetInCU: 0x73365, offset: 0x73365, size: 0x8, addend: 0x0, symName: __ZNSt10shared_ptrIN8nlohmann16json_abi_v3_11_36detail21output_string_adapterIcNSt7__cxx1112basic_stringIcSt11char_traitsIcESaIcEEEEEED1Ev, symObjAddr: 0xC8CC, symBinAddr: 0x10000EA04, symSize: 0x20 }
  - { offsetInCU: 0x733CE, offset: 0x733CE, size: 0x8, addend: 0x0, symName: __ZNSt12__shared_ptrIN8nlohmann16json_abi_v3_11_36detail21output_string_adapterIcNSt7__cxx1112basic_stringIcSt11char_traitsIcESaIcEEEEELN9__gnu_cxx12_Lock_policyE2EED2Ev, symObjAddr: 0xC8A8, symBinAddr: 0x10000E9E0, symSize: 0x24 }
  - { offsetInCU: 0x73442, offset: 0x73442, size: 0x8, addend: 0x0, symName: __ZN8nlohmann16json_abi_v3_11_310basic_jsonISt3mapSt6vectorNSt7__cxx1112basic_stringIcSt11char_traitsIcESaIcEEEbxydSaNS0_14adl_serializerES3_IhSaIhEEvE10json_valueC1ERKNS0_27byte_container_with_subtypeISC_EE, symObjAddr: 0xC878, symBinAddr: 0x10000E9B0, symSize: 0x30 }
  - { offsetInCU: 0x73471, offset: 0x73471, size: 0x8, addend: 0x0, symName: __ZN8nlohmann16json_abi_v3_11_310basic_jsonISt3mapSt6vectorNSt7__cxx1112basic_stringIcSt11char_traitsIcESaIcEEEbxydSaNS0_14adl_serializerES3_IhSaIhEEvE10json_valueC1Ed, symObjAddr: 0xC854, symBinAddr: 0x10000E98C, symSize: 0x24 }
  - { offsetInCU: 0x734C8, offset: 0x734C8, size: 0x8, addend: 0x0, symName: __ZN8nlohmann16json_abi_v3_11_310basic_jsonISt3mapSt6vectorNSt7__cxx1112basic_stringIcSt11char_traitsIcESaIcEEEbxydSaNS0_14adl_serializerES3_IhSaIhEEvE10json_valueC1Ey, symObjAddr: 0xC830, symBinAddr: 0x10000E968, symSize: 0x24 }
  - { offsetInCU: 0x7351F, offset: 0x7351F, size: 0x8, addend: 0x0, symName: __ZN8nlohmann16json_abi_v3_11_310basic_jsonISt3mapSt6vectorNSt7__cxx1112basic_stringIcSt11char_traitsIcESaIcEEEbxydSaNS0_14adl_serializerES3_IhSaIhEEvE10json_valueC1Ex, symObjAddr: 0xC80C, symBinAddr: 0x10000E944, symSize: 0x24 }
  - { offsetInCU: 0x73576, offset: 0x73576, size: 0x8, addend: 0x0, symName: __ZN8nlohmann16json_abi_v3_11_310basic_jsonISt3mapSt6vectorNSt7__cxx1112basic_stringIcSt11char_traitsIcESaIcEEEbxydSaNS0_14adl_serializerES3_IhSaIhEEvE10json_valueC1Eb, symObjAddr: 0xC7E4, symBinAddr: 0x10000E91C, symSize: 0x28 }
  - { offsetInCU: 0x735D1, offset: 0x735D1, size: 0x8, addend: 0x0, symName: __ZN8nlohmann16json_abi_v3_11_310basic_jsonISt3mapSt6vectorNSt7__cxx1112basic_stringIcSt11char_traitsIcESaIcEEEbxydSaNS0_14adl_serializerES3_IhSaIhEEvE10json_valueC1ERKS9_, symObjAddr: 0xC7B4, symBinAddr: 0x10000E8EC, symSize: 0x30 }
  - { offsetInCU: 0x73634, offset: 0x73634, size: 0x8, addend: 0x0, symName: __ZN8nlohmann16json_abi_v3_11_310basic_jsonISt3mapSt6vectorNSt7__cxx1112basic_stringIcSt11char_traitsIcESaIcEEEbxydSaNS0_14adl_serializerES3_IhSaIhEEvE10json_valueC1ERKS3_ISD_SaISD_EE, symObjAddr: 0xC784, symBinAddr: 0x10000E8BC, symSize: 0x30 }
  - { offsetInCU: 0x736A5, offset: 0x736A5, size: 0x8, addend: 0x0, symName: __ZN8nlohmann16json_abi_v3_11_310basic_jsonISt3mapSt6vectorNSt7__cxx1112basic_stringIcSt11char_traitsIcESaIcEEEbxydSaNS0_14adl_serializerES3_IhSaIhEEvE10json_valueC1ERKS2_IS9_SD_St4lessIvESaISt4pairIKS9_SD_EEE, symObjAddr: 0xC754, symBinAddr: 0x10000E88C, symSize: 0x30 }
  - { offsetInCU: 0x73603, offset: 0x73603, size: 0x8, addend: 0x0, symName: __ZSt6__sortIN9__gnu_cxx17__normal_iteratorIPSt4pairIiS2_IiiEESt6vectorIS4_SaIS4_EEEENS0_5__ops15_Iter_less_iterEEvT_SC_T0_, symObjAddr: 0xC6DC, symBinAddr: 0x10000E814, symSize: 0x78 }
  - { offsetInCU: 0x736DB, offset: 0x736DB, size: 0x8, addend: 0x0, symName: __ZN9__gnu_cxx17__normal_iteratorIPSt4pairIiS1_IiiEESt6vectorIS3_SaIS3_EEEC1ERKS4_, symObjAddr: 0xC6B4, symBinAddr: 0x10000E7EC, symSize: 0x28 }
  - { offsetInCU: 0x736BC, offset: 0x736BC, size: 0x8, addend: 0x0, symName: __ZNSt6vectorISt4pairIiS0_IiiEESaIS2_EE12emplace_backIJS2_EEERS2_DpOT_, symObjAddr: 0xC5CC, symBinAddr: 0x10000E704, symSize: 0xE8 }
  - { offsetInCU: 0x7376E, offset: 0x7376E, size: 0x8, addend: 0x0, symName: __ZSt4moveIRSt4pairIiS0_IiiEEEONSt16remove_referenceIT_E4typeEOS5_, symObjAddr: 0xC5B8, symBinAddr: 0x10000E6F0, symSize: 0x14 }
  - { offsetInCU: 0x73811, offset: 0x73811, size: 0x8, addend: 0x0, symName: __ZNSt4pairIiS_IxxEEC1IRiS0_Lb1EEEOT_OT0_, symObjAddr: 0xC570, symBinAddr: 0x10000E6A8, symSize: 0x48 }
  - { offsetInCU: 0x7389E, offset: 0x7389E, size: 0x8, addend: 0x0, symName: __ZNSt4pairIxxEC1IRxS2_Lb1EEEOT_OT0_, symObjAddr: 0xC528, symBinAddr: 0x10000E660, symSize: 0x48 }
  - { offsetInCU: 0x738CB, offset: 0x738CB, size: 0x8, addend: 0x0, symName: __ZSt7forwardIRxEOT_RNSt16remove_referenceIS1_E4typeE, symObjAddr: 0xC514, symBinAddr: 0x10000E64C, symSize: 0x14 }
  - { offsetInCU: 0x7393C, offset: 0x7393C, size: 0x8, addend: 0x0, symName: __ZNSt12_Vector_baseISt4pairIiS0_IiiEESaIS2_EE19_M_get_Tp_allocatorEv, symObjAddr: 0xC500, symBinAddr: 0x10000E638, symSize: 0x14 }
  - { offsetInCU: 0x73966, offset: 0x73966, size: 0x8, addend: 0x0, symName: __ZNSt12_Vector_baseISt4pairIiS0_IiiEESaIS2_EE13_M_deallocateEPS2_m, symObjAddr: 0xC4A8, symBinAddr: 0x10000E5E0, symSize: 0x58 }
  - { offsetInCU: 0x73A36, offset: 0x73A36, size: 0x8, addend: 0x0, symName: __ZNSt15__new_allocatorISt4pairIiS0_IiiEEED2Ev, symObjAddr: 0xC494, symBinAddr: 0x10000E5CC, symSize: 0x14 }
  - { offsetInCU: 0x73A8D, offset: 0x73A8D, size: 0x8, addend: 0x0, symName: __ZNSt12_Vector_baseISt4pairIiS0_IiiEESaIS2_EE17_Vector_impl_dataC2Ev, symObjAddr: 0xC468, symBinAddr: 0x10000E5A0, symSize: 0x2C }
  - { offsetInCU: 0x73AE3, offset: 0x73AE3, size: 0x8, addend: 0x0, symName: __ZNSt12_Vector_baseISt6vectorIiSaIiEESaIS2_EE17_Vector_impl_dataC2Ev, symObjAddr: 0xC43C, symBinAddr: 0x10000E574, symSize: 0x2C }
  - { offsetInCU: 0x73AC8, offset: 0x73AC8, size: 0x8, addend: 0x0, symName: __ZN8nlohmann16json_abi_v3_11_36detail6parserINS0_10basic_jsonISt3mapSt6vectorNSt7__cxx1112basic_stringIcSt11char_traitsIcESaIcEEEbxydSaNS0_14adl_serializerES5_IhSaIhEEvEENS1_22iterator_input_adapterIN9__gnu_cxx17__normal_iteratorIPKcSB_EEEEE5parseEbRSF_, symObjAddr: 0xBF58, symBinAddr: 0x10000E090, symSize: 0x4E4 }
  - { offsetInCU: 0x73C51, offset: 0x73C51, size: 0x8, addend: 0x0, symName: __ZN8nlohmann16json_abi_v3_11_310basic_jsonISt3mapSt6vectorNSt7__cxx1112basic_stringIcSt11char_traitsIcESaIcEEEbxydSaNS0_14adl_serializerES3_IhSaIhEEvE6parserINS0_6detail22iterator_input_adapterIN9__gnu_cxx17__normal_iteratorIPKcS9_EEEEEENSF_6parserISD_T_EESO_St8functionIFbiNSF_13parse_event_tERSD_EEbb, symObjAddr: 0xBEB4, symBinAddr: 0x10000DFEC, symSize: 0xA4 }
  - { offsetInCU: 0x73CB8, offset: 0x73CB8, size: 0x8, addend: 0x0, symName: __ZN8nlohmann16json_abi_v3_11_36detail13input_adapterINSt7__cxx1112basic_stringIcSt11char_traitsIcESaIcEEEEENS1_36container_input_adapter_factory_impl31container_input_adapter_factoryIT_vE12adapter_typeERKSB_, symObjAddr: 0xBE98, symBinAddr: 0x10000DFD0, symSize: 0x1C }
  - { offsetInCU: 0x73CF2, offset: 0x73CF2, size: 0x8, addend: 0x0, symName: __ZSt7forwardIRNSt7__cxx1112basic_stringIcSt11char_traitsIcESaIcEEEEOT_RNSt16remove_referenceIS7_E4typeE, symObjAddr: 0xBE84, symBinAddr: 0x10000DFBC, symSize: 0x14 }
  - { offsetInCU: 0x73D28, offset: 0x73D28, size: 0x8, addend: 0x0, symName: __ZNSt7__cxx1112basic_stringIcSt11char_traitsIcESaIcEE12_M_constructISt19istreambuf_iteratorIcS2_EEEvT_S8_St18input_iterator_tag, symObjAddr: 0xBCC8, symBinAddr: 0x10000DE00, symSize: 0x1BC }
  - { offsetInCU: 0x73ECE, offset: 0x73ECE, size: 0x8, addend: 0x0, symName: __ZZNSt7__cxx1112basic_stringIcSt11char_traitsIcESaIcEE12_M_constructISt19istreambuf_iteratorIcS2_EEEvT_S8_St18input_iterator_tagEN6_GuardC1EPS4_, symObjAddr: 0xBC70, symBinAddr: 0x10000DDA8, symSize: 0x24 }
  - { offsetInCU: 0x73EFE, offset: 0x73EFE, size: 0x8, addend: 0x0, symName: __ZZNSt7__cxx1112basic_stringIcSt11char_traitsIcESaIcEE12_M_constructISt19istreambuf_iteratorIcS2_EEEvT_S8_St18input_iterator_tagEN6_GuardD1Ev, symObjAddr: 0xBC94, symBinAddr: 0x10000DDCC, symSize: 0x34 }
  - { offsetInCU: 0x73F08, offset: 0x73F08, size: 0x8, addend: 0x0, symName: __ZNSt6vectorIiSaIiEE15_M_range_insertIN9__gnu_cxx17__normal_iteratorIPiS1_EEEEvS6_T_S7_St20forward_iterator_tag, symObjAddr: 0xB85C, symBinAddr: 0x10000D994, symSize: 0x414 }
  - { offsetInCU: 0x741D1, offset: 0x741D1, size: 0x8, addend: 0x0, symName: __ZNSt6vectorIiSaIiEE8_M_eraseEN9__gnu_cxx17__normal_iteratorIPiS1_EES5_, symObjAddr: 0xB7A8, symBinAddr: 0x10000D8E0, symSize: 0xB4 }
  - { offsetInCU: 0x7421E, offset: 0x7421E, size: 0x8, addend: 0x0, symName: __ZN9__gnu_cxxmiIPKiSt6vectorIiSaIiEEEENS_17__normal_iteratorIT_T0_E15difference_typeERKS9_SC_, symObjAddr: 0xB768, symBinAddr: 0x10000D8A0, symSize: 0x40 }
  - { offsetInCU: 0x7426F, offset: 0x7426F, size: 0x8, addend: 0x0, symName: __ZNKSt6vectorIiSaIiEE6cbeginEv, symObjAddr: 0xB744, symBinAddr: 0x10000D87C, symSize: 0x24 }
  - { offsetInCU: 0x74295, offset: 0x74295, size: 0x8, addend: 0x0, symName: __ZSt13__copy_move_aILb0EN9__gnu_cxx17__normal_iteratorIPiSt6vectorIiSaIiEEEES6_ET1_T0_S8_S7_, symObjAddr: 0xB6E4, symBinAddr: 0x10000D81C, symSize: 0x60 }
  - { offsetInCU: 0x742FD, offset: 0x742FD, size: 0x8, addend: 0x0, symName: __ZSt12__miter_baseIN9__gnu_cxx17__normal_iteratorIPiSt6vectorIiSaIiEEEEET_S7_, symObjAddr: 0xB6D0, symBinAddr: 0x10000D808, symSize: 0x14 }
  - { offsetInCU: 0x74334, offset: 0x74334, size: 0x8, addend: 0x0, symName: __ZNSt6vectorIN8nlohmann16json_abi_v3_11_310basic_jsonISt3mapS_NSt7__cxx1112basic_stringIcSt11char_traitsIcESaIcEEEbxydSaNS1_14adl_serializerES_IhSaIhEEvEESaISD_EE4backEv, symObjAddr: 0xB698, symBinAddr: 0x10000D7D0, symSize: 0x38 }
  - { offsetInCU: 0x7435E, offset: 0x7435E, size: 0x8, addend: 0x0, symName: __ZN8nlohmann16json_abi_v3_11_310basic_jsonISt3mapSt6vectorNSt7__cxx1112basic_stringIcSt11char_traitsIcESaIcEEEbxydSaNS0_14adl_serializerES3_IhSaIhEEvE10set_parentERSD_m, symObjAddr: 0xB67C, symBinAddr: 0x10000D7B4, symSize: 0x1C }
  - { offsetInCU: 0x743AA, offset: 0x743AA, size: 0x8, addend: 0x0, symName: __ZNSt6vectorIN8nlohmann16json_abi_v3_11_310basic_jsonISt3mapS_NSt7__cxx1112basic_stringIcSt11char_traitsIcESaIcEEEbxydSaNS1_14adl_serializerES_IhSaIhEEvEESaISD_EE9push_backERKSD_, symObjAddr: 0xB580, symBinAddr: 0x10000D6B8, symSize: 0xFC }
  - { offsetInCU: 0x74449, offset: 0x74449, size: 0x8, addend: 0x0, symName: __ZNKSt6vectorIN8nlohmann16json_abi_v3_11_310basic_jsonISt3mapS_NSt7__cxx1112basic_stringIcSt11char_traitsIcESaIcEEEbxydSaNS1_14adl_serializerES_IhSaIhEEvEESaISD_EE8capacityEv, symObjAddr: 0xB558, symBinAddr: 0x10000D690, symSize: 0x28 }
  - { offsetInCU: 0x74551, offset: 0x74551, size: 0x8, addend: 0x0, symName: __ZN8nlohmann16json_abi_v3_11_310basic_jsonISt3mapSt6vectorNSt7__cxx1112basic_stringIcSt11char_traitsIcESaIcEEEbxydSaNS0_14adl_serializerES3_IhSaIhEEvE10json_valueC1ENS0_6detail7value_tE, symObjAddr: 0xB308, symBinAddr: 0x10000D440, symSize: 0x250 }
  - { offsetInCU: 0x745AB, offset: 0x745AB, size: 0x8, addend: 0x0, symName: __ZN8nlohmann16json_abi_v3_11_36detail11other_errorD0Ev, symObjAddr: 0xB2E0, symBinAddr: 0x10000D418, symSize: 0x28 }
  - { offsetInCU: 0x745D5, offset: 0x745D5, size: 0x8, addend: 0x0, symName: __ZN8nlohmann16json_abi_v3_11_36detail11other_errorD1Ev, symObjAddr: 0xB2AC, symBinAddr: 0x10000D3E4, symSize: 0x34 }
  - { offsetInCU: 0x745C4, offset: 0x745C4, size: 0x8, addend: 0x0, symName: __ZN8nlohmann16json_abi_v3_11_36detail10type_error6createIPNS0_10basic_jsonISt3mapSt6vectorNSt7__cxx1112basic_stringIcSt11char_traitsIcESaIcEEEbxydSaNS0_14adl_serializerES6_IhSaIhEEvEELi0EEES2_iRKSC_T_, symObjAddr: 0xB16C, symBinAddr: 0x10000D2A4, symSize: 0x140 }
  - { offsetInCU: 0x746B4, offset: 0x746B4, size: 0x8, addend: 0x0, symName: __ZN8nlohmann16json_abi_v3_11_36detail6concatINSt7__cxx1112basic_stringIcSt11char_traitsIcESaIcEEEJRA29_KcPS9_EEET_DpOT0_, symObjAddr: 0xB0E8, symBinAddr: 0x10000D220, symSize: 0x84 }
  - { offsetInCU: 0x74715, offset: 0x74715, size: 0x8, addend: 0x0, symName: __ZNK8nlohmann16json_abi_v3_11_310basic_jsonISt3mapSt6vectorNSt7__cxx1112basic_stringIcSt11char_traitsIcESaIcEEEbxydSaNS0_14adl_serializerES3_IhSaIhEEvE9type_nameEv, symObjAddr: 0xB010, symBinAddr: 0x10000D148, symSize: 0xD8 }
  - { offsetInCU: 0x7473F, offset: 0x7473F, size: 0x8, addend: 0x0, symName: __ZNK8nlohmann16json_abi_v3_11_310basic_jsonISt3mapSt6vectorNSt7__cxx1112basic_stringIcSt11char_traitsIcESaIcEEEbxydSaNS0_14adl_serializerES3_IhSaIhEEvE8is_arrayEv, symObjAddr: 0xAFEC, symBinAddr: 0x10000D124, symSize: 0x24 }
  - { offsetInCU: 0x74765, offset: 0x74765, size: 0x8, addend: 0x0, symName: __ZN8nlohmann16json_abi_v3_11_314adl_serializerIjvE7to_jsonINS0_10basic_jsonISt3mapSt6vectorNSt7__cxx1112basic_stringIcSt11char_traitsIcESaIcEEEbxydSaS1_S6_IhSaIhEEvEEjEEDTcmclL_ZNS0_7to_jsonEEfp_cl7forwardIT0_Efp0_EEcvv_EERT_OSG_, symObjAddr: 0xAFA8, symBinAddr: 0x10000D0E0, symSize: 0x44 }
  - { offsetInCU: 0x747B9, offset: 0x747B9, size: 0x8, addend: 0x0, symName: __ZSt7forwardIjEOT_RNSt16remove_referenceIS0_E4typeE, symObjAddr: 0xAF94, symBinAddr: 0x10000D0CC, symSize: 0x14 }
  - { offsetInCU: 0x747EB, offset: 0x747EB, size: 0x8, addend: 0x0, symName: __ZN8nlohmann16json_abi_v3_11_314adl_serializerIivE7to_jsonINS0_10basic_jsonISt3mapSt6vectorNSt7__cxx1112basic_stringIcSt11char_traitsIcESaIcEEEbxydSaS1_S6_IhSaIhEEvEEiEEDTcmclL_ZNS0_7to_jsonEEfp_cl7forwardIT0_Efp0_EEcvv_EERT_OSG_, symObjAddr: 0xAF50, symBinAddr: 0x10000D088, symSize: 0x44 }
  - { offsetInCU: 0x7483F, offset: 0x7483F, size: 0x8, addend: 0x0, symName: __ZSt4moveIRN8nlohmann16json_abi_v3_11_310basic_jsonISt3mapSt6vectorNSt7__cxx1112basic_stringIcSt11char_traitsIcESaIcEEEbxydSaNS1_14adl_serializerES4_IhSaIhEEvEEEONSt16remove_referenceIT_E4typeEOSH_, symObjAddr: 0xAF3C, symBinAddr: 0x10000D074, symSize: 0x14 }
  - { offsetInCU: 0x74871, offset: 0x74871, size: 0x8, addend: 0x0, symName: __ZSt4swapIN8nlohmann16json_abi_v3_11_310basic_jsonISt3mapSt6vectorNSt7__cxx1112basic_stringIcSt11char_traitsIcESaIcEEEbxydSaNS1_14adl_serializerES4_IhSaIhEEvE10json_valueEENSt9enable_ifIXsrSt6__and_IJSt6__not_ISt15__is_tuple_likeIT_EESt21is_move_constructibleISK_ESt18is_move_assignableISK_EEE5valueEvE4typeERSK_SU_, symObjAddr: 0xAEE0, symBinAddr: 0x10000D018, symSize: 0x5C }
  - { offsetInCU: 0x748CA, offset: 0x748CA, size: 0x8, addend: 0x0, symName: __ZSt4moveIRN8nlohmann16json_abi_v3_11_310basic_jsonISt3mapSt6vectorNSt7__cxx1112basic_stringIcSt11char_traitsIcESaIcEEEbxydSaNS1_14adl_serializerES4_IhSaIhEEvE10json_valueEEONSt16remove_referenceIT_E4typeEOSI_, symObjAddr: 0xAECC, symBinAddr: 0x10000D004, symSize: 0x14 }
  - { offsetInCU: 0x748FC, offset: 0x748FC, size: 0x8, addend: 0x0, symName: __ZSt4swapIN8nlohmann16json_abi_v3_11_36detail7value_tEENSt9enable_ifIXsrSt6__and_IJSt6__not_ISt15__is_tuple_likeIT_EESt21is_move_constructibleIS8_ESt18is_move_assignableIS8_EEE5valueEvE4typeERS8_SI_, symObjAddr: 0xAE78, symBinAddr: 0x10000CFB0, symSize: 0x54 }
  - { offsetInCU: 0x74955, offset: 0x74955, size: 0x8, addend: 0x0, symName: __ZSt4moveIRN8nlohmann16json_abi_v3_11_36detail7value_tEEONSt16remove_referenceIT_E4typeEOS6_, symObjAddr: 0xAE64, symBinAddr: 0x10000CF9C, symSize: 0x14 }
  - { offsetInCU: 0x7498B, offset: 0x7498B, size: 0x8, addend: 0x0, symName: __ZN8nlohmann16json_abi_v3_11_310basic_jsonISt3mapSt6vectorNSt7__cxx1112basic_stringIcSt11char_traitsIcESaIcEEEbxydSaNS0_14adl_serializerES3_IhSaIhEEvE11set_parentsEv, symObjAddr: 0xAE50, symBinAddr: 0x10000CF88, symSize: 0x14 }
  - { offsetInCU: 0x749B1, offset: 0x749B1, size: 0x8, addend: 0x0, symName: __ZN8nlohmann16json_abi_v3_11_314adl_serializerIivE7to_jsonINS0_10basic_jsonISt3mapSt6vectorNSt7__cxx1112basic_stringIcSt11char_traitsIcESaIcEEEbxydSaS1_S6_IhSaIhEEvEERiEEDTcmclL_ZNS0_7to_jsonEEfp_cl7forwardIT0_Efp0_EEcvv_EERT_OSH_, symObjAddr: 0xAE0C, symBinAddr: 0x10000CF44, symSize: 0x44 }
  - { offsetInCU: 0x74A05, offset: 0x74A05, size: 0x8, addend: 0x0, symName: __ZSt7forwardIRiEOT_RNSt16remove_referenceIS1_E4typeE, symObjAddr: 0xADF8, symBinAddr: 0x10000CF30, symSize: 0x14 }
  - { offsetInCU: 0x74A3B, offset: 0x74A3B, size: 0x8, addend: 0x0, symName: __ZN8nlohmann16json_abi_v3_11_310basic_jsonISt3mapSt6vectorNSt7__cxx1112basic_stringIcSt11char_traitsIcESaIcEEEbxydSaNS0_14adl_serializerES3_IhSaIhEEvEixES9_, symObjAddr: 0xAC9C, symBinAddr: 0x10000CDD4, symSize: 0x15C }
  - { offsetInCU: 0x74B6F, offset: 0x74B6F, size: 0x8, addend: 0x0, symName: __ZN8nlohmann16json_abi_v3_11_310basic_jsonISt3mapSt6vectorNSt7__cxx1112basic_stringIcSt11char_traitsIcESaIcEEEbxydSaNS0_14adl_serializerES3_IhSaIhEEvEC1ENS0_6detail7value_tE, symObjAddr: 0xAC64, symBinAddr: 0x10000CD9C, symSize: 0x38 }
  - { offsetInCU: 0x74AF4, offset: 0x74AF4, size: 0x8, addend: 0x0, symName: __ZNSt6vectorIiSaIiEE17_M_realloc_appendIJRKiEEEvDpOT_, symObjAddr: 0xAAA8, symBinAddr: 0x10000CBE0, symSize: 0x1BC }
  - { offsetInCU: 0x74CC0, offset: 0x74CC0, size: 0x8, addend: 0x0, symName: __ZZNSt6vectorIiSaIiEE17_M_realloc_appendIJRKiEEEvDpOT_EN6_GuardC1EPimRS0_, symObjAddr: 0xAA04, symBinAddr: 0x10000CB3C, symSize: 0x44 }
  - { offsetInCU: 0x74CFF, offset: 0x74CFF, size: 0x8, addend: 0x0, symName: __ZZNSt6vectorIiSaIiEE17_M_realloc_appendIJRKiEEEvDpOT_EN6_GuardD1Ev, symObjAddr: 0xAA48, symBinAddr: 0x10000CB80, symSize: 0x60 }
  - { offsetInCU: 0x74DF6, offset: 0x74DF6, size: 0x8, addend: 0x0, symName: __ZNSt6vectorIS_IiSaIiEESaIS1_EE12emplace_backIJS1_EEERS1_DpOT_, symObjAddr: 0xA928, symBinAddr: 0x10000CA60, symSize: 0xDC }
  - { offsetInCU: 0x74EA8, offset: 0x74EA8, size: 0x8, addend: 0x0, symName: __ZSt4moveIRSt6vectorIiSaIiEEEONSt16remove_referenceIT_E4typeEOS5_, symObjAddr: 0xA914, symBinAddr: 0x10000CA4C, symSize: 0x14 }
  - { offsetInCU: 0x74EDE, offset: 0x74EDE, size: 0x8, addend: 0x0, symName: __ZNK8nlohmann16json_abi_v3_11_310basic_jsonISt3mapSt6vectorNSt7__cxx1112basic_stringIcSt11char_traitsIcESaIcEEEbxydSaNS0_14adl_serializerES3_IhSaIhEEvE8get_implIS9_Li0EEET_NS0_6detail12priority_tagILj0EEE, symObjAddr: 0xA8C0, symBinAddr: 0x10000C9F8, symSize: 0x54 }
  - { offsetInCU: 0x74F27, offset: 0x74F27, size: 0x8, addend: 0x0, symName: __ZN8nlohmann16json_abi_v3_11_36detail16invalid_iterator6createIPKNS0_10basic_jsonISt3mapSt6vectorNSt7__cxx1112basic_stringIcSt11char_traitsIcESaIcEEEbxydSaNS0_14adl_serializerES6_IhSaIhEEvEELi0EEES2_iRKSC_T_, symObjAddr: 0xA780, symBinAddr: 0x10000C8B8, symSize: 0x140 }
  - { offsetInCU: 0x7501B, offset: 0x7501B, size: 0x8, addend: 0x0, symName: __ZNK9__gnu_cxx17__normal_iteratorIPN8nlohmann16json_abi_v3_11_310basic_jsonISt3mapSt6vectorNSt7__cxx1112basic_stringIcSt11char_traitsIcESaIcEEEbxydSaNS2_14adl_serializerES5_IhSaIhEEvEES5_ISF_SaISF_EEEdeEv, symObjAddr: 0xA768, symBinAddr: 0x10000C8A0, symSize: 0x18 }
  - { offsetInCU: 0x75041, offset: 0x75041, size: 0x8, addend: 0x0, symName: __ZN9__gnu_cxxneIPN8nlohmann16json_abi_v3_11_310basic_jsonISt3mapSt6vectorNSt7__cxx1112basic_stringIcSt11char_traitsIcESaIcEEEbxydSaNS2_14adl_serializerES5_IhSaIhEEvEES5_ISF_SaISF_EEEEbRKNS_17__normal_iteratorIT_T0_EESO_, symObjAddr: 0xA724, symBinAddr: 0x10000C85C, symSize: 0x44 }
  - { offsetInCU: 0x75092, offset: 0x75092, size: 0x8, addend: 0x0, symName: __ZNSt6vectorIN8nlohmann16json_abi_v3_11_310basic_jsonISt3mapS_NSt7__cxx1112basic_stringIcSt11char_traitsIcESaIcEEEbxydSaNS1_14adl_serializerES_IhSaIhEEvEESaISD_EE3endEv, symObjAddr: 0xA6FC, symBinAddr: 0x10000C834, symSize: 0x28 }
  - { offsetInCU: 0x750BC, offset: 0x750BC, size: 0x8, addend: 0x0, symName: __ZNKSt17_Rb_tree_iteratorISt4pairIKNSt7__cxx1112basic_stringIcSt11char_traitsIcESaIcEEEN8nlohmann16json_abi_v3_11_310basic_jsonISt3mapSt6vectorS6_bxydSaNS9_14adl_serializerESC_IhSaIhEEvEEEEptEv, symObjAddr: 0xA6DC, symBinAddr: 0x10000C814, symSize: 0x20 }
  - { offsetInCU: 0x750E2, offset: 0x750E2, size: 0x8, addend: 0x0, symName: __ZStneRKSt17_Rb_tree_iteratorISt4pairIKNSt7__cxx1112basic_stringIcSt11char_traitsIcESaIcEEEN8nlohmann16json_abi_v3_11_310basic_jsonISt3mapSt6vectorS6_bxydSaNS9_14adl_serializerESC_IhSaIhEEvEEEESK_, symObjAddr: 0xA6AC, symBinAddr: 0x10000C7E4, symSize: 0x30 }
  - { offsetInCU: 0x75121, offset: 0x75121, size: 0x8, addend: 0x0, symName: __ZNSt3mapINSt7__cxx1112basic_stringIcSt11char_traitsIcESaIcEEEN8nlohmann16json_abi_v3_11_310basic_jsonIS_St6vectorS5_bxydSaNS7_14adl_serializerES9_IhSaIhEEvEESt4lessIvESaISt4pairIKS5_SD_EEE3endEv, symObjAddr: 0xA690, symBinAddr: 0x10000C7C8, symSize: 0x1C }
  - { offsetInCU: 0x751CD, offset: 0x751CD, size: 0x8, addend: 0x0, symName: __ZNK8nlohmann16json_abi_v3_11_36detail9iter_implIKNS0_10basic_jsonISt3mapSt6vectorNSt7__cxx1112basic_stringIcSt11char_traitsIcESaIcEEEbxydSaNS0_14adl_serializerES5_IhSaIhEEvEEEeqISH_LDnEEEbRKT_, symObjAddr: 0xA4D8, symBinAddr: 0x10000C610, symSize: 0x1B8 }
  - { offsetInCU: 0x752AB, offset: 0x752AB, size: 0x8, addend: 0x0, symName: __ZNK8nlohmann16json_abi_v3_11_310basic_jsonISt3mapSt6vectorNSt7__cxx1112basic_stringIcSt11char_traitsIcESaIcEEEbxydSaNS0_14adl_serializerES3_IhSaIhEEvE4cendEv, symObjAddr: 0xA49C, symBinAddr: 0x10000C5D4, symSize: 0x3C }
  - { offsetInCU: 0x752E6, offset: 0x752E6, size: 0x8, addend: 0x0, symName: __ZNK8nlohmann16json_abi_v3_11_310basic_jsonISt3mapSt6vectorNSt7__cxx1112basic_stringIcSt11char_traitsIcESaIcEEEbxydSaNS0_14adl_serializerES3_IhSaIhEEvE6cbeginEv, symObjAddr: 0xA460, symBinAddr: 0x10000C598, symSize: 0x3C }
  - { offsetInCU: 0x75321, offset: 0x75321, size: 0x8, addend: 0x0, symName: __ZNK8nlohmann16json_abi_v3_11_310basic_jsonISt3mapSt6vectorNSt7__cxx1112basic_stringIcSt11char_traitsIcESaIcEEEbxydSaNS0_14adl_serializerES3_IhSaIhEEvEixERKS9_, symObjAddr: 0xA318, symBinAddr: 0x10000C450, symSize: 0x148 }
  - { offsetInCU: 0x75396, offset: 0x75396, size: 0x8, addend: 0x0, symName: __ZNK8nlohmann16json_abi_v3_11_310basic_jsonISt3mapSt6vectorNSt7__cxx1112basic_stringIcSt11char_traitsIcESaIcEEEbxydSaNS0_14adl_serializerES3_IhSaIhEEvE9is_objectEv, symObjAddr: 0xA2F4, symBinAddr: 0x10000C42C, symSize: 0x24 }
  - { offsetInCU: 0x75419, offset: 0x75419, size: 0x8, addend: 0x0, symName: __ZNSt12_Vector_baseIiSaIiEE17_Vector_impl_dataC2EOS2_, symObjAddr: 0xA284, symBinAddr: 0x10000C3BC, symSize: 0x70 }
  - { offsetInCU: 0x75443, offset: 0x75443, size: 0x8, addend: 0x0, symName: __ZSt4moveIRNSt12_Vector_baseIiSaIiEE12_Vector_implEEONSt16remove_referenceIT_E4typeEOS6_, symObjAddr: 0xA270, symBinAddr: 0x10000C3A8, symSize: 0x14 }
  - { offsetInCU: 0x75479, offset: 0x75479, size: 0x8, addend: 0x0, symName: __ZNSt6vectorIiSaIiEE12emplace_backIJiEEERiDpOT_, symObjAddr: 0xA198, symBinAddr: 0x10000C2D0, symSize: 0xD8 }
  - { offsetInCU: 0x7552B, offset: 0x7552B, size: 0x8, addend: 0x0, symName: __ZSt4moveIRiEONSt16remove_referenceIT_E4typeEOS2_, symObjAddr: 0xA184, symBinAddr: 0x10000C2BC, symSize: 0x14 }
  - { offsetInCU: 0x75561, offset: 0x75561, size: 0x8, addend: 0x0, symName: __ZNK9__gnu_cxx17__normal_iteratorIPKcNSt7__cxx1112basic_stringIcSt11char_traitsIcESaIcEEEE4baseEv, symObjAddr: 0xA170, symBinAddr: 0x10000C2A8, symSize: 0x14 }
  - { offsetInCU: 0x7558B, offset: 0x7558B, size: 0x8, addend: 0x0, symName: __ZNSt12_Vector_baseIiSaIiEE13_M_deallocateEPim, symObjAddr: 0xA118, symBinAddr: 0x10000C250, symSize: 0x58 }
  - { offsetInCU: 0x75656, offset: 0x75656, size: 0x8, addend: 0x0, symName: __ZNSt12_Vector_baseIiSaIiEE17_Vector_impl_dataC2Ev, symObjAddr: 0xA0EC, symBinAddr: 0x10000C224, symSize: 0x2C }
  - { offsetInCU: 0x75649, offset: 0x75649, size: 0x8, addend: 0x0, symName: __ZNSt6chrono20__duration_cast_implINS_8durationIxSt5ratioILl1ELl1000EEEES2_ILl1ELl1000000EExLb1ELb0EE6__castIxS2_ILl1ELl1000000000EEEES4_RKNS1_IT_T0_EE, symObjAddr: 0xA09C, symBinAddr: 0x10000C1D4, symSize: 0x50 }
  - { offsetInCU: 0x75690, offset: 0x75690, size: 0x8, addend: 0x0, symName: __ZSt22__uninitialized_copy_aIPSt6vectorIiSaIiEES3_S2_ET0_T_S5_S4_RSaIT1_E, symObjAddr: 0xA06C, symBinAddr: 0x10000C1A4, symSize: 0x30 }
  - { offsetInCU: 0x75700, offset: 0x75700, size: 0x8, addend: 0x0, symName: __ZSt4copyIPSt6vectorIiSaIiEES3_ET0_T_S5_S4_, symObjAddr: 0xA024, symBinAddr: 0x10000C15C, symSize: 0x48 }
  - { offsetInCU: 0x7579D, offset: 0x7579D, size: 0x8, addend: 0x0, symName: __ZNSt6vectorIS_IiSaIiEESaIS1_EE3endEv, symObjAddr: 0x9FFC, symBinAddr: 0x10000C134, symSize: 0x28 }
  - { offsetInCU: 0x757C3, offset: 0x757C3, size: 0x8, addend: 0x0, symName: __ZSt4copyIN9__gnu_cxx17__normal_iteratorIPKSt6vectorIiSaIiEES2_IS4_SaIS4_EEEENS1_IPS4_S8_EEET0_T_SD_SC_, symObjAddr: 0x9FB4, symBinAddr: 0x10000C0EC, symSize: 0x48 }
  - { offsetInCU: 0x75825, offset: 0x75825, size: 0x8, addend: 0x0, symName: __ZNSt6vectorIS_IiSaIiEESaIS1_EE5beginEv, symObjAddr: 0x9F90, symBinAddr: 0x10000C0C8, symSize: 0x24 }
  - { offsetInCU: 0x7584F, offset: 0x7584F, size: 0x8, addend: 0x0, symName: __ZNSt6vectorIS_IiSaIiEESaIS1_EE20_M_allocate_and_copyIN9__gnu_cxx17__normal_iteratorIPKS1_S3_EEEEPS1_mT_SB_, symObjAddr: 0x9F0C, symBinAddr: 0x10000C044, symSize: 0x84 }
  - { offsetInCU: 0x758C6, offset: 0x758C6, size: 0x8, addend: 0x0, symName: __ZNKSt6vectorIS_IiSaIiEESaIS1_EE3endEv, symObjAddr: 0x9EE4, symBinAddr: 0x10000C01C, symSize: 0x28 }
  - { offsetInCU: 0x758F0, offset: 0x758F0, size: 0x8, addend: 0x0, symName: __ZNKSt6vectorIS_IiSaIiEESaIS1_EE5beginEv, symObjAddr: 0x9EC0, symBinAddr: 0x10000BFF8, symSize: 0x24 }
  - { offsetInCU: 0x7591A, offset: 0x7591A, size: 0x8, addend: 0x0, symName: __ZNKSt6vectorIS_IiSaIiEESaIS1_EE8capacityEv, symObjAddr: 0x9E8C, symBinAddr: 0x10000BFC4, symSize: 0x34 }
  - { offsetInCU: 0x75971, offset: 0x75971, size: 0x8, addend: 0x0, symName: __ZNSt12_Vector_baseISt6vectorIiSaIiEESaIS2_EE13_M_deallocateEPS2_m, symObjAddr: 0x9E34, symBinAddr: 0x10000BF6C, symSize: 0x58 }
  - { offsetInCU: 0x759F3, offset: 0x759F3, size: 0x8, addend: 0x0, symName: __ZNSt6vectorIS_IiSaIiEESaIS1_EE5clearEv, symObjAddr: 0x9E08, symBinAddr: 0x10000BF40, symSize: 0x2C }
  - { offsetInCU: 0x75A2F, offset: 0x75A2F, size: 0x8, addend: 0x0, symName: __ZNKSt12_Vector_baseISt6vectorIiSaIiEESaIS2_EE19_M_get_Tp_allocatorEv, symObjAddr: 0x9DF4, symBinAddr: 0x10000BF2C, symSize: 0x14 }
  - { offsetInCU: 0x75A59, offset: 0x75A59, size: 0x8, addend: 0x0, symName: __ZNSt8_Rb_treeIiSt4pairIKiSt6vectorIS2_IiSaIiEESaIS4_EEESt10_Select1stIS7_ESt4lessIiESaIS7_EE22_M_emplace_hint_uniqueIJRKSt21piecewise_construct_tSt5tupleIJRS1_EESI_IJEEEEESt17_Rb_tree_iteratorIS7_ESt23_Rb_tree_const_iteratorIS7_EDpOT_, symObjAddr: 0x9D1C, symBinAddr: 0x10000BE54, symSize: 0xD8 }
  - { offsetInCU: 0x75B7C, offset: 0x75B7C, size: 0x8, addend: 0x0, symName: __ZNSt23_Rb_tree_const_iteratorISt4pairIKiSt6vectorIS2_IiSaIiEESaIS4_EEEEC1ERKSt17_Rb_tree_iteratorIS7_E, symObjAddr: 0x9CF4, symBinAddr: 0x10000BE2C, symSize: 0x28 }
  - { offsetInCU: 0x75B98, offset: 0x75B98, size: 0x8, addend: 0x0, symName: __ZNSt5tupleIJRKiEEC1ILb1ELb1EEES1_, symObjAddr: 0x9CCC, symBinAddr: 0x10000BE04, symSize: 0x28 }
  - { offsetInCU: 0x75BB2, offset: 0x75BB2, size: 0x8, addend: 0x0, symName: __ZNKSt4lessIiEclERKiS2_, symObjAddr: 0x9C98, symBinAddr: 0x10000BDD0, symSize: 0x34 }
  - { offsetInCU: 0x75BFE, offset: 0x75BFE, size: 0x8, addend: 0x0, symName: __ZNKSt17_Rb_tree_iteratorISt4pairIKiSt6vectorIS2_IiSaIiEESaIS4_EEEEdeEv, symObjAddr: 0x9C78, symBinAddr: 0x10000BDB0, symSize: 0x20 }
  - { offsetInCU: 0x75C28, offset: 0x75C28, size: 0x8, addend: 0x0, symName: __ZNKSt3mapIiSt6vectorIS0_IiSaIiEESaIS2_EESt4lessIiESaISt4pairIKiS4_EEE8key_compEv, symObjAddr: 0x9C4C, symBinAddr: 0x10000BD84, symSize: 0x2C }
  - { offsetInCU: 0x75C55, offset: 0x75C55, size: 0x8, addend: 0x0, symName: __ZSteqRKSt17_Rb_tree_iteratorISt4pairIKiSt6vectorIS2_IiSaIiEESaIS4_EEEESA_, symObjAddr: 0x9C1C, symBinAddr: 0x10000BD54, symSize: 0x30 }
  - { offsetInCU: 0x75C94, offset: 0x75C94, size: 0x8, addend: 0x0, symName: __ZNSt3mapIiSt6vectorIS0_IiSaIiEESaIS2_EESt4lessIiESaISt4pairIKiS4_EEE3endEv, symObjAddr: 0x9C00, symBinAddr: 0x10000BD38, symSize: 0x1C }
  - { offsetInCU: 0x75CBE, offset: 0x75CBE, size: 0x8, addend: 0x0, symName: __ZNSt3mapIiSt6vectorIS0_IiSaIiEESaIS2_EESt4lessIiESaISt4pairIKiS4_EEE11lower_boundERS8_, symObjAddr: 0x9BDC, symBinAddr: 0x10000BD14, symSize: 0x24 }
  - { offsetInCU: 0x75D34, offset: 0x75D34, size: 0x8, addend: 0x0, symName: __ZNSt12_Vector_baseISt6vectorIiSaIiEESaIS2_EE19_M_get_Tp_allocatorEv, symObjAddr: 0x9BC8, symBinAddr: 0x10000BD00, symSize: 0x14 }
  - { offsetInCU: 0x75D5E, offset: 0x75D5E, size: 0x8, addend: 0x0, symName: __ZNSt6vectorIS_IiSaIiEESaIS1_EE18_M_fill_initializeEmRKS1_, symObjAddr: 0x9B70, symBinAddr: 0x10000BCA8, symSize: 0x58 }
  - { offsetInCU: 0x75E13, offset: 0x75E13, size: 0x8, addend: 0x0, symName: __ZNSt12_Vector_baseISt6vectorIiSaIiEESaIS2_EEC2EmRKS3_, symObjAddr: 0x9B1C, symBinAddr: 0x10000BC54, symSize: 0x54 }
  - { offsetInCU: 0x75E14, offset: 0x75E14, size: 0x8, addend: 0x0, symName: __ZNSt6vectorIS_IiSaIiEESaIS1_EE17_S_check_init_lenEmRKS2_, symObjAddr: 0x9A98, symBinAddr: 0x10000BBD0, symSize: 0x84 }
  - { offsetInCU: 0x75F18, offset: 0x75F18, size: 0x8, addend: 0x0, symName: __ZNSt15__new_allocatorISt6vectorIiSaIiEEED2Ev, symObjAddr: 0x9A84, symBinAddr: 0x10000BBBC, symSize: 0x14 }
  - { offsetInCU: 0x75F65, offset: 0x75F65, size: 0x8, addend: 0x0, symName: __ZNSt12_Vector_baseIiSaIiEE19_M_get_Tp_allocatorEv, symObjAddr: 0x9A70, symBinAddr: 0x10000BBA8, symSize: 0x14 }
  - { offsetInCU: 0x75F8F, offset: 0x75F8F, size: 0x8, addend: 0x0, symName: __ZNSt6vectorIiSaIiEE18_M_fill_initializeEmRKi, symObjAddr: 0x9A18, symBinAddr: 0x10000BB50, symSize: 0x58 }
  - { offsetInCU: 0x76032, offset: 0x76032, size: 0x8, addend: 0x0, symName: __ZNSt12_Vector_baseIiSaIiEEC2EmRKS0_, symObjAddr: 0x99C4, symBinAddr: 0x10000BAFC, symSize: 0x54 }
  - { offsetInCU: 0x76045, offset: 0x76045, size: 0x8, addend: 0x0, symName: __ZNSt6vectorIiSaIiEE17_S_check_init_lenEmRKS0_, symObjAddr: 0x9940, symBinAddr: 0x10000BA78, symSize: 0x84 }
  - { offsetInCU: 0x760FB, offset: 0x760FB, size: 0x8, addend: 0x0, symName: __ZNK9__gnu_cxx17__normal_iteratorIPiSt6vectorIiSaIiEEE4baseEv, symObjAddr: 0x992C, symBinAddr: 0x10000BA64, symSize: 0x14 }
  - { offsetInCU: 0x76187, offset: 0x76187, size: 0x8, addend: 0x0, symName: __ZN9__gnu_cxx17__normal_iteratorIPiSt6vectorIiSaIiEEEC1ERKS1_, symObjAddr: 0x9904, symBinAddr: 0x10000BA3C, symSize: 0x28 }
  - { offsetInCU: 0x7617C, offset: 0x7617C, size: 0x8, addend: 0x0, symName: __ZNSt8_Rb_treeIiSt4pairIKiSt6vectorIS2_IiSaIiEESaIS4_EEESt10_Select1stIS7_ESt4lessIiESaIS7_EE8_M_beginEv, symObjAddr: 0x98E8, symBinAddr: 0x10000BA20, symSize: 0x1C }
  - { offsetInCU: 0x761A6, offset: 0x761A6, size: 0x8, addend: 0x0, symName: __ZNSt8_Rb_treeIiSt4pairIKiSt6vectorIS2_IiSaIiEESaIS4_EEESt10_Select1stIS7_ESt4lessIiESaIS7_EE8_M_eraseEPSt13_Rb_tree_nodeIS7_E, symObjAddr: 0x9884, symBinAddr: 0x10000B9BC, symSize: 0x64 }
  - { offsetInCU: 0x7627D, offset: 0x7627D, size: 0x8, addend: 0x0, symName: __ZNSt15__new_allocatorISt13_Rb_tree_nodeISt4pairIKiSt6vectorIS3_IiSaIiEESaIS5_EEEEED2Ev, symObjAddr: 0x9870, symBinAddr: 0x10000B9A8, symSize: 0x14 }
  - { offsetInCU: 0x76291, offset: 0x76291, size: 0x8, addend: 0x0, symName: __ZNSt20_Rb_tree_key_compareISt4lessIiEEC2Ev, symObjAddr: 0x985C, symBinAddr: 0x10000B994, symSize: 0x14 }
  - { offsetInCU: 0x7644B, offset: 0x7644B, size: 0x8, addend: 0x0, symName: __ZZN8nlohmann16json_abi_v3_11_310basic_jsonISt3mapSt6vectorNSt7__cxx1112basic_stringIcSt11char_traitsIcESaIcEEEbxydSaNS0_14adl_serializerES3_IhSaIhEEvEC4ESt16initializer_listINS0_6detail8json_refISD_EEEbNSF_7value_tEENKUlRKSH_E_clESL_, symObjAddr: 0x9508, symBinAddr: 0x10000B640, symSize: 0x70 }
  - { offsetInCU: 0x764A6, offset: 0x764A6, size: 0x8, addend: 0x0, symName: __ZN8nlohmann16json_abi_v3_11_310basic_jsonISt3mapSt6vectorNSt7__cxx1112basic_stringIcSt11char_traitsIcESaIcEEEbxydSaNS0_14adl_serializerES3_IhSaIhEEvEC1ESt16initializer_listINS0_6detail8json_refISD_EEEbNSF_7value_tE, symObjAddr: 0x9578, symBinAddr: 0x10000B6B0, symSize: 0x2E4 }
  - { offsetInCU: 0x7652E, offset: 0x7652E, size: 0x8, addend: 0x0, symName: __ZNSt6vectorIiSaIiEE19_M_range_initializeIPKiEEvT_S5_St20forward_iterator_tag, symObjAddr: 0x9424, symBinAddr: 0x10000B55C, symSize: 0xE4 }
  - { offsetInCU: 0x7664C, offset: 0x7664C, size: 0x8, addend: 0x0, symName: __ZNKSt16initializer_listIiE3endEv, symObjAddr: 0x93EC, symBinAddr: 0x10000B524, symSize: 0x38 }
  - { offsetInCU: 0x76676, offset: 0x76676, size: 0x8, addend: 0x0, symName: __ZNKSt16initializer_listIiE5beginEv, symObjAddr: 0x93D4, symBinAddr: 0x10000B50C, symSize: 0x18 }
  - { offsetInCU: 0x766E8, offset: 0x766E8, size: 0x8, addend: 0x0, symName: __ZNSt12_Vector_baseIiSaIiEEC2ERKS0_, symObjAddr: 0x93AC, symBinAddr: 0x10000B4E4, symSize: 0x28 }
  - { offsetInCU: 0x76735, offset: 0x76735, size: 0x8, addend: 0x0, symName: __ZNSt15__new_allocatorIiED2Ev, symObjAddr: 0x9398, symBinAddr: 0x10000B4D0, symSize: 0x14 }
  - { offsetInCU: 0x76795, offset: 0x76795, size: 0x8, addend: 0x0, symName: __ZNSt15__new_allocatorImED2Ev, symObjAddr: 0x9384, symBinAddr: 0x10000B4BC, symSize: 0x14 }
  - { offsetInCU: 0x76818, offset: 0x76818, size: 0x8, addend: 0x0, symName: __ZNSt14__shared_countILN9__gnu_cxx12_Lock_policyE2EEC1ERKS2_, symObjAddr: 0x933C, symBinAddr: 0x10000B474, symSize: 0x48 }
  - { offsetInCU: 0x7680E, offset: 0x7680E, size: 0x8, addend: 0x0, symName: __ZNK8nlohmann16json_abi_v3_11_310basic_jsonISt3mapSt6vectorNSt7__cxx1112basic_stringIcSt11char_traitsIcESaIcEEEbxydSaNS0_14adl_serializerES3_IhSaIhEEvE16assert_invariantEb, symObjAddr: 0x913C, symBinAddr: 0x10000B274, symSize: 0x200 }
  - { offsetInCU: 0x7691D, offset: 0x7691D, size: 0x8, addend: 0x0, symName: __ZN8nlohmann16json_abi_v3_11_310basic_jsonISt3mapSt6vectorNSt7__cxx1112basic_stringIcSt11char_traitsIcESaIcEEEbxydSaNS0_14adl_serializerES3_IhSaIhEEvE4dataD1Ev, symObjAddr: 0x9108, symBinAddr: 0x10000B240, symSize: 0x34 }
  - { offsetInCU: 0x76969, offset: 0x76969, size: 0x8, addend: 0x0, symName: __ZN8nlohmann16json_abi_v3_11_310basic_jsonISt3mapSt6vectorNSt7__cxx1112basic_stringIcSt11char_traitsIcESaIcEEEbxydSaNS0_14adl_serializerES3_IhSaIhEEvEC1EOSD_, symObjAddr: 0x90A0, symBinAddr: 0x10000B1D8, symSize: 0x68 }
  - { offsetInCU: 0x768FE, offset: 0x768FE, size: 0x8, addend: 0x0, symName: __ZNK8nlohmann16json_abi_v3_11_36detail19json_sax_dom_parserINS0_10basic_jsonISt3mapSt6vectorNSt7__cxx1112basic_stringIcSt11char_traitsIcESaIcEEEbxydSaNS0_14adl_serializerES5_IhSaIhEEvEEE10is_erroredEv, symObjAddr: 0x9088, symBinAddr: 0x10000B1C0, symSize: 0x18 }
  - { offsetInCU: 0x76A06, offset: 0x76A06, size: 0x8, addend: 0x0, symName: __ZN8nlohmann16json_abi_v3_11_36detail19json_sax_dom_parserINS0_10basic_jsonISt3mapSt6vectorNSt7__cxx1112basic_stringIcSt11char_traitsIcESaIcEEEbxydSaNS0_14adl_serializerES5_IhSaIhEEvEEED1Ev, symObjAddr: 0x9064, symBinAddr: 0x10000B19C, symSize: 0x24 }
  - { offsetInCU: 0x76972, offset: 0x76972, size: 0x8, addend: 0x0, symName: __ZNK8nlohmann16json_abi_v3_11_310basic_jsonISt3mapSt6vectorNSt7__cxx1112basic_stringIcSt11char_traitsIcESaIcEEEbxydSaNS0_14adl_serializerES3_IhSaIhEEvE12is_discardedEv, symObjAddr: 0x9040, symBinAddr: 0x10000B178, symSize: 0x24 }
  - { offsetInCU: 0x7699C, offset: 0x7699C, size: 0x8, addend: 0x0, symName: __ZNK8nlohmann16json_abi_v3_11_36detail28json_sax_dom_callback_parserINS0_10basic_jsonISt3mapSt6vectorNSt7__cxx1112basic_stringIcSt11char_traitsIcESaIcEEEbxydSaNS0_14adl_serializerES5_IhSaIhEEvEEE10is_erroredEv, symObjAddr: 0x9028, symBinAddr: 0x10000B160, symSize: 0x18 }
  - { offsetInCU: 0x76A21, offset: 0x76A21, size: 0x8, addend: 0x0, symName: __ZN8nlohmann16json_abi_v3_11_36detail11parse_errorD0Ev, symObjAddr: 0x9000, symBinAddr: 0x10000B138, symSize: 0x28 }
  - { offsetInCU: 0x76A4B, offset: 0x76A4B, size: 0x8, addend: 0x0, symName: __ZN8nlohmann16json_abi_v3_11_36detail11parse_errorD1Ev, symObjAddr: 0x8FCC, symBinAddr: 0x10000B104, symSize: 0x34 }
  - { offsetInCU: 0x76B25, offset: 0x76B25, size: 0x8, addend: 0x0, symName: __ZN8nlohmann16json_abi_v3_11_36detail28json_sax_dom_callback_parserINS0_10basic_jsonISt3mapSt6vectorNSt7__cxx1112basic_stringIcSt11char_traitsIcESaIcEEEbxydSaNS0_14adl_serializerES5_IhSaIhEEvEEED1Ev, symObjAddr: 0x8F78, symBinAddr: 0x10000B0B0, symSize: 0x54 }
  - { offsetInCU: 0x76AC1, offset: 0x76AC1, size: 0x8, addend: 0x0, symName: __ZNSt6vectorIcSaIcEED1Ev, symObjAddr: 0x8F1C, symBinAddr: 0x10000B054, symSize: 0x5C }
  - { offsetInCU: 0x76BFA, offset: 0x76BFA, size: 0x8, addend: 0x0, symName: __ZNSt8functionIFbiN8nlohmann16json_abi_v3_11_36detail13parse_event_tERNS1_10basic_jsonISt3mapSt6vectorNSt7__cxx1112basic_stringIcSt11char_traitsIcESaIcEEEbxydSaNS1_14adl_serializerES6_IhSaIhEEvEEEEC1ERKSJ_, symObjAddr: 0x8E78, symBinAddr: 0x10000AFB0, symSize: 0xA4 }
  - { offsetInCU: 0x76B5F, offset: 0x76B5F, size: 0x8, addend: 0x0, symName: __ZNSt14__shared_countILN9__gnu_cxx12_Lock_policyE2EE7_M_swapERS2_, symObjAddr: 0x8E38, symBinAddr: 0x10000AF70, symSize: 0x40 }
  - { offsetInCU: 0x76BA7, offset: 0x76BA7, size: 0x8, addend: 0x0, symName: __ZNSt6chrono13duration_castINS_8durationIxSt5ratioILl1ELl1000000000EEEExS2_ILl1ELl1EEEENSt9enable_ifIXsrNS_13__is_durationIT_EE5valueES8_E4typeERKNS1_IT0_T1_EE, symObjAddr: 0x8E1C, symBinAddr: 0x10000AF54, symSize: 0x1C }
  - { offsetInCU: 0x76BFE, offset: 0x76BFE, size: 0x8, addend: 0x0, symName: __ZN8nlohmann16json_abi_v3_11_36detail11concat_intoINSt7__cxx1112basic_stringIcSt11char_traitsIcESaIcEEERA10_KcJS8_SB_S8_ELi0EEEvRT_OT0_DpOT1_, symObjAddr: 0x8DA4, symBinAddr: 0x10000AEDC, symSize: 0x78 }
  - { offsetInCU: 0x76C89, offset: 0x76C89, size: 0x8, addend: 0x0, symName: __ZSt7forwardIRA10_KcEOT_RNSt16remove_referenceIS3_E4typeE, symObjAddr: 0x8D90, symBinAddr: 0x10000AEC8, symSize: 0x14 }
  - { offsetInCU: 0x76CBB, offset: 0x76CBB, size: 0x8, addend: 0x0, symName: __ZN8nlohmann16json_abi_v3_11_36detail13concat_lengthIJNSt7__cxx1112basic_stringIcSt11char_traitsIcESaIcEEEA10_cS8_EEEmPKcDpRKT_, symObjAddr: 0x8D48, symBinAddr: 0x10000AE80, symSize: 0x48 }
  - { offsetInCU: 0x76D23, offset: 0x76D23, size: 0x8, addend: 0x0, symName: __ZN8nlohmann16json_abi_v3_11_36detail11concat_intoINSt7__cxx1112basic_stringIcSt11char_traitsIcESaIcEEERA17_KcJRKS8_cS8_RA3_S9_ELi0EEEvRT_OT0_DpOT1_, symObjAddr: 0x8CB4, symBinAddr: 0x10000ADEC, symSize: 0x94 }
  - { offsetInCU: 0x76DBC, offset: 0x76DBC, size: 0x8, addend: 0x0, symName: __ZSt7forwardIRA3_KcEOT_RNSt16remove_referenceIS3_E4typeE, symObjAddr: 0x8CA0, symBinAddr: 0x10000ADD8, symSize: 0x14 }
  - { offsetInCU: 0x76DF5, offset: 0x76DF5, size: 0x8, addend: 0x0, symName: __ZSt7forwardINSt7__cxx1112basic_stringIcSt11char_traitsIcESaIcEEEEOT_RNSt16remove_referenceIS6_E4typeE, symObjAddr: 0x8C8C, symBinAddr: 0x10000ADC4, symSize: 0x14 }
  - { offsetInCU: 0x76E2E, offset: 0x76E2E, size: 0x8, addend: 0x0, symName: __ZSt7forwardIRKNSt7__cxx1112basic_stringIcSt11char_traitsIcESaIcEEEEOT_RNSt16remove_referenceIS8_E4typeE, symObjAddr: 0x8C78, symBinAddr: 0x10000ADB0, symSize: 0x14 }
  - { offsetInCU: 0x76E67, offset: 0x76E67, size: 0x8, addend: 0x0, symName: __ZSt7forwardIRA17_KcEOT_RNSt16remove_referenceIS3_E4typeE, symObjAddr: 0x8C64, symBinAddr: 0x10000AD9C, symSize: 0x14 }
  - { offsetInCU: 0x76E99, offset: 0x76E99, size: 0x8, addend: 0x0, symName: __ZN8nlohmann16json_abi_v3_11_36detail13concat_lengthIJNSt7__cxx1112basic_stringIcSt11char_traitsIcESaIcEEEcS8_A3_cEEEmPKcDpRKT_, symObjAddr: 0x8C14, symBinAddr: 0x10000AD4C, symSize: 0x50 }
  - { offsetInCU: 0x76F0C, offset: 0x76F0C, size: 0x8, addend: 0x0, symName: __ZNSt16_Sp_counted_baseILN9__gnu_cxx12_Lock_policyE2EE19_M_release_last_useEv, symObjAddr: 0x8B24, symBinAddr: 0x10000AC5C, symSize: 0xF0 }
  - { offsetInCU: 0x77037, offset: 0x77037, size: 0x8, addend: 0x0, symName: __ZNSt16_Sp_counted_baseILN9__gnu_cxx12_Lock_policyE2EED2Ev, symObjAddr: 0x8AFC, symBinAddr: 0x10000AC34, symSize: 0x28 }
  - { offsetInCU: 0x77026, offset: 0x77026, size: 0x8, addend: 0x0, symName: __ZNSt7__cxx1112basic_stringIcSt11char_traitsIcESaIcEE12_M_constructIPKcEEvT_S8_St20forward_iterator_tag, symObjAddr: 0x89FC, symBinAddr: 0x10000AB34, symSize: 0x100 }
  - { offsetInCU: 0x771A5, offset: 0x771A5, size: 0x8, addend: 0x0, symName: __ZZNSt7__cxx1112basic_stringIcSt11char_traitsIcESaIcEE12_M_constructIPKcEEvT_S8_St20forward_iterator_tagEN6_GuardC1EPS4_, symObjAddr: 0x89A4, symBinAddr: 0x10000AADC, symSize: 0x24 }
  - { offsetInCU: 0x771D5, offset: 0x771D5, size: 0x8, addend: 0x0, symName: __ZZNSt7__cxx1112basic_stringIcSt11char_traitsIcESaIcEE12_M_constructIPKcEEvT_S8_St20forward_iterator_tagEN6_GuardD1Ev, symObjAddr: 0x89C8, symBinAddr: 0x10000AB00, symSize: 0x34 }
  - { offsetInCU: 0x7727D, offset: 0x7727D, size: 0x8, addend: 0x0, symName: __ZNSt15__new_allocatorIcED2Ev, symObjAddr: 0x8990, symBinAddr: 0x10000AAC8, symSize: 0x14 }
  - { offsetInCU: 0x772B8, offset: 0x772B8, size: 0x8, addend: 0x0, symName: __ZSt4moveIRZNSt7__cxx119to_stringEmEUlPcmE_EONSt16remove_referenceIT_E4typeEOS5_, symObjAddr: 0x897C, symBinAddr: 0x10000AAB4, symSize: 0x14 }
  - { offsetInCU: 0x772F1, offset: 0x772F1, size: 0x8, addend: 0x0, symName: __ZSt4moveIRZNSt7__cxx119to_stringEiEUlPcmE_EONSt16remove_referenceIT_E4typeEOS5_, symObjAddr: 0x8968, symBinAddr: 0x10000AAA0, symSize: 0x14 }
  - { offsetInCU: 0x77339, offset: 0x77339, size: 0x8, addend: 0x0, symName: __ZN9__gnu_cxx11char_traitsIcE2eqERKcS3_, symObjAddr: 0x8938, symBinAddr: 0x10000AA70, symSize: 0x30 }
  - { offsetInCU: 0x77379, offset: 0x77379, size: 0x8, addend: 0x0, symName: __ZSt7forwardIbEOT_RNSt16remove_referenceIS0_E4typeE, symObjAddr: 0x8924, symBinAddr: 0x10000AA5C, symSize: 0x14 }
  - { offsetInCU: 0x773AF, offset: 0x773AF, size: 0x8, addend: 0x0, symName: __ZNK8nlohmann16json_abi_v3_11_310basic_jsonISt3mapSt6vectorNSt7__cxx1112basic_stringIcSt11char_traitsIcESaIcEEEbxydSaNS0_14adl_serializerES3_IhSaIhEEvE4dumpEicbNS0_6detail15error_handler_tE, symObjAddr: 0x87F8, symBinAddr: 0x10000A930, symSize: 0x12C }
  - { offsetInCU: 0x7751A, offset: 0x7751A, size: 0x8, addend: 0x0, symName: __ZN8nlohmann16json_abi_v3_11_36detail10serializerINS0_10basic_jsonISt3mapSt6vectorNSt7__cxx1112basic_stringIcSt11char_traitsIcESaIcEEEbxydSaNS0_14adl_serializerES5_IhSaIhEEvEEED1Ev, symObjAddr: 0x87CC, symBinAddr: 0x10000A904, symSize: 0x2C }
  - { offsetInCU: 0x77524, offset: 0x77524, size: 0x8, addend: 0x0, symName: __ZN8nlohmann16json_abi_v3_11_36detail14output_adapterIcNSt7__cxx1112basic_stringIcSt11char_traitsIcESaIcEEEED1Ev, symObjAddr: 0x87AC, symBinAddr: 0x10000A8E4, symSize: 0x20 }
  - { offsetInCU: 0x77558, offset: 0x77558, size: 0x8, addend: 0x0, symName: __ZNSt10shared_ptrIN8nlohmann16json_abi_v3_11_36detail23output_adapter_protocolIcEEED1Ev, symObjAddr: 0x878C, symBinAddr: 0x10000A8C4, symSize: 0x20 }
  - { offsetInCU: 0x775C1, offset: 0x775C1, size: 0x8, addend: 0x0, symName: __ZNSt12__shared_ptrIN8nlohmann16json_abi_v3_11_36detail23output_adapter_protocolIcEELN9__gnu_cxx12_Lock_policyE2EED2Ev, symObjAddr: 0x8768, symBinAddr: 0x10000A8A0, symSize: 0x24 }
  - { offsetInCU: 0x7763E, offset: 0x7763E, size: 0x8, addend: 0x0, symName: __ZN8nlohmann16json_abi_v3_11_310basic_jsonISt3mapSt6vectorNSt7__cxx1112basic_stringIcSt11char_traitsIcESaIcEEEbxydSaNS0_14adl_serializerES3_IhSaIhEEvEC1ERKSD_, symObjAddr: 0x8564, symBinAddr: 0x10000A69C, symSize: 0x204 }
  - { offsetInCU: 0x775DB, offset: 0x775DB, size: 0x8, addend: 0x0, symName: __ZNSt6vectorISt4pairIiS0_IiiEESaIS2_EEixEm, symObjAddr: 0x8530, symBinAddr: 0x10000A668, symSize: 0x34 }
  - { offsetInCU: 0x77612, offset: 0x77612, size: 0x8, addend: 0x0, symName: __ZSt4sortIN9__gnu_cxx17__normal_iteratorIPSt4pairIiS2_IiiEESt6vectorIS4_SaIS4_EEEEEvT_SA_, symObjAddr: 0x84F8, symBinAddr: 0x10000A630, symSize: 0x38 }
  - { offsetInCU: 0x7765A, offset: 0x7765A, size: 0x8, addend: 0x0, symName: __ZNSt6vectorISt4pairIiS0_IiiEESaIS2_EE3endEv, symObjAddr: 0x84D0, symBinAddr: 0x10000A608, symSize: 0x28 }
  - { offsetInCU: 0x77684, offset: 0x77684, size: 0x8, addend: 0x0, symName: __ZNSt6vectorISt4pairIiS0_IiiEESaIS2_EE5beginEv, symObjAddr: 0x84AC, symBinAddr: 0x10000A5E4, symSize: 0x24 }
  - { offsetInCU: 0x776AE, offset: 0x776AE, size: 0x8, addend: 0x0, symName: __ZNSt6vectorISt4pairIiS0_IiiEESaIS2_EE9push_backEOS2_, symObjAddr: 0x847C, symBinAddr: 0x10000A5B4, symSize: 0x30 }
  - { offsetInCU: 0x7774D, offset: 0x7774D, size: 0x8, addend: 0x0, symName: __ZNSt4pairIiS_IiiEEC1IiS_IxxELb1EEEOS_IT_T0_E, symObjAddr: 0x8424, symBinAddr: 0x10000A55C, symSize: 0x58 }
  - { offsetInCU: 0x777BE, offset: 0x777BE, size: 0x8, addend: 0x0, symName: __ZNSt4pairIiiEC1IxxLb1EEEOS_IT_T0_E, symObjAddr: 0x83D4, symBinAddr: 0x10000A50C, symSize: 0x50 }
  - { offsetInCU: 0x777E2, offset: 0x777E2, size: 0x8, addend: 0x0, symName: __ZSt7forwardIxEOT_RNSt16remove_referenceIS0_E4typeE, symObjAddr: 0x83C0, symBinAddr: 0x10000A4F8, symSize: 0x14 }
  - { offsetInCU: 0x7781B, offset: 0x7781B, size: 0x8, addend: 0x0, symName: __ZSt7forwardISt4pairIxxEEOT_RNSt16remove_referenceIS2_E4typeE, symObjAddr: 0x83AC, symBinAddr: 0x10000A4E4, symSize: 0x14 }
  - { offsetInCU: 0x7784D, offset: 0x7784D, size: 0x8, addend: 0x0, symName: __ZSt9make_pairIRiSt4pairIxxEES1_INSt25__strip_reference_wrapperINSt5decayIT_E4typeEE6__typeENS3_INS4_IT0_E4typeEE6__typeEEOS5_OSA_, symObjAddr: 0x8364, symBinAddr: 0x10000A49C, symSize: 0x48 }
  - { offsetInCU: 0x7789A, offset: 0x7789A, size: 0x8, addend: 0x0, symName: __ZSt9make_pairIRxS0_ESt4pairINSt25__strip_reference_wrapperINSt5decayIT_E4typeEE6__typeENS2_INS3_IT0_E4typeEE6__typeEEOS4_OS9_, symObjAddr: 0x8318, symBinAddr: 0x10000A450, symSize: 0x4C }
  - { offsetInCU: 0x77936, offset: 0x77936, size: 0x8, addend: 0x0, symName: __ZNSt6vectorISt4pairIiS0_IiiEESaIS2_EED1Ev, symObjAddr: 0x82BC, symBinAddr: 0x10000A3F4, symSize: 0x5C }
  - { offsetInCU: 0x779BD, offset: 0x779BD, size: 0x8, addend: 0x0, symName: __ZNSt12_Vector_baseISt4pairIiS0_IiiEESaIS2_EED2Ev, symObjAddr: 0x8260, symBinAddr: 0x10000A398, symSize: 0x5C }
  - { offsetInCU: 0x77A2B, offset: 0x77A2B, size: 0x8, addend: 0x0, symName: __ZNSt12_Vector_baseISt4pairIiS0_IiiEESaIS2_EE12_Vector_implC1Ev, symObjAddr: 0x8228, symBinAddr: 0x10000A360, symSize: 0x38 }
  - { offsetInCU: 0x77A5B, offset: 0x77A5B, size: 0x8, addend: 0x0, symName: __ZNKSt6vectorIiSaIiEE4sizeEv, symObjAddr: 0x8200, symBinAddr: 0x10000A338, symSize: 0x28 }
  - { offsetInCU: 0x77A85, offset: 0x77A85, size: 0x8, addend: 0x0, symName: __ZNKSt6vectorIS_IiSaIiEESaIS1_EE4sizeEv, symObjAddr: 0x81CC, symBinAddr: 0x10000A304, symSize: 0x34 }
  - { offsetInCU: 0x77B01, offset: 0x77B01, size: 0x8, addend: 0x0, symName: __ZNSt12_Vector_baseISt6vectorIiSaIiEESaIS2_EED2Ev, symObjAddr: 0x8170, symBinAddr: 0x10000A2A8, symSize: 0x5C }
  - { offsetInCU: 0x77B4F, offset: 0x77B4F, size: 0x8, addend: 0x0, symName: __ZNSt12_Vector_baseISt6vectorIiSaIiEESaIS2_EE12_Vector_implC1Ev, symObjAddr: 0x8138, symBinAddr: 0x10000A270, symSize: 0x38 }
  - { offsetInCU: 0x77B7B, offset: 0x77B7B, size: 0x8, addend: 0x0, symName: __ZN8nlohmann16json_abi_v3_11_310basic_jsonISt3mapSt6vectorNSt7__cxx1112basic_stringIcSt11char_traitsIcESaIcEEEbxydSaNS0_14adl_serializerES3_IhSaIhEEvE5parseIRS9_EESD_OT_St8functionIFbiNS0_6detail13parse_event_tERSD_EEbb, symObjAddr: 0x8044, symBinAddr: 0x10000A17C, symSize: 0xF4 }
  - { offsetInCU: 0x77D15, offset: 0x77D15, size: 0x8, addend: 0x0, symName: __ZN8nlohmann16json_abi_v3_11_36detail6parserINS0_10basic_jsonISt3mapSt6vectorNSt7__cxx1112basic_stringIcSt11char_traitsIcESaIcEEEbxydSaNS0_14adl_serializerES5_IhSaIhEEvEENS1_22iterator_input_adapterIN9__gnu_cxx17__normal_iteratorIPKcSB_EEEEED1Ev, symObjAddr: 0x8018, symBinAddr: 0x10000A150, symSize: 0x2C }
  - { offsetInCU: 0x77D5E, offset: 0x77D5E, size: 0x8, addend: 0x0, symName: __ZN8nlohmann16json_abi_v3_11_36detail5lexerINS0_10basic_jsonISt3mapSt6vectorNSt7__cxx1112basic_stringIcSt11char_traitsIcESaIcEEEbxydSaNS0_14adl_serializerES5_IhSaIhEEvEENS1_22iterator_input_adapterIN9__gnu_cxx17__normal_iteratorIPKcSB_EEEEED1Ev, symObjAddr: 0x7FE8, symBinAddr: 0x10000A120, symSize: 0x30 }
  - { offsetInCU: 0x77D3F, offset: 0x77D3F, size: 0x8, addend: 0x0, symName: __ZNSt7__cxx1112basic_stringIcSt11char_traitsIcESaIcEEC1ISt19istreambuf_iteratorIcS2_EvEET_S8_RKS3_, symObjAddr: 0x7F6C, symBinAddr: 0x10000A0A4, symSize: 0x7C }
  - { offsetInCU: 0x77D95, offset: 0x77D95, size: 0x8, addend: 0x0, symName: __ZNSt19istreambuf_iteratorIcSt11char_traitsIcEEC1Ev, symObjAddr: 0x7F3C, symBinAddr: 0x10000A074, symSize: 0x30 }
  - { offsetInCU: 0x77DE4, offset: 0x77DE4, size: 0x8, addend: 0x0, symName: __ZNSt19istreambuf_iteratorIcSt11char_traitsIcEEC1ERSi, symObjAddr: 0x7EE4, symBinAddr: 0x10000A01C, symSize: 0x58 }
  - { offsetInCU: 0x77DE4, offset: 0x77DE4, size: 0x8, addend: 0x0, symName: __ZNSt11this_thread9sleep_forIxSt5ratioILl1ELl1EEEEvRKNSt6chrono8durationIT_T0_EE, symObjAddr: 0x7E20, symBinAddr: 0x100009F58, symSize: 0xC4 }
  - { offsetInCU: 0x77E4F, offset: 0x77E4F, size: 0x8, addend: 0x0, symName: __ZNSt6chronomiIxSt5ratioILl1ELl1EExS2_EENSt11common_typeIJNS_8durationIT_T0_EENS4_IT1_T2_EEEE4typeERKS7_RKSA_, symObjAddr: 0x7DBC, symBinAddr: 0x100009EF4, symSize: 0x64 }
  - { offsetInCU: 0x77EBB, offset: 0x77EBB, size: 0x8, addend: 0x0, symName: __ZNSt6chrono13duration_castINS_8durationIxSt5ratioILl1ELl1EEEExS3_EENSt9enable_ifIXsrNS_13__is_durationIT_EE5valueES7_E4typeERKNS1_IT0_T1_EE, symObjAddr: 0x7DA4, symBinAddr: 0x100009EDC, symSize: 0x18 }
  - { offsetInCU: 0x77F00, offset: 0x77F00, size: 0x8, addend: 0x0, symName: __ZNSt6chronoltIxSt5ratioILl1ELl1EExS2_EEbRKNS_8durationIT_T0_EERKNS3_IT1_T2_EE, symObjAddr: 0x7D4C, symBinAddr: 0x100009E84, symSize: 0x58 }
  - { offsetInCU: 0x77F6C, offset: 0x77F6C, size: 0x8, addend: 0x0, symName: __ZNSt6chronoleIxSt5ratioILl1ELl1EExS2_EEbRKNS_8durationIT_T0_EERKNS3_IT1_T2_EE, symObjAddr: 0x7D20, symBinAddr: 0x100009E58, symSize: 0x2C }
  - { offsetInCU: 0x78032, offset: 0x78032, size: 0x8, addend: 0x0, symName: __ZNSt6chrono8durationIxSt5ratioILl1ELl1EEEC1IxvEERKT_, symObjAddr: 0x7CF8, symBinAddr: 0x100009E30, symSize: 0x28 }
  - { offsetInCU: 0x78035, offset: 0x78035, size: 0x8, addend: 0x0, symName: __ZNSt6chrono8durationIxSt5ratioILl1ELl1EEE4zeroEv, symObjAddr: 0x7CD0, symBinAddr: 0x100009E08, symSize: 0x28 }
  - { offsetInCU: 0x780B3, offset: 0x780B3, size: 0x8, addend: 0x0, symName: __ZNSt6chrono8durationIxSt5ratioILl1ELl1EEEC1IivEERKT_, symObjAddr: 0x7CA4, symBinAddr: 0x100009DDC, symSize: 0x2C }
  - { offsetInCU: 0x780B9, offset: 0x780B9, size: 0x8, addend: 0x0, symName: __ZNSt6vectorIiSaIiEEixEm, symObjAddr: 0x7C7C, symBinAddr: 0x100009DB4, symSize: 0x28 }
  - { offsetInCU: 0x780F4, offset: 0x780F4, size: 0x8, addend: 0x0, symName: __ZNSt6vectorIiSaIiEE6insertIN9__gnu_cxx17__normal_iteratorIPiS1_EEvEES6_NS4_IPKiS1_EET_SA_, symObjAddr: 0x7BEC, symBinAddr: 0x100009D24, symSize: 0x90 }
  - { offsetInCU: 0x7818E, offset: 0x7818E, size: 0x8, addend: 0x0, symName: __ZNSt6vectorIiSaIiEE5eraseEN9__gnu_cxx17__normal_iteratorIPKiS1_EES6_, symObjAddr: 0x7B6C, symBinAddr: 0x100009CA4, symSize: 0x80 }
  - { offsetInCU: 0x78276, offset: 0x78276, size: 0x8, addend: 0x0, symName: __ZN9__gnu_cxx17__normal_iteratorIPKiSt6vectorIiSaIiEEEC1IPivEERKNS0_IT_S5_EE, symObjAddr: 0x7B3C, symBinAddr: 0x100009C74, symSize: 0x30 }
  - { offsetInCU: 0x78261, offset: 0x78261, size: 0x8, addend: 0x0, symName: __ZSt4copyIN9__gnu_cxx17__normal_iteratorIPiSt6vectorIiSaIiEEEES6_ET0_T_S8_S7_, symObjAddr: 0x7AF4, symBinAddr: 0x100009C2C, symSize: 0x48 }
