---
triple:          'arm64-apple-darwin'
binary-path:     '/Users/tarabakz25/Downloads/KyogiProcon/sortAlgorithm2/main'
relocations:
  - { offsetInCU: 0x3B302, offset: 0x3B302, size: 0x8, addend: 0x0, symName: __ZStL8__ioinit, symObjAddr: 0x3B8178, symBinAddr: 0x100050004, symSize: 0x0 }
  - { offsetInCU: 0x4272C, offset: 0x4272C, size: 0x8, addend: 0x0, symName: __ZN8nlohmann16json_abi_v3_11_36detail12static_constINS1_12from_json_fnEE5valueE, symObjAddr: 0x2A1B9, symBinAddr: 0x100030F79, symSize: 0x0 }
  - { offsetInCU: 0x42824, offset: 0x42824, size: 0x8, addend: 0x0, symName: __ZN8nlohmann16json_abi_v3_11_36detail12static_constINS1_10to_json_fnEE5valueE, symObjAddr: 0x2A1BA, symBinAddr: 0x100030F7A, symSize: 0x0 }
  - { offsetInCU: 0x431AB, offset: 0x431AB, size: 0x8, addend: 0x0, symName: _counter, symObjAddr: 0x3B8180, symBinAddr: 0x100050008, symSize: 0x0 }
  - { offsetInCU: 0x431BE, offset: 0x431BE, size: 0x8, addend: 0x0, symName: _matchRate, symObjAddr: 0x3B8188, symBinAddr: 0x100050010, symSize: 0x0 }
  - { offsetInCU: 0x431D8, offset: 0x431D8, size: 0x8, addend: 0x0, symName: _HEIGHT, symObjAddr: 0x3B8190, symBinAddr: 0x100050018, symSize: 0x0 }
  - { offsetInCU: 0x431EE, offset: 0x431EE, size: 0x8, addend: 0x0, symName: _WIDTH, symObjAddr: 0x3B8194, symBinAddr: 0x10005001C, symSize: 0x0 }
  - { offsetInCU: 0x4320E, offset: 0x4320E, size: 0x8, addend: 0x0, symName: _use_samplefile, symObjAddr: 0x2CDCC, symBinAddr: 0x100050000, symSize: 0x0 }
  - { offsetInCU: 0x4321C, offset: 0x4321C, size: 0x8, addend: 0x0, symName: _start, symObjAddr: 0x3B8198, symBinAddr: 0x100050020, symSize: 0x0 }
  - { offsetInCU: 0x43231, offset: 0x43231, size: 0x8, addend: 0x0, symName: _end, symObjAddr: 0x3B81A0, symBinAddr: 0x100050028, symSize: 0x0 }
  - { offsetInCU: 0x4324C, offset: 0x4324C, size: 0x8, addend: 0x0, symName: _updated, symObjAddr: 0x3B81A8, symBinAddr: 0x100050030, symSize: 0x0 }
  - { offsetInCU: 0x43262, offset: 0x43262, size: 0x8, addend: 0x0, symName: _number, symObjAddr: 0x3B81B0, symBinAddr: 0x100050038, symSize: 0x0 }
  - { offsetInCU: 0x432B1, offset: 0x432B1, size: 0x8, addend: 0x0, symName: __Z7answersB5cxx11, symObjAddr: 0x3B81C8, symBinAddr: 0x100050050, symSize: 0x0 }
  - { offsetInCU: 0x43477, offset: 0x43477, size: 0x8, addend: 0x0, symName: _all1_nukigata, symObjAddr: 0x3B81D8, symBinAddr: 0x100050060, symSize: 0x0 }
  - { offsetInCU: 0x45163, offset: 0x45163, size: 0x8, addend: 0x0, symName: __ZNSt3mapIiSt6vectorIS0_IiSaIiEESaIS2_EESt4lessIiESaISt4pairIKiS4_EEED1Ev, symObjAddr: 0x2A198, symBinAddr: 0x10002C0DC, symSize: 0x20 }
  - { offsetInCU: 0x4513F, offset: 0x4513F, size: 0x8, addend: 0x0, symName: __ZNSt11__copy_moveILb0ELb0ESt26random_access_iterator_tagE12__assign_oneIhKhEEvPT_PT0_, symObjAddr: 0x2A170, symBinAddr: 0x10002C0B4, symSize: 0x28 }
  - { offsetInCU: 0x4529B, offset: 0x4529B, size: 0x8, addend: 0x0, symName: __ZNSt4pairIKNSt7__cxx1112basic_stringIcSt11char_traitsIcESaIcEEEN8nlohmann16json_abi_v3_11_310basic_jsonISt3mapSt6vectorS5_bxydSaNS8_14adl_serializerESB_IhSaIhEEvEEEC1ERKSG_, symObjAddr: 0x2A110, symBinAddr: 0x10002C054, symSize: 0x60 }
  - { offsetInCU: 0x4521C, offset: 0x4521C, size: 0x8, addend: 0x0, symName: __ZNSt11__copy_moveILb0ELb1ESt26random_access_iterator_tagE8__copy_mIKhhEEPT0_PT_S7_S5_, symObjAddr: 0x2A08C, symBinAddr: 0x10002BFD0, symSize: 0x84 }
  - { offsetInCU: 0x452CF, offset: 0x452CF, size: 0x8, addend: 0x0, symName: __ZNSt10_Head_baseILm0ERKNSt7__cxx1112basic_stringIcSt11char_traitsIcESaIcEEELb0EE7_M_headERS8_, symObjAddr: 0x2A074, symBinAddr: 0x10002BFB8, symSize: 0x18 }
  - { offsetInCU: 0x452F8, offset: 0x452F8, size: 0x8, addend: 0x0, symName: __ZSt14__copy_move_a2ILb0EPKhPhET1_T0_S4_S3_, symObjAddr: 0x2A048, symBinAddr: 0x10002BF8C, symSize: 0x2C }
  - { offsetInCU: 0x45364, offset: 0x45364, size: 0x8, addend: 0x0, symName: __ZNK9__gnu_cxx17__normal_iteratorIPKhSt6vectorIhSaIhEEE4baseEv, symObjAddr: 0x2A034, symBinAddr: 0x10002BF78, symSize: 0x14 }
  - { offsetInCU: 0x4538E, offset: 0x4538E, size: 0x8, addend: 0x0, symName: __ZNSt8_Rb_treeINSt7__cxx1112basic_stringIcSt11char_traitsIcESaIcEEESt4pairIKS5_N8nlohmann16json_abi_v3_11_310basic_jsonISt3mapSt6vectorS5_bxydSaNS9_14adl_serializerESC_IhSaIhEEvEEESt10_Select1stISH_ESt4lessIvESaISH_EE17_M_construct_nodeIJRKSH_EEEvPSt13_Rb_tree_nodeISH_EDpOT_, symObjAddr: 0x29F30, symBinAddr: 0x10002BE74, symSize: 0x104 }
  - { offsetInCU: 0x45445, offset: 0x45445, size: 0x8, addend: 0x0, symName: __ZNSt11_Tuple_implILm0EJRKNSt7__cxx1112basic_stringIcSt11char_traitsIcESaIcEEEEE7_M_headERS8_, symObjAddr: 0x29F14, symBinAddr: 0x10002BE58, symSize: 0x1C }
  - { offsetInCU: 0x4546F, offset: 0x4546F, size: 0x8, addend: 0x0, symName: __ZSt12__niter_wrapIPhET_RKS1_S1_, symObjAddr: 0x29EFC, symBinAddr: 0x10002BE40, symSize: 0x18 }
  - { offsetInCU: 0x454AB, offset: 0x454AB, size: 0x8, addend: 0x0, symName: __ZSt14__copy_move_a1ILb0EPKhPhET1_T0_S4_S3_, symObjAddr: 0x29ED0, symBinAddr: 0x10002BE14, symSize: 0x2C }
  - { offsetInCU: 0x45513, offset: 0x45513, size: 0x8, addend: 0x0, symName: __ZSt12__niter_baseIPhET_S1_, symObjAddr: 0x29EBC, symBinAddr: 0x10002BE00, symSize: 0x14 }
  - { offsetInCU: 0x45546, offset: 0x45546, size: 0x8, addend: 0x0, symName: __ZSt12__niter_baseIPKhSt6vectorIhSaIhEEET_N9__gnu_cxx17__normal_iteratorIS5_T0_EE, symObjAddr: 0x29E9C, symBinAddr: 0x10002BDE0, symSize: 0x20 }
  - { offsetInCU: 0x45586, offset: 0x45586, size: 0x8, addend: 0x0, symName: __ZNSt8_Rb_treeINSt7__cxx1112basic_stringIcSt11char_traitsIcESaIcEEESt4pairIKS5_N8nlohmann16json_abi_v3_11_310basic_jsonISt3mapSt6vectorS5_bxydSaNS9_14adl_serializerESC_IhSaIhEEvEEESt10_Select1stISH_ESt4lessIvESaISH_EE14_M_create_nodeIJRKSH_EEEPSt13_Rb_tree_nodeISH_EDpOT_, symObjAddr: 0x29E5C, symBinAddr: 0x10002BDA0, symSize: 0x40 }
  - { offsetInCU: 0x455D8, offset: 0x455D8, size: 0x8, addend: 0x0, symName: __ZSt12__get_helperILm0ERKNSt7__cxx1112basic_stringIcSt11char_traitsIcESaIcEEEJEERT0_RSt11_Tuple_implIXT_EJS8_DpT1_EE, symObjAddr: 0x29E40, symBinAddr: 0x10002BD84, symSize: 0x1C }
  - { offsetInCU: 0x4561A, offset: 0x4561A, size: 0x8, addend: 0x0, symName: __ZSt13__copy_move_aILb0EN9__gnu_cxx17__normal_iteratorIPKhSt6vectorIhSaIhEEEEPhET1_T0_SA_S9_, symObjAddr: 0x29DE0, symBinAddr: 0x10002BD24, symSize: 0x60 }
  - { offsetInCU: 0x45682, offset: 0x45682, size: 0x8, addend: 0x0, symName: __ZSt12__miter_baseIN9__gnu_cxx17__normal_iteratorIPKhSt6vectorIhSaIhEEEEET_S8_, symObjAddr: 0x29DCC, symBinAddr: 0x10002BD10, symSize: 0x14 }
  - { offsetInCU: 0x456B9, offset: 0x456B9, size: 0x8, addend: 0x0, symName: __ZNSt15__new_allocatorIhE8allocateEmPKv, symObjAddr: 0x29D68, symBinAddr: 0x10002BCAC, symSize: 0x64 }
  - { offsetInCU: 0x45741, offset: 0x45741, size: 0x8, addend: 0x0, symName: __ZSt10_ConstructIN8nlohmann16json_abi_v3_11_310basic_jsonISt3mapSt6vectorNSt7__cxx1112basic_stringIcSt11char_traitsIcESaIcEEEbxydSaNS1_14adl_serializerES4_IhSaIhEEvEEJRKSE_EEvPT_DpOT0_, symObjAddr: 0x29CEC, symBinAddr: 0x10002BC30, symSize: 0x7C }
  - { offsetInCU: 0x45791, offset: 0x45791, size: 0x8, addend: 0x0, symName: __ZNK9__gnu_cxx17__normal_iteratorIPKN8nlohmann16json_abi_v3_11_310basic_jsonISt3mapSt6vectorNSt7__cxx1112basic_stringIcSt11char_traitsIcESaIcEEEbxydSaNS2_14adl_serializerES5_IhSaIhEEvEES5_ISF_SaISF_EEEdeEv, symObjAddr: 0x29CD4, symBinAddr: 0x10002BC18, symSize: 0x18 }
  - { offsetInCU: 0x457BB, offset: 0x457BB, size: 0x8, addend: 0x0, symName: __ZN9__gnu_cxx17__normal_iteratorIPKN8nlohmann16json_abi_v3_11_310basic_jsonISt3mapSt6vectorNSt7__cxx1112basic_stringIcSt11char_traitsIcESaIcEEEbxydSaNS2_14adl_serializerES5_IhSaIhEEvEES5_ISF_SaISF_EEEppEv, symObjAddr: 0x29CAC, symBinAddr: 0x10002BBF0, symSize: 0x28 }
  - { offsetInCU: 0x457E7, offset: 0x457E7, size: 0x8, addend: 0x0, symName: __ZN9__gnu_cxxneIPKN8nlohmann16json_abi_v3_11_310basic_jsonISt3mapSt6vectorNSt7__cxx1112basic_stringIcSt11char_traitsIcESaIcEEEbxydSaNS2_14adl_serializerES5_IhSaIhEEvEES5_ISF_SaISF_EEEEbRKNS_17__normal_iteratorIT_T0_EESP_, symObjAddr: 0x29C68, symBinAddr: 0x10002BBAC, symSize: 0x44 }
  - { offsetInCU: 0x45844, offset: 0x45844, size: 0x8, addend: 0x0, symName: __ZNKSt8_Rb_treeINSt7__cxx1112basic_stringIcSt11char_traitsIcESaIcEEESt4pairIKS5_N8nlohmann16json_abi_v3_11_310basic_jsonISt3mapSt6vectorS5_bxydSaNS9_14adl_serializerESC_IhSaIhEEvEEESt10_Select1stISH_ESt4lessIvESaISH_EE11_Alloc_nodeclIRKSH_EEPSt13_Rb_tree_nodeISH_EOT_, symObjAddr: 0x29C2C, symBinAddr: 0x10002BB70, symSize: 0x3C }
  - { offsetInCU: 0x4588A, offset: 0x4588A, size: 0x8, addend: 0x0, symName: __ZSt7forwardIRKSt4pairIKNSt7__cxx1112basic_stringIcSt11char_traitsIcESaIcEEEN8nlohmann16json_abi_v3_11_310basic_jsonISt3mapSt6vectorS6_bxydSaNS9_14adl_serializerESC_IhSaIhEEvEEEEOT_RNSt16remove_referenceISK_E4typeE, symObjAddr: 0x29C18, symBinAddr: 0x10002BB5C, symSize: 0x14 }
  - { offsetInCU: 0x458BC, offset: 0x458BC, size: 0x8, addend: 0x0, symName: __ZSt3getILm0EJRKNSt7__cxx1112basic_stringIcSt11char_traitsIcESaIcEEEEERNSt13tuple_elementIXT_ESt5tupleIJDpT0_EEE4typeERSC_, symObjAddr: 0x29BFC, symBinAddr: 0x10002BB40, symSize: 0x1C }
  - { offsetInCU: 0x458FB, offset: 0x458FB, size: 0x8, addend: 0x0, symName: __ZNSt11__copy_moveILb0ELb0ESt26random_access_iterator_tagE12__assign_oneIiiEEvPT_PT0_, symObjAddr: 0x29BD4, symBinAddr: 0x10002BB18, symSize: 0x28 }
  - { offsetInCU: 0x45948, offset: 0x45948, size: 0x8, addend: 0x0, symName: __ZNSt10_Head_baseILm0ERKiLb0EE7_M_headERS2_, symObjAddr: 0x29BBC, symBinAddr: 0x10002BB00, symSize: 0x18 }
  - { offsetInCU: 0x45A60, offset: 0x45A60, size: 0x8, addend: 0x0, symName: __ZN8nlohmann16json_abi_v3_11_310basic_jsonISt3mapSt6vectorNSt7__cxx1112basic_stringIcSt11char_traitsIcESaIcEEEbxydSaNS0_14adl_serializerES3_IhSaIhEEvEC1INS0_6detail8json_refISD_EELi0EEERKT_, symObjAddr: 0x29B90, symBinAddr: 0x10002BAD4, symSize: 0x2C }
  - { offsetInCU: 0x459E0, offset: 0x459E0, size: 0x8, addend: 0x0, symName: __ZSt7forwardIRKN8nlohmann16json_abi_v3_11_36detail8json_refINS1_10basic_jsonISt3mapSt6vectorNSt7__cxx1112basic_stringIcSt11char_traitsIcESaIcEEEbxydSaNS1_14adl_serializerES6_IhSaIhEEvEEEEEOT_RNSt16remove_referenceISK_E4typeE, symObjAddr: 0x29B7C, symBinAddr: 0x10002BAC0, symSize: 0x14 }
  - { offsetInCU: 0x45A12, offset: 0x45A12, size: 0x8, addend: 0x0, symName: __ZSt4copyIN9__gnu_cxx17__normal_iteratorIPKhSt6vectorIhSaIhEEEEPhET0_T_SA_S9_, symObjAddr: 0x29B34, symBinAddr: 0x10002BA78, symSize: 0x48 }
  - { offsetInCU: 0x45AAF, offset: 0x45AAF, size: 0x8, addend: 0x0, symName: __ZNSt10_Head_baseILm1EZN8nlohmann16json_abi_v3_11_310basic_jsonISt3mapSt6vectorNSt7__cxx1112basic_stringIcSt11char_traitsIcESaIcEEEbxydSaNS1_14adl_serializerES4_IhSaIhEEvE6createINS1_27byte_container_with_subtypeISD_EEJRKSH_EEEPT_DpOT0_EUlPSH_E_Lb0EE7_M_headERSR_, symObjAddr: 0x29B20, symBinAddr: 0x10002BA64, symSize: 0x14 }
  - { offsetInCU: 0x45AD8, offset: 0x45AD8, size: 0x8, addend: 0x0, symName: __ZNSt10_Head_baseILm1EZN8nlohmann16json_abi_v3_11_310basic_jsonISt3mapSt6vectorNSt7__cxx1112basic_stringIcSt11char_traitsIcESaIcEEEbxydSaNS1_14adl_serializerES4_IhSaIhEEvE6createISA_JRKSA_EEEPT_DpOT0_EUlPSA_E_Lb0EE7_M_headERSP_, symObjAddr: 0x29B0C, symBinAddr: 0x10002BA50, symSize: 0x14 }
  - { offsetInCU: 0x45B01, offset: 0x45B01, size: 0x8, addend: 0x0, symName: __ZSt16__do_uninit_copyIN9__gnu_cxx17__normal_iteratorIPKN8nlohmann16json_abi_v3_11_310basic_jsonISt3mapSt6vectorNSt7__cxx1112basic_stringIcSt11char_traitsIcESaIcEEEbxydSaNS3_14adl_serializerES6_IhSaIhEEvEES6_ISG_SaISG_EEEEPSG_ET0_T_SO_SN_, symObjAddr: 0x29A64, symBinAddr: 0x10002B9A8, symSize: 0xA8 }
  - { offsetInCU: 0x45B6C, offset: 0x45B6C, size: 0x8, addend: 0x0, symName: __ZNSt10_Head_baseILm1EZN8nlohmann16json_abi_v3_11_310basic_jsonISt3mapSt6vectorNSt7__cxx1112basic_stringIcSt11char_traitsIcESaIcEEEbxydSaNS1_14adl_serializerES4_IhSaIhEEvE6createIS4_ISE_SaISE_EEJRKSH_EEEPT_DpOT0_EUlPSH_E_Lb0EE7_M_headERSR_, symObjAddr: 0x29A50, symBinAddr: 0x10002B994, symSize: 0x14 }
  - { offsetInCU: 0x45B9F, offset: 0x45B9F, size: 0x8, addend: 0x0, symName: __ZNSt8_Rb_treeINSt7__cxx1112basic_stringIcSt11char_traitsIcESaIcEEESt4pairIKS5_N8nlohmann16json_abi_v3_11_310basic_jsonISt3mapSt6vectorS5_bxydSaNS9_14adl_serializerESC_IhSaIhEEvEEESt10_Select1stISH_ESt4lessIvESaISH_EE13_M_clone_nodeILb0ENSN_11_Alloc_nodeEEEPSt13_Rb_tree_nodeISH_ESS_RT0_, symObjAddr: 0x299F4, symBinAddr: 0x10002B938, symSize: 0x5C }
  - { offsetInCU: 0x45C0B, offset: 0x45C0B, size: 0x8, addend: 0x0, symName: __ZNSt10_Head_baseILm1EZN8nlohmann16json_abi_v3_11_310basic_jsonISt3mapSt6vectorNSt7__cxx1112basic_stringIcSt11char_traitsIcESaIcEEEbxydSaNS1_14adl_serializerES4_IhSaIhEEvE6createIS3_ISA_SE_St4lessIvESaISt4pairIKSA_SE_EEEJRKSM_EEEPT_DpOT0_EUlPSM_E_Lb0EE7_M_headERSW_, symObjAddr: 0x299E0, symBinAddr: 0x10002B924, symSize: 0x14 }
  - { offsetInCU: 0x45D9F, offset: 0x45D9F, size: 0x8, addend: 0x0, symName: __ZNSt4pairIKNSt7__cxx1112basic_stringIcSt11char_traitsIcESaIcEEEN8nlohmann16json_abi_v3_11_310basic_jsonISt3mapSt6vectorS5_bxydSaNS8_14adl_serializerESB_IhSaIhEEvEEEC1IJRS6_EJLm0EEJEJEEERSt5tupleIJDpT_EERSJ_IJDpT1_EESt12_Index_tupleIJXspT0_EEESS_IJXspT2_EEE, symObjAddr: 0x29984, symBinAddr: 0x10002B8C8, symSize: 0x5C }
  - { offsetInCU: 0x45D10, offset: 0x45D10, size: 0x8, addend: 0x0, symName: __ZSt13__copy_move_aILb0EN9__gnu_cxx17__normal_iteratorIPKiSt6vectorIiSaIiEEEEPiET1_T0_SA_S9_, symObjAddr: 0x29924, symBinAddr: 0x10002B868, symSize: 0x60 }
  - { offsetInCU: 0x45D78, offset: 0x45D78, size: 0x8, addend: 0x0, symName: __ZNSt11__copy_moveILb0ELb1ESt26random_access_iterator_tagE8__copy_mIiiEEPT0_PT_S6_S4_, symObjAddr: 0x29894, symBinAddr: 0x10002B7D8, symSize: 0x90 }
  - { offsetInCU: 0x45DE7, offset: 0x45DE7, size: 0x8, addend: 0x0, symName: __ZNSt11_Tuple_implILm0EJRKiEE7_M_headERS2_, symObjAddr: 0x29878, symBinAddr: 0x10002B7BC, symSize: 0x1C }
  - { offsetInCU: 0x45E11, offset: 0x45E11, size: 0x8, addend: 0x0, symName: __ZSt10_ConstructIN8nlohmann16json_abi_v3_11_310basic_jsonISt3mapSt6vectorNSt7__cxx1112basic_stringIcSt11char_traitsIcESaIcEEEbxydSaNS1_14adl_serializerES4_IhSaIhEEvEEJRKNS1_6detail8json_refISE_EEEEvPT_DpOT0_, symObjAddr: 0x297FC, symBinAddr: 0x10002B740, symSize: 0x7C }
  - { offsetInCU: 0x45E5D, offset: 0x45E5D, size: 0x8, addend: 0x0, symName: __ZNSt20__uninitialized_copyILb1EE13__uninit_copyIN9__gnu_cxx17__normal_iteratorIPKhSt6vectorIhSaIhEEEEPhEET0_T_SC_SB_, symObjAddr: 0x297D0, symBinAddr: 0x10002B714, symSize: 0x2C }
  - { offsetInCU: 0x45EBC, offset: 0x45EBC, size: 0x8, addend: 0x0, symName: __ZNSt12_Vector_baseIhSaIhEE11_M_allocateEm, symObjAddr: 0x29780, symBinAddr: 0x10002B6C4, symSize: 0x50 }
  - { offsetInCU: 0x45F43, offset: 0x45F43, size: 0x8, addend: 0x0, symName: __ZNSt11_Tuple_implILm1EJZN8nlohmann16json_abi_v3_11_310basic_jsonISt3mapSt6vectorNSt7__cxx1112basic_stringIcSt11char_traitsIcESaIcEEEbxydSaNS1_14adl_serializerES4_IhSaIhEEvE6createINS1_27byte_container_with_subtypeISD_EEJRKSH_EEEPT_DpOT0_EUlPSH_E_EE7_M_headERSR_, symObjAddr: 0x29764, symBinAddr: 0x10002B6A8, symSize: 0x1C }
  - { offsetInCU: 0x46097, offset: 0x46097, size: 0x8, addend: 0x0, symName: __ZNSt10_Head_baseILm1EZN8nlohmann16json_abi_v3_11_310basic_jsonISt3mapSt6vectorNSt7__cxx1112basic_stringIcSt11char_traitsIcESaIcEEEbxydSaNS1_14adl_serializerES4_IhSaIhEEvE6createINS1_27byte_container_with_subtypeISD_EEJRKSH_EEEPT_DpOT0_EUlPSH_E_Lb0EEC2ERKSQ_, symObjAddr: 0x2973C, symBinAddr: 0x10002B680, symSize: 0x28 }
  - { offsetInCU: 0x45FC3, offset: 0x45FC3, size: 0x8, addend: 0x0, symName: __ZNSt11_Tuple_implILm1EJZN8nlohmann16json_abi_v3_11_310basic_jsonISt3mapSt6vectorNSt7__cxx1112basic_stringIcSt11char_traitsIcESaIcEEEbxydSaNS1_14adl_serializerES4_IhSaIhEEvE6createISA_JRKSA_EEEPT_DpOT0_EUlPSA_E_EE7_M_headERSP_, symObjAddr: 0x29720, symBinAddr: 0x10002B664, symSize: 0x1C }
  - { offsetInCU: 0x460F3, offset: 0x460F3, size: 0x8, addend: 0x0, symName: __ZNSt10_Head_baseILm1EZN8nlohmann16json_abi_v3_11_310basic_jsonISt3mapSt6vectorNSt7__cxx1112basic_stringIcSt11char_traitsIcESaIcEEEbxydSaNS1_14adl_serializerES4_IhSaIhEEvE6createISA_JRKSA_EEEPT_DpOT0_EUlPSA_E_Lb0EEC2ERKSO_, symObjAddr: 0x296F8, symBinAddr: 0x10002B63C, symSize: 0x28 }
  - { offsetInCU: 0x46043, offset: 0x46043, size: 0x8, addend: 0x0, symName: __ZNSt20__uninitialized_copyILb0EE13__uninit_copyIN9__gnu_cxx17__normal_iteratorIPKN8nlohmann16json_abi_v3_11_310basic_jsonISt3mapSt6vectorNSt7__cxx1112basic_stringIcSt11char_traitsIcESaIcEEEbxydSaNS5_14adl_serializerES8_IhSaIhEEvEES8_ISI_SaISI_EEEEPSI_EET0_T_SQ_SP_, symObjAddr: 0x296CC, symBinAddr: 0x10002B610, symSize: 0x2C }
  - { offsetInCU: 0x4609E, offset: 0x4609E, size: 0x8, addend: 0x0, symName: __ZNSt11_Tuple_implILm1EJZN8nlohmann16json_abi_v3_11_310basic_jsonISt3mapSt6vectorNSt7__cxx1112basic_stringIcSt11char_traitsIcESaIcEEEbxydSaNS1_14adl_serializerES4_IhSaIhEEvE6createIS4_ISE_SaISE_EEJRKSH_EEEPT_DpOT0_EUlPSH_E_EE7_M_headERSR_, symObjAddr: 0x296B0, symBinAddr: 0x10002B5F4, symSize: 0x1C }
  - { offsetInCU: 0x461DA, offset: 0x461DA, size: 0x8, addend: 0x0, symName: __ZNSt10_Head_baseILm1EZN8nlohmann16json_abi_v3_11_310basic_jsonISt3mapSt6vectorNSt7__cxx1112basic_stringIcSt11char_traitsIcESaIcEEEbxydSaNS1_14adl_serializerES4_IhSaIhEEvE6createIS4_ISE_SaISE_EEJRKSH_EEEPT_DpOT0_EUlPSH_E_Lb0EEC2ERKSQ_, symObjAddr: 0x29688, symBinAddr: 0x10002B5CC, symSize: 0x28 }
  - { offsetInCU: 0x4611E, offset: 0x4611E, size: 0x8, addend: 0x0, symName: __ZNSt8_Rb_treeINSt7__cxx1112basic_stringIcSt11char_traitsIcESaIcEEESt4pairIKS5_N8nlohmann16json_abi_v3_11_310basic_jsonISt3mapSt6vectorS5_bxydSaNS9_14adl_serializerESC_IhSaIhEEvEEESt10_Select1stISH_ESt4lessIvESaISH_EE10_S_maximumEPSt18_Rb_tree_node_base, symObjAddr: 0x2966C, symBinAddr: 0x10002B5B0, symSize: 0x1C }
  - { offsetInCU: 0x46148, offset: 0x46148, size: 0x8, addend: 0x0, symName: __ZNSt8_Rb_treeINSt7__cxx1112basic_stringIcSt11char_traitsIcESaIcEEESt4pairIKS5_N8nlohmann16json_abi_v3_11_310basic_jsonISt3mapSt6vectorS5_bxydSaNS9_14adl_serializerESC_IhSaIhEEvEEESt10_Select1stISH_ESt4lessIvESaISH_EE10_S_minimumEPSt18_Rb_tree_node_base, symObjAddr: 0x29650, symBinAddr: 0x10002B594, symSize: 0x1C }
  - { offsetInCU: 0x46176, offset: 0x46176, size: 0x8, addend: 0x0, symName: __ZNSt8_Rb_treeINSt7__cxx1112basic_stringIcSt11char_traitsIcESaIcEEESt4pairIKS5_N8nlohmann16json_abi_v3_11_310basic_jsonISt3mapSt6vectorS5_bxydSaNS9_14adl_serializerESC_IhSaIhEEvEEESt10_Select1stISH_ESt4lessIvESaISH_EE7_M_copyILb0ENSN_11_Alloc_nodeEEEPSt13_Rb_tree_nodeISH_ESS_PSt18_Rb_tree_node_baseRT0_, symObjAddr: 0x29508, symBinAddr: 0x10002B44C, symSize: 0x148 }
  - { offsetInCU: 0x46248, offset: 0x46248, size: 0x8, addend: 0x0, symName: __ZNSt11_Tuple_implILm1EJZN8nlohmann16json_abi_v3_11_310basic_jsonISt3mapSt6vectorNSt7__cxx1112basic_stringIcSt11char_traitsIcESaIcEEEbxydSaNS1_14adl_serializerES4_IhSaIhEEvE6createIS3_ISA_SE_St4lessIvESaISt4pairIKSA_SE_EEEJRKSM_EEEPT_DpOT0_EUlPSM_E_EE7_M_headERSW_, symObjAddr: 0x294EC, symBinAddr: 0x10002B430, symSize: 0x1C }
  - { offsetInCU: 0x4639E, offset: 0x4639E, size: 0x8, addend: 0x0, symName: __ZNSt10_Head_baseILm1EZN8nlohmann16json_abi_v3_11_310basic_jsonISt3mapSt6vectorNSt7__cxx1112basic_stringIcSt11char_traitsIcESaIcEEEbxydSaNS1_14adl_serializerES4_IhSaIhEEvE6createIS3_ISA_SE_St4lessIvESaISt4pairIKSA_SE_EEEJRKSM_EEEPT_DpOT0_EUlPSM_E_Lb0EEC2ERKSV_, symObjAddr: 0x294C4, symBinAddr: 0x10002B408, symSize: 0x28 }
  - { offsetInCU: 0x462C8, offset: 0x462C8, size: 0x8, addend: 0x0, symName: __ZSt14__relocate_a_1IccENSt9enable_ifIXsrSt24__is_bitwise_relocatableIT_vE5valueEPS2_E4typeES4_S4_S4_RSaIT0_E, symObjAddr: 0x2946C, symBinAddr: 0x10002B3B0, symSize: 0x58 }
  - { offsetInCU: 0x46348, offset: 0x46348, size: 0x8, addend: 0x0, symName: __ZSt12__niter_baseIPcET_S1_, symObjAddr: 0x29458, symBinAddr: 0x10002B39C, symSize: 0x14 }
  - { offsetInCU: 0x4637F, offset: 0x4637F, size: 0x8, addend: 0x0, symName: __ZNKSt12_Vector_baseIcSaIcEE19_M_get_Tp_allocatorEv, symObjAddr: 0x29444, symBinAddr: 0x10002B388, symSize: 0x14 }
  - { offsetInCU: 0x463A5, offset: 0x463A5, size: 0x8, addend: 0x0, symName: __ZNSt6vectorIcSaIcEE11_S_max_sizeERKS0_, symObjAddr: 0x293F0, symBinAddr: 0x10002B334, symSize: 0x54 }
  - { offsetInCU: 0x4658F, offset: 0x4658F, size: 0x8, addend: 0x0, symName: __ZNSt4pairIKNSt7__cxx1112basic_stringIcSt11char_traitsIcESaIcEEEN8nlohmann16json_abi_v3_11_310basic_jsonISt3mapSt6vectorS5_bxydSaNS8_14adl_serializerESB_IhSaIhEEvEEEC1IJRS6_EJEEESt21piecewise_construct_tSt5tupleIJDpT_EESK_IJDpT0_EE, symObjAddr: 0x293B4, symBinAddr: 0x10002B2F8, symSize: 0x3C }
  - { offsetInCU: 0x46579, offset: 0x46579, size: 0x8, addend: 0x0, symName: __ZNSt11_Tuple_implILm0EJRKNSt7__cxx1112basic_stringIcSt11char_traitsIcESaIcEEEEEC2EOS8_, symObjAddr: 0x2938C, symBinAddr: 0x10002B2D0, symSize: 0x28 }
  - { offsetInCU: 0x46550, offset: 0x46550, size: 0x8, addend: 0x0, symName: __ZNSt11__copy_moveILb1ELb0ESt26random_access_iterator_tagE8__copy_mIPN8nlohmann16json_abi_v3_11_310basic_jsonISt3mapSt6vectorNSt7__cxx1112basic_stringIcSt11char_traitsIcESaIcEEEbxydSaNS4_14adl_serializerES7_IhSaIhEEvEESI_EET0_T_SK_SJ_, symObjAddr: 0x292F8, symBinAddr: 0x10002B23C, symSize: 0x94 }
  - { offsetInCU: 0x465DF, offset: 0x465DF, size: 0x8, addend: 0x0, symName: __ZNSt11__copy_moveILb0ELb0ESt26random_access_iterator_tagE12__assign_oneImmEEvPT_PT0_, symObjAddr: 0x292D0, symBinAddr: 0x10002B214, symSize: 0x28 }
  - { offsetInCU: 0x4662C, offset: 0x4662C, size: 0x8, addend: 0x0, symName: __ZSt4copyIN9__gnu_cxx17__normal_iteratorIPKiSt6vectorIiSaIiEEEEPiET0_T_SA_S9_, symObjAddr: 0x29288, symBinAddr: 0x10002B1CC, symSize: 0x48 }
  - { offsetInCU: 0x4668A, offset: 0x4668A, size: 0x8, addend: 0x0, symName: __ZSt14__copy_move_a2ILb0EPiS0_ET1_T0_S2_S1_, symObjAddr: 0x2925C, symBinAddr: 0x10002B1A0, symSize: 0x2C }
  - { offsetInCU: 0x466F6, offset: 0x466F6, size: 0x8, addend: 0x0, symName: __ZNK9__gnu_cxx17__normal_iteratorIPiSt6vectorIiSaIiEEEplEl, symObjAddr: 0x2921C, symBinAddr: 0x10002B160, symSize: 0x40 }
  - { offsetInCU: 0x46731, offset: 0x46731, size: 0x8, addend: 0x0, symName: __ZNK9__gnu_cxx17__normal_iteratorIPKiSt6vectorIiSaIiEEE4baseEv, symObjAddr: 0x29208, symBinAddr: 0x10002B14C, symSize: 0x14 }
  - { offsetInCU: 0x46757, offset: 0x46757, size: 0x8, addend: 0x0, symName: __ZSt12__get_helperILm0ERKiJEERT0_RSt11_Tuple_implIXT_EJS2_DpT1_EE, symObjAddr: 0x291EC, symBinAddr: 0x10002B130, symSize: 0x1C }
  - { offsetInCU: 0x46799, offset: 0x46799, size: 0x8, addend: 0x0, symName: __ZSt16__do_uninit_copyIPKN8nlohmann16json_abi_v3_11_36detail8json_refINS1_10basic_jsonISt3mapSt6vectorNSt7__cxx1112basic_stringIcSt11char_traitsIcESaIcEEEbxydSaNS1_14adl_serializerES6_IhSaIhEEvEEEEPSG_ET0_T_SM_SL_, symObjAddr: 0x29158, symBinAddr: 0x10002B09C, symSize: 0x94 }
  - { offsetInCU: 0x46804, offset: 0x46804, size: 0x8, addend: 0x0, symName: __ZSt18uninitialized_copyIN9__gnu_cxx17__normal_iteratorIPKhSt6vectorIhSaIhEEEEPhET0_T_SA_S9_, symObjAddr: 0x2911C, symBinAddr: 0x10002B060, symSize: 0x3C }
  - { offsetInCU: 0x468E6, offset: 0x468E6, size: 0x8, addend: 0x0, symName: __ZN9__gnu_cxx17__normal_iteratorIPKhSt6vectorIhSaIhEEEC1ERKS2_, symObjAddr: 0x290F4, symBinAddr: 0x10002B038, symSize: 0x28 }
  - { offsetInCU: 0x468DA, offset: 0x468DA, size: 0x8, addend: 0x0, symName: __ZNSt12_Vector_baseIhSaIhEE17_M_create_storageEm, symObjAddr: 0x29098, symBinAddr: 0x10002AFDC, symSize: 0x5C }
  - { offsetInCU: 0x4696A, offset: 0x4696A, size: 0x8, addend: 0x0, symName: __ZNSt12_Vector_baseIhSaIhEE12_Vector_implC1ERKS0_, symObjAddr: 0x2904C, symBinAddr: 0x10002AF90, symSize: 0x4C }
  - { offsetInCU: 0x469D5, offset: 0x469D5, size: 0x8, addend: 0x0, symName: __ZNSt11_Tuple_implILm0EJPN8nlohmann16json_abi_v3_11_327byte_container_with_subtypeISt6vectorIhSaIhEEEEZNS1_10basic_jsonISt3mapS3_NSt7__cxx1112basic_stringIcSt11char_traitsIcESaIcEEEbxydSaNS1_14adl_serializerES5_vE6createIS6_JRKS6_EEEPT_DpOT0_EUlS7_E_EE7_M_headERKSR_, symObjAddr: 0x2902C, symBinAddr: 0x10002AF70, symSize: 0x20 }
  - { offsetInCU: 0x469FF, offset: 0x469FF, size: 0x8, addend: 0x0, symName: __ZSt12__get_helperILm1EZN8nlohmann16json_abi_v3_11_310basic_jsonISt3mapSt6vectorNSt7__cxx1112basic_stringIcSt11char_traitsIcESaIcEEEbxydSaNS1_14adl_serializerES4_IhSaIhEEvE6createINS1_27byte_container_with_subtypeISD_EEJRKSH_EEEPT_DpOT0_EUlPSH_E_JEERT0_RSt11_Tuple_implIXT_EJSR_DpT1_EE, symObjAddr: 0x29010, symBinAddr: 0x10002AF54, symSize: 0x1C }
  - { offsetInCU: 0x46A41, offset: 0x46A41, size: 0x8, addend: 0x0, symName: __ZNSt11_Tuple_implILm0EJPN8nlohmann16json_abi_v3_11_327byte_container_with_subtypeISt6vectorIhSaIhEEEEZNS1_10basic_jsonISt3mapS3_NSt7__cxx1112basic_stringIcSt11char_traitsIcESaIcEEEbxydSaNS1_14adl_serializerES5_vE6createIS6_JRKS6_EEEPT_DpOT0_EUlS7_E_EE7_M_headERSR_, symObjAddr: 0x28FF0, symBinAddr: 0x10002AF34, symSize: 0x20 }
  - { offsetInCU: 0x46B95, offset: 0x46B95, size: 0x8, addend: 0x0, symName: __ZNSt11_Tuple_implILm1EJZN8nlohmann16json_abi_v3_11_310basic_jsonISt3mapSt6vectorNSt7__cxx1112basic_stringIcSt11char_traitsIcESaIcEEEbxydSaNS1_14adl_serializerES4_IhSaIhEEvE6createINS1_27byte_container_with_subtypeISD_EEJRKSH_EEEPT_DpOT0_EUlPSH_E_EEC2ERKSQ_, symObjAddr: 0x28FC8, symBinAddr: 0x10002AF0C, symSize: 0x28 }
  - { offsetInCU: 0x46AC2, offset: 0x46AC2, size: 0x8, addend: 0x0, symName: __ZNSt11_Tuple_implILm0EJPNSt7__cxx1112basic_stringIcSt11char_traitsIcESaIcEEEZN8nlohmann16json_abi_v3_11_310basic_jsonISt3mapSt6vectorS5_bxydSaNS8_14adl_serializerESB_IhSaIhEEvE6createIS5_JRKS5_EEEPT_DpOT0_EUlS6_E_EE7_M_headERKSP_, symObjAddr: 0x28FA8, symBinAddr: 0x10002AEEC, symSize: 0x20 }
  - { offsetInCU: 0x46AEC, offset: 0x46AEC, size: 0x8, addend: 0x0, symName: __ZSt12__get_helperILm1EZN8nlohmann16json_abi_v3_11_310basic_jsonISt3mapSt6vectorNSt7__cxx1112basic_stringIcSt11char_traitsIcESaIcEEEbxydSaNS1_14adl_serializerES4_IhSaIhEEvE6createISA_JRKSA_EEEPT_DpOT0_EUlPSA_E_JEERT0_RSt11_Tuple_implIXT_EJSP_DpT1_EE, symObjAddr: 0x28F8C, symBinAddr: 0x10002AED0, symSize: 0x1C }
  - { offsetInCU: 0x46B2E, offset: 0x46B2E, size: 0x8, addend: 0x0, symName: __ZNSt11_Tuple_implILm0EJPNSt7__cxx1112basic_stringIcSt11char_traitsIcESaIcEEEZN8nlohmann16json_abi_v3_11_310basic_jsonISt3mapSt6vectorS5_bxydSaNS8_14adl_serializerESB_IhSaIhEEvE6createIS5_JRKS5_EEEPT_DpOT0_EUlS6_E_EE7_M_headERSP_, symObjAddr: 0x28F6C, symBinAddr: 0x10002AEB0, symSize: 0x20 }
  - { offsetInCU: 0x46C5E, offset: 0x46C5E, size: 0x8, addend: 0x0, symName: __ZNSt11_Tuple_implILm1EJZN8nlohmann16json_abi_v3_11_310basic_jsonISt3mapSt6vectorNSt7__cxx1112basic_stringIcSt11char_traitsIcESaIcEEEbxydSaNS1_14adl_serializerES4_IhSaIhEEvE6createISA_JRKSA_EEEPT_DpOT0_EUlPSA_E_EEC2ERKSO_, symObjAddr: 0x28F44, symBinAddr: 0x10002AE88, symSize: 0x28 }
  - { offsetInCU: 0x46BAF, offset: 0x46BAF, size: 0x8, addend: 0x0, symName: __ZSt18uninitialized_copyIN9__gnu_cxx17__normal_iteratorIPKN8nlohmann16json_abi_v3_11_310basic_jsonISt3mapSt6vectorNSt7__cxx1112basic_stringIcSt11char_traitsIcESaIcEEEbxydSaNS3_14adl_serializerES6_IhSaIhEEvEES6_ISG_SaISG_EEEEPSG_ET0_T_SO_SN_, symObjAddr: 0x28F10, symBinAddr: 0x10002AE54, symSize: 0x34 }
  - { offsetInCU: 0x46C2E, offset: 0x46C2E, size: 0x8, addend: 0x0, symName: __ZNSt12_Vector_baseIN8nlohmann16json_abi_v3_11_310basic_jsonISt3mapSt6vectorNSt7__cxx1112basic_stringIcSt11char_traitsIcESaIcEEEbxydSaNS1_14adl_serializerES4_IhSaIhEEvEESaISE_EE17_M_create_storageEm, symObjAddr: 0x28EB0, symBinAddr: 0x10002ADF4, symSize: 0x60 }
  - { offsetInCU: 0x46C7B, offset: 0x46C7B, size: 0x8, addend: 0x0, symName: __ZNSt11_Tuple_implILm0EJPSt6vectorIN8nlohmann16json_abi_v3_11_310basic_jsonISt3mapS0_NSt7__cxx1112basic_stringIcSt11char_traitsIcESaIcEEEbxydSaNS2_14adl_serializerES0_IhSaIhEEvEESaISE_EEZNSE_6createISG_JRKSG_EEEPT_DpOT0_EUlSH_E_EE7_M_headERKSR_, symObjAddr: 0x28E90, symBinAddr: 0x10002ADD4, symSize: 0x20 }
  - { offsetInCU: 0x46CA5, offset: 0x46CA5, size: 0x8, addend: 0x0, symName: __ZSt12__get_helperILm1EZN8nlohmann16json_abi_v3_11_310basic_jsonISt3mapSt6vectorNSt7__cxx1112basic_stringIcSt11char_traitsIcESaIcEEEbxydSaNS1_14adl_serializerES4_IhSaIhEEvE6createIS4_ISE_SaISE_EEJRKSH_EEEPT_DpOT0_EUlPSH_E_JEERT0_RSt11_Tuple_implIXT_EJSR_DpT1_EE, symObjAddr: 0x28E74, symBinAddr: 0x10002ADB8, symSize: 0x1C }
  - { offsetInCU: 0x46CE7, offset: 0x46CE7, size: 0x8, addend: 0x0, symName: __ZNSt11_Tuple_implILm0EJPSt6vectorIN8nlohmann16json_abi_v3_11_310basic_jsonISt3mapS0_NSt7__cxx1112basic_stringIcSt11char_traitsIcESaIcEEEbxydSaNS2_14adl_serializerES0_IhSaIhEEvEESaISE_EEZNSE_6createISG_JRKSG_EEEPT_DpOT0_EUlSH_E_EE7_M_headERSR_, symObjAddr: 0x28E54, symBinAddr: 0x10002AD98, symSize: 0x20 }
  - { offsetInCU: 0x46E23, offset: 0x46E23, size: 0x8, addend: 0x0, symName: __ZNSt11_Tuple_implILm1EJZN8nlohmann16json_abi_v3_11_310basic_jsonISt3mapSt6vectorNSt7__cxx1112basic_stringIcSt11char_traitsIcESaIcEEEbxydSaNS1_14adl_serializerES4_IhSaIhEEvE6createIS4_ISE_SaISE_EEJRKSH_EEEPT_DpOT0_EUlPSH_E_EEC2ERKSQ_, symObjAddr: 0x28E2C, symBinAddr: 0x10002AD70, symSize: 0x28 }
  - { offsetInCU: 0x46D6C, offset: 0x46D6C, size: 0x8, addend: 0x0, symName: __ZNSt8_Rb_treeINSt7__cxx1112basic_stringIcSt11char_traitsIcESaIcEEESt4pairIKS5_N8nlohmann16json_abi_v3_11_310basic_jsonISt3mapSt6vectorS5_bxydSaNS9_14adl_serializerESC_IhSaIhEEvEEESt10_Select1stISH_ESt4lessIvESaISH_EE7_M_copyILb0ENSN_11_Alloc_nodeEEEPSt13_Rb_tree_nodeISH_ERKSN_RT0_, symObjAddr: 0x28D98, symBinAddr: 0x10002ACDC, symSize: 0x94 }
  - { offsetInCU: 0x46EEE, offset: 0x46EEE, size: 0x8, addend: 0x0, symName: __ZNSt8_Rb_treeINSt7__cxx1112basic_stringIcSt11char_traitsIcESaIcEEESt4pairIKS5_N8nlohmann16json_abi_v3_11_310basic_jsonISt3mapSt6vectorS5_bxydSaNS9_14adl_serializerESC_IhSaIhEEvEEESt10_Select1stISH_ESt4lessIvESaISH_EE11_Alloc_nodeC1ERSN_, symObjAddr: 0x28D74, symBinAddr: 0x10002ACB8, symSize: 0x24 }
  - { offsetInCU: 0x46E86, offset: 0x46E86, size: 0x8, addend: 0x0, symName: __ZNSt20_Rb_tree_key_compareISt4lessIvEEC2ERKS1_, symObjAddr: 0x28D5C, symBinAddr: 0x10002ACA0, symSize: 0x18 }
  - { offsetInCU: 0x46EBD, offset: 0x46EBD, size: 0x8, addend: 0x0, symName: __ZNSt11_Tuple_implILm0EJPSt3mapINSt7__cxx1112basic_stringIcSt11char_traitsIcESaIcEEEN8nlohmann16json_abi_v3_11_310basic_jsonIS0_St6vectorS6_bxydSaNS8_14adl_serializerESA_IhSaIhEEvEESt4lessIvESaISt4pairIKS6_SE_EEEZNSE_6createISL_JRKSL_EEEPT_DpOT0_EUlSM_E_EE7_M_headERKSW_, symObjAddr: 0x28D3C, symBinAddr: 0x10002AC80, symSize: 0x20 }
  - { offsetInCU: 0x46EE7, offset: 0x46EE7, size: 0x8, addend: 0x0, symName: __ZSt12__get_helperILm1EZN8nlohmann16json_abi_v3_11_310basic_jsonISt3mapSt6vectorNSt7__cxx1112basic_stringIcSt11char_traitsIcESaIcEEEbxydSaNS1_14adl_serializerES4_IhSaIhEEvE6createIS3_ISA_SE_St4lessIvESaISt4pairIKSA_SE_EEEJRKSM_EEEPT_DpOT0_EUlPSM_E_JEERT0_RSt11_Tuple_implIXT_EJSW_DpT1_EE, symObjAddr: 0x28D20, symBinAddr: 0x10002AC64, symSize: 0x1C }
  - { offsetInCU: 0x46F29, offset: 0x46F29, size: 0x8, addend: 0x0, symName: __ZNSt11_Tuple_implILm0EJPSt3mapINSt7__cxx1112basic_stringIcSt11char_traitsIcESaIcEEEN8nlohmann16json_abi_v3_11_310basic_jsonIS0_St6vectorS6_bxydSaNS8_14adl_serializerESA_IhSaIhEEvEESt4lessIvESaISt4pairIKS6_SE_EEEZNSE_6createISL_JRKSL_EEEPT_DpOT0_EUlSM_E_EE7_M_headERSW_, symObjAddr: 0x28D00, symBinAddr: 0x10002AC44, symSize: 0x20 }
  - { offsetInCU: 0x4707F, offset: 0x4707F, size: 0x8, addend: 0x0, symName: __ZNSt11_Tuple_implILm1EJZN8nlohmann16json_abi_v3_11_310basic_jsonISt3mapSt6vectorNSt7__cxx1112basic_stringIcSt11char_traitsIcESaIcEEEbxydSaNS1_14adl_serializerES4_IhSaIhEEvE6createIS3_ISA_SE_St4lessIvESaISt4pairIKSA_SE_EEEJRKSM_EEEPT_DpOT0_EUlPSM_E_EEC2ERKSV_, symObjAddr: 0x28CD8, symBinAddr: 0x10002AC1C, symSize: 0x28 }
  - { offsetInCU: 0x46FAA, offset: 0x46FAA, size: 0x8, addend: 0x0, symName: __ZNSt11__copy_moveILb0ELb0ESt26random_access_iterator_tagE12__assign_oneIiKiEEvPT_PT0_, symObjAddr: 0x28CB0, symBinAddr: 0x10002ABF4, symSize: 0x28 }
  - { offsetInCU: 0x46FF7, offset: 0x46FF7, size: 0x8, addend: 0x0, symName: __ZSt12__relocate_aIPcS0_SaIcEET0_T_S3_S2_RT1_, symObjAddr: 0x28C54, symBinAddr: 0x10002AB98, symSize: 0x5C }
  - { offsetInCU: 0x47073, offset: 0x47073, size: 0x8, addend: 0x0, symName: __ZNK9__gnu_cxx17__normal_iteratorIPcSt6vectorIcSaIcEEE4baseEv, symObjAddr: 0x28C40, symBinAddr: 0x10002AB84, symSize: 0x14 }
  - { offsetInCU: 0x470FF, offset: 0x470FF, size: 0x8, addend: 0x0, symName: __ZN9__gnu_cxx17__normal_iteratorIPcSt6vectorIcSaIcEEEC1ERKS1_, symObjAddr: 0x28C18, symBinAddr: 0x10002AB5C, symSize: 0x28 }
  - { offsetInCU: 0x470F4, offset: 0x470F4, size: 0x8, addend: 0x0, symName: __ZNKSt6vectorIcSaIcEE4sizeEv, symObjAddr: 0x28BF4, symBinAddr: 0x10002AB38, symSize: 0x24 }
  - { offsetInCU: 0x4711E, offset: 0x4711E, size: 0x8, addend: 0x0, symName: __ZNKSt6vectorIcSaIcEE8max_sizeEv, symObjAddr: 0x28BD4, symBinAddr: 0x10002AB18, symSize: 0x20 }
  - { offsetInCU: 0x47213, offset: 0x47213, size: 0x8, addend: 0x0, symName: __ZNSt5tupleIJRKNSt7__cxx1112basic_stringIcSt11char_traitsIcESaIcEEEEEC1EOS8_, symObjAddr: 0x28BAC, symBinAddr: 0x10002AAF0, symSize: 0x28 }
  - { offsetInCU: 0x471F5, offset: 0x471F5, size: 0x8, addend: 0x0, symName: __ZSt14__copy_move_a2ILb1EPN8nlohmann16json_abi_v3_11_310basic_jsonISt3mapSt6vectorNSt7__cxx1112basic_stringIcSt11char_traitsIcESaIcEEEbxydSaNS1_14adl_serializerES4_IhSaIhEEvEESF_ET1_T0_SH_SG_, symObjAddr: 0x28B80, symBinAddr: 0x10002AAC4, symSize: 0x2C }
  - { offsetInCU: 0x47273, offset: 0x47273, size: 0x8, addend: 0x0, symName: __ZNSt11__copy_moveILb0ELb0ESt26random_access_iterator_tagE8__copy_mISt19_Bit_const_iteratorSt13_Bit_iteratorEET0_T_S6_S5_, symObjAddr: 0x28AB0, symBinAddr: 0x10002A9F4, symSize: 0xD0 }
  - { offsetInCU: 0x47304, offset: 0x47304, size: 0x8, addend: 0x0, symName: __ZNSt11__copy_moveILb0ELb1ESt26random_access_iterator_tagE8__copy_mImmEEPT0_PT_S6_S4_, symObjAddr: 0x28A20, symBinAddr: 0x10002A964, symSize: 0x90 }
  - { offsetInCU: 0x47377, offset: 0x47377, size: 0x8, addend: 0x0, symName: __ZN9__gnu_cxx17__normal_iteratorIPKcNSt7__cxx1112basic_stringIcSt11char_traitsIcESaIcEEEEpLEl, symObjAddr: 0x289F0, symBinAddr: 0x10002A934, symSize: 0x30 }
  - { offsetInCU: 0x473AE, offset: 0x473AE, size: 0x8, addend: 0x0, symName: __ZNSt10_Head_baseILm1EZN8nlohmann16json_abi_v3_11_310basic_jsonISt3mapSt6vectorNSt7__cxx1112basic_stringIcSt11char_traitsIcESaIcEEEbxydSaNS1_14adl_serializerES4_IhSaIhEEvE6createINS1_27byte_container_with_subtypeISD_EEJEEEPT_DpOT0_EUlPSH_E_Lb0EE7_M_headERSP_, symObjAddr: 0x289DC, symBinAddr: 0x10002A920, symSize: 0x14 }
  - { offsetInCU: 0x473D7, offset: 0x473D7, size: 0x8, addend: 0x0, symName: __ZNSt10_Head_baseILm1EZN8nlohmann16json_abi_v3_11_310basic_jsonISt3mapSt6vectorNSt7__cxx1112basic_stringIcSt11char_traitsIcESaIcEEEbxydSaNS1_14adl_serializerES4_IhSaIhEEvE6createISA_JRA1_KcEEEPT_DpOT0_EUlPSA_E_Lb0EE7_M_headERSQ_, symObjAddr: 0x289C8, symBinAddr: 0x10002A90C, symSize: 0x14 }
  - { offsetInCU: 0x47400, offset: 0x47400, size: 0x8, addend: 0x0, symName: __ZNSt10_Head_baseILm1EZN8nlohmann16json_abi_v3_11_310basic_jsonISt3mapSt6vectorNSt7__cxx1112basic_stringIcSt11char_traitsIcESaIcEEEbxydSaNS1_14adl_serializerES4_IhSaIhEEvE6createIS4_ISE_SaISE_EEJEEEPT_DpOT0_EUlPSH_E_Lb0EE7_M_headERSP_, symObjAddr: 0x289B4, symBinAddr: 0x10002A8F8, symSize: 0x14 }
  - { offsetInCU: 0x47533, offset: 0x47533, size: 0x8, addend: 0x0, symName: __ZNSt4pairIKNSt7__cxx1112basic_stringIcSt11char_traitsIcESaIcEEEN8nlohmann16json_abi_v3_11_310basic_jsonISt3mapSt6vectorS5_bxydSaNS8_14adl_serializerESB_IhSaIhEEvEEEC1IS5_DnLb1EEEOT_OT0_, symObjAddr: 0x28954, symBinAddr: 0x10002A898, symSize: 0x60 }
  - { offsetInCU: 0x474C2, offset: 0x474C2, size: 0x8, addend: 0x0, symName: __ZNSt10_Head_baseILm1EZN8nlohmann16json_abi_v3_11_310basic_jsonISt3mapSt6vectorNSt7__cxx1112basic_stringIcSt11char_traitsIcESaIcEEEbxydSaNS1_14adl_serializerES4_IhSaIhEEvE6createIS3_ISA_SE_St4lessIvESaISt4pairIKSA_SE_EEEJEEEPT_DpOT0_EUlPSM_E_Lb0EE7_M_headERSU_, symObjAddr: 0x28940, symBinAddr: 0x10002A884, symSize: 0x14 }
  - { offsetInCU: 0x474EB, offset: 0x474EB, size: 0x8, addend: 0x0, symName: __ZNSt20__uninitialized_copyILb1EE13__uninit_copyIN9__gnu_cxx17__normal_iteratorIPKiSt6vectorIiSaIiEEEEPiEET0_T_SC_SB_, symObjAddr: 0x28914, symBinAddr: 0x10002A858, symSize: 0x2C }
  - { offsetInCU: 0x47546, offset: 0x47546, size: 0x8, addend: 0x0, symName: __ZNSt20__uninitialized_copyILb1EE13__uninit_copyIPiS2_EET0_T_S4_S3_, symObjAddr: 0x288E8, symBinAddr: 0x10002A82C, symSize: 0x2C }
  - { offsetInCU: 0x475A1, offset: 0x475A1, size: 0x8, addend: 0x0, symName: __ZSt14__copy_move_a1ILb0EPiS0_ET1_T0_S2_S1_, symObjAddr: 0x288BC, symBinAddr: 0x10002A800, symSize: 0x2C }
  - { offsetInCU: 0x47609, offset: 0x47609, size: 0x8, addend: 0x0, symName: __ZNSt12_Destroy_auxILb1EE9__destroyIN9__gnu_cxx17__normal_iteratorIPiSt6vectorIiSaIiEEEEEEvT_S9_, symObjAddr: 0x288A4, symBinAddr: 0x10002A7E8, symSize: 0x18 }
  - { offsetInCU: 0x4763D, offset: 0x4763D, size: 0x8, addend: 0x0, symName: __ZSt12__niter_wrapIN9__gnu_cxx17__normal_iteratorIPiSt6vectorIiSaIiEEEES2_ET_S7_T0_, symObjAddr: 0x2885C, symBinAddr: 0x10002A7A0, symSize: 0x48 }
  - { offsetInCU: 0x4768A, offset: 0x4768A, size: 0x8, addend: 0x0, symName: __ZSt12__niter_baseIPiSt6vectorIiSaIiEEET_N9__gnu_cxx17__normal_iteratorIS4_T0_EE, symObjAddr: 0x2883C, symBinAddr: 0x10002A780, symSize: 0x20 }
  - { offsetInCU: 0x476C6, offset: 0x476C6, size: 0x8, addend: 0x0, symName: __ZSt12__niter_baseIPKiSt6vectorIiSaIiEEET_N9__gnu_cxx17__normal_iteratorIS5_T0_EE, symObjAddr: 0x2881C, symBinAddr: 0x10002A760, symSize: 0x20 }
  - { offsetInCU: 0x47702, offset: 0x47702, size: 0x8, addend: 0x0, symName: __ZSt3getILm0EJRKiEERNSt13tuple_elementIXT_ESt5tupleIJDpT0_EEE4typeERS6_, symObjAddr: 0x28800, symBinAddr: 0x10002A744, symSize: 0x1C }
  - { offsetInCU: 0x47741, offset: 0x47741, size: 0x8, addend: 0x0, symName: __ZNSt20__uninitialized_copyILb0EE13__uninit_copyIPKN8nlohmann16json_abi_v3_11_36detail8json_refINS3_10basic_jsonISt3mapSt6vectorNSt7__cxx1112basic_stringIcSt11char_traitsIcESaIcEEEbxydSaNS3_14adl_serializerES8_IhSaIhEEvEEEEPSI_EET0_T_SO_SN_, symObjAddr: 0x287D4, symBinAddr: 0x10002A718, symSize: 0x2C }
  - { offsetInCU: 0x477B7, offset: 0x477B7, size: 0x8, addend: 0x0, symName: __ZNSt10_Head_baseILm1EZN8nlohmann16json_abi_v3_11_310basic_jsonISt3mapSt6vectorNSt7__cxx1112basic_stringIcSt11char_traitsIcESaIcEEEbxydSaNS1_14adl_serializerES4_IhSaIhEEvE6createIS4_ISE_SaISE_EEJPKNS1_6detail8json_refISE_EESM_EEEPT_DpOT0_EUlPSH_E_Lb0EE7_M_headERSU_, symObjAddr: 0x287C0, symBinAddr: 0x10002A704, symSize: 0x14 }
  - { offsetInCU: 0x478E4, offset: 0x478E4, size: 0x8, addend: 0x0, symName: __ZNSt4pairIKNSt7__cxx1112basic_stringIcSt11char_traitsIcESaIcEEEN8nlohmann16json_abi_v3_11_310basic_jsonISt3mapSt6vectorS5_bxydSaNS8_14adl_serializerESB_IhSaIhEEvEEEC1IS5_SF_Lb1EEEOT_OT0_, symObjAddr: 0x28764, symBinAddr: 0x10002A6A8, symSize: 0x5C }
  - { offsetInCU: 0x47872, offset: 0x47872, size: 0x8, addend: 0x0, symName: __ZSt22__uninitialized_copy_aIN9__gnu_cxx17__normal_iteratorIPKhSt6vectorIhSaIhEEEEPhhET0_T_SA_S9_RSaIT1_E, symObjAddr: 0x28734, symBinAddr: 0x10002A678, symSize: 0x30 }
  - { offsetInCU: 0x478E6, offset: 0x478E6, size: 0x8, addend: 0x0, symName: __ZNKSt6vectorIhSaIhEE3endEv, symObjAddr: 0x2870C, symBinAddr: 0x10002A650, symSize: 0x28 }
  - { offsetInCU: 0x47910, offset: 0x47910, size: 0x8, addend: 0x0, symName: __ZNKSt6vectorIhSaIhEE5beginEv, symObjAddr: 0x286E8, symBinAddr: 0x10002A62C, symSize: 0x24 }
  - { offsetInCU: 0x47991, offset: 0x47991, size: 0x8, addend: 0x0, symName: __ZNSt12_Vector_baseIhSaIhEEC2EmRKS0_, symObjAddr: 0x28694, symBinAddr: 0x10002A5D8, symSize: 0x54 }
  - { offsetInCU: 0x479BD, offset: 0x479BD, size: 0x8, addend: 0x0, symName: __ZNKSt12_Vector_baseIhSaIhEE19_M_get_Tp_allocatorEv, symObjAddr: 0x28680, symBinAddr: 0x10002A5C4, symSize: 0x14 }
  - { offsetInCU: 0x479E7, offset: 0x479E7, size: 0x8, addend: 0x0, symName: __ZNKSt6vectorIhSaIhEE4sizeEv, symObjAddr: 0x2865C, symBinAddr: 0x10002A5A0, symSize: 0x24 }
  - { offsetInCU: 0x47A0D, offset: 0x47A0D, size: 0x8, addend: 0x0, symName: __ZSt12__get_helperILm0EPN8nlohmann16json_abi_v3_11_327byte_container_with_subtypeISt6vectorIhSaIhEEEEJZNS1_10basic_jsonISt3mapS3_NSt7__cxx1112basic_stringIcSt11char_traitsIcESaIcEEEbxydSaNS1_14adl_serializerES5_vE6createIS6_JRKS6_EEEPT_DpOT0_EUlS7_E_EERKT0_RKSt11_Tuple_implIXT_EJSR_DpT1_EE, symObjAddr: 0x28640, symBinAddr: 0x10002A584, symSize: 0x1C }
  - { offsetInCU: 0x47A5B, offset: 0x47A5B, size: 0x8, addend: 0x0, symName: __ZSt3getILm1EJPN8nlohmann16json_abi_v3_11_327byte_container_with_subtypeISt6vectorIhSaIhEEEEZNS1_10basic_jsonISt3mapS3_NSt7__cxx1112basic_stringIcSt11char_traitsIcESaIcEEEbxydSaNS1_14adl_serializerES5_vE6createIS6_JRKS6_EEEPT_DpOT0_EUlS7_E_EERNSt13tuple_elementIXT_ESt5tupleIJDpSN_EEE4typeERSU_, symObjAddr: 0x28624, symBinAddr: 0x10002A568, symSize: 0x1C }
  - { offsetInCU: 0x47A9F, offset: 0x47A9F, size: 0x8, addend: 0x0, symName: __ZSt12__get_helperILm0EPN8nlohmann16json_abi_v3_11_327byte_container_with_subtypeISt6vectorIhSaIhEEEEJZNS1_10basic_jsonISt3mapS3_NSt7__cxx1112basic_stringIcSt11char_traitsIcESaIcEEEbxydSaNS1_14adl_serializerES5_vE6createIS6_JRKS6_EEEPT_DpOT0_EUlS7_E_EERT0_RSt11_Tuple_implIXT_EJSR_DpT1_EE, symObjAddr: 0x28608, symBinAddr: 0x10002A54C, symSize: 0x1C }
  - { offsetInCU: 0x47C44, offset: 0x47C44, size: 0x8, addend: 0x0, symName: __ZNSt11_Tuple_implILm0EJPN8nlohmann16json_abi_v3_11_327byte_container_with_subtypeISt6vectorIhSaIhEEEEZNS1_10basic_jsonISt3mapS3_NSt7__cxx1112basic_stringIcSt11char_traitsIcESaIcEEEbxydSaNS1_14adl_serializerES5_vE6createIS6_JRKS6_EEEPT_DpOT0_EUlS7_E_EEC2IRS7_JRKSQ_EvEEOSL_SP_, symObjAddr: 0x285AC, symBinAddr: 0x10002A4F0, symSize: 0x5C }
  - { offsetInCU: 0x47B82, offset: 0x47B82, size: 0x8, addend: 0x0, symName: __ZSt12__get_helperILm0EPNSt7__cxx1112basic_stringIcSt11char_traitsIcESaIcEEEJZN8nlohmann16json_abi_v3_11_310basic_jsonISt3mapSt6vectorS5_bxydSaNS8_14adl_serializerESB_IhSaIhEEvE6createIS5_JRKS5_EEEPT_DpOT0_EUlS6_E_EERKT0_RKSt11_Tuple_implIXT_EJSP_DpT1_EE, symObjAddr: 0x28590, symBinAddr: 0x10002A4D4, symSize: 0x1C }
  - { offsetInCU: 0x47BD0, offset: 0x47BD0, size: 0x8, addend: 0x0, symName: __ZSt3getILm1EJPNSt7__cxx1112basic_stringIcSt11char_traitsIcESaIcEEEZN8nlohmann16json_abi_v3_11_310basic_jsonISt3mapSt6vectorS5_bxydSaNS8_14adl_serializerESB_IhSaIhEEvE6createIS5_JRKS5_EEEPT_DpOT0_EUlS6_E_EERNSt13tuple_elementIXT_ESt5tupleIJDpSL_EEE4typeERSS_, symObjAddr: 0x28574, symBinAddr: 0x10002A4B8, symSize: 0x1C }
  - { offsetInCU: 0x47C14, offset: 0x47C14, size: 0x8, addend: 0x0, symName: __ZSt12__get_helperILm0EPNSt7__cxx1112basic_stringIcSt11char_traitsIcESaIcEEEJZN8nlohmann16json_abi_v3_11_310basic_jsonISt3mapSt6vectorS5_bxydSaNS8_14adl_serializerESB_IhSaIhEEvE6createIS5_JRKS5_EEEPT_DpOT0_EUlS6_E_EERT0_RSt11_Tuple_implIXT_EJSP_DpT1_EE, symObjAddr: 0x28558, symBinAddr: 0x10002A49C, symSize: 0x1C }
  - { offsetInCU: 0x47D95, offset: 0x47D95, size: 0x8, addend: 0x0, symName: __ZNSt11_Tuple_implILm0EJPNSt7__cxx1112basic_stringIcSt11char_traitsIcESaIcEEEZN8nlohmann16json_abi_v3_11_310basic_jsonISt3mapSt6vectorS5_bxydSaNS8_14adl_serializerESB_IhSaIhEEvE6createIS5_JRKS5_EEEPT_DpOT0_EUlS6_E_EEC2IRS6_JRKSO_EvEEOSJ_SN_, symObjAddr: 0x284FC, symBinAddr: 0x10002A440, symSize: 0x5C }
  - { offsetInCU: 0x47CF7, offset: 0x47CF7, size: 0x8, addend: 0x0, symName: __ZSt22__uninitialized_copy_aIN9__gnu_cxx17__normal_iteratorIPKN8nlohmann16json_abi_v3_11_310basic_jsonISt3mapSt6vectorNSt7__cxx1112basic_stringIcSt11char_traitsIcESaIcEEEbxydSaNS3_14adl_serializerES6_IhSaIhEEvEES6_ISG_SaISG_EEEEPSG_SG_ET0_T_SO_SN_RSaIT1_E, symObjAddr: 0x284CC, symBinAddr: 0x10002A410, symSize: 0x30 }
  - { offsetInCU: 0x47E58, offset: 0x47E58, size: 0x8, addend: 0x0, symName: __ZNSt12_Vector_baseIN8nlohmann16json_abi_v3_11_310basic_jsonISt3mapSt6vectorNSt7__cxx1112basic_stringIcSt11char_traitsIcESaIcEEEbxydSaNS1_14adl_serializerES4_IhSaIhEEvEESaISE_EEC2EmRKSF_, symObjAddr: 0x28478, symBinAddr: 0x10002A3BC, symSize: 0x54 }
  - { offsetInCU: 0x47DEA, offset: 0x47DEA, size: 0x8, addend: 0x0, symName: __ZSt12__get_helperILm0EPSt6vectorIN8nlohmann16json_abi_v3_11_310basic_jsonISt3mapS0_NSt7__cxx1112basic_stringIcSt11char_traitsIcESaIcEEEbxydSaNS2_14adl_serializerES0_IhSaIhEEvEESaISE_EEJZNSE_6createISG_JRKSG_EEEPT_DpOT0_EUlSH_E_EERKT0_RKSt11_Tuple_implIXT_EJSR_DpT1_EE, symObjAddr: 0x2845C, symBinAddr: 0x10002A3A0, symSize: 0x1C }
  - { offsetInCU: 0x47E38, offset: 0x47E38, size: 0x8, addend: 0x0, symName: __ZSt3getILm1EJPSt6vectorIN8nlohmann16json_abi_v3_11_310basic_jsonISt3mapS0_NSt7__cxx1112basic_stringIcSt11char_traitsIcESaIcEEEbxydSaNS2_14adl_serializerES0_IhSaIhEEvEESaISE_EEZNSE_6createISG_JRKSG_EEEPT_DpOT0_EUlSH_E_EERNSt13tuple_elementIXT_ESt5tupleIJDpSN_EEE4typeERSU_, symObjAddr: 0x28440, symBinAddr: 0x10002A384, symSize: 0x1C }
  - { offsetInCU: 0x47E7C, offset: 0x47E7C, size: 0x8, addend: 0x0, symName: __ZSt12__get_helperILm0EPSt6vectorIN8nlohmann16json_abi_v3_11_310basic_jsonISt3mapS0_NSt7__cxx1112basic_stringIcSt11char_traitsIcESaIcEEEbxydSaNS2_14adl_serializerES0_IhSaIhEEvEESaISE_EEJZNSE_6createISG_JRKSG_EEEPT_DpOT0_EUlSH_E_EERT0_RSt11_Tuple_implIXT_EJSR_DpT1_EE, symObjAddr: 0x28424, symBinAddr: 0x10002A368, symSize: 0x1C }
  - { offsetInCU: 0x4800B, offset: 0x4800B, size: 0x8, addend: 0x0, symName: __ZNSt11_Tuple_implILm0EJPSt6vectorIN8nlohmann16json_abi_v3_11_310basic_jsonISt3mapS0_NSt7__cxx1112basic_stringIcSt11char_traitsIcESaIcEEEbxydSaNS2_14adl_serializerES0_IhSaIhEEvEESaISE_EEZNSE_6createISG_JRKSG_EEEPT_DpOT0_EUlSH_E_EEC2IRSH_JRKSQ_EvEEOSL_SP_, symObjAddr: 0x283C8, symBinAddr: 0x10002A30C, symSize: 0x5C }
  - { offsetInCU: 0x47F63, offset: 0x47F63, size: 0x8, addend: 0x0, symName: __ZNSt8_Rb_treeINSt7__cxx1112basic_stringIcSt11char_traitsIcESaIcEEESt4pairIKS5_N8nlohmann16json_abi_v3_11_310basic_jsonISt3mapSt6vectorS5_bxydSaNS9_14adl_serializerESC_IhSaIhEEvEEESt10_Select1stISH_ESt4lessIvESaISH_EE7_M_copyERKSN_, symObjAddr: 0x28390, symBinAddr: 0x10002A2D4, symSize: 0x38 }
  - { offsetInCU: 0x47FAF, offset: 0x47FAF, size: 0x8, addend: 0x0, symName: __ZNSt8_Rb_treeINSt7__cxx1112basic_stringIcSt11char_traitsIcESaIcEEESt4pairIKS5_N8nlohmann16json_abi_v3_11_310basic_jsonISt3mapSt6vectorS5_bxydSaNS9_14adl_serializerESC_IhSaIhEEvEEESt10_Select1stISH_ESt4lessIvESaISH_EE7_M_rootEv, symObjAddr: 0x28378, symBinAddr: 0x10002A2BC, symSize: 0x18 }
  - { offsetInCU: 0x47FD9, offset: 0x47FD9, size: 0x8, addend: 0x0, symName: __ZNKSt8_Rb_treeINSt7__cxx1112basic_stringIcSt11char_traitsIcESaIcEEESt4pairIKS5_N8nlohmann16json_abi_v3_11_310basic_jsonISt3mapSt6vectorS5_bxydSaNS9_14adl_serializerESC_IhSaIhEEvEEESt10_Select1stISH_ESt4lessIvESaISH_EE7_M_rootEv, symObjAddr: 0x28360, symBinAddr: 0x10002A2A4, symSize: 0x18 }
  - { offsetInCU: 0x48121, offset: 0x48121, size: 0x8, addend: 0x0, symName: __ZNSt8_Rb_treeINSt7__cxx1112basic_stringIcSt11char_traitsIcESaIcEEESt4pairIKS5_N8nlohmann16json_abi_v3_11_310basic_jsonISt3mapSt6vectorS5_bxydSaNS9_14adl_serializerESC_IhSaIhEEvEEESt10_Select1stISH_ESt4lessIvESaISH_EE13_Rb_tree_implISL_Lb1EEC1ERKSP_, symObjAddr: 0x282C0, symBinAddr: 0x10002A204, symSize: 0xA0 }
  - { offsetInCU: 0x48170, offset: 0x48170, size: 0x8, addend: 0x0, symName: __ZSt12__get_helperILm0EPSt3mapINSt7__cxx1112basic_stringIcSt11char_traitsIcESaIcEEEN8nlohmann16json_abi_v3_11_310basic_jsonIS0_St6vectorS6_bxydSaNS8_14adl_serializerESA_IhSaIhEEvEESt4lessIvESaISt4pairIKS6_SE_EEEJZNSE_6createISL_JRKSL_EEEPT_DpOT0_EUlSM_E_EERKT0_RKSt11_Tuple_implIXT_EJSW_DpT1_EE, symObjAddr: 0x282A4, symBinAddr: 0x10002A1E8, symSize: 0x1C }
  - { offsetInCU: 0x481BE, offset: 0x481BE, size: 0x8, addend: 0x0, symName: __ZSt3getILm1EJPSt3mapINSt7__cxx1112basic_stringIcSt11char_traitsIcESaIcEEEN8nlohmann16json_abi_v3_11_310basic_jsonIS0_St6vectorS6_bxydSaNS8_14adl_serializerESA_IhSaIhEEvEESt4lessIvESaISt4pairIKS6_SE_EEEZNSE_6createISL_JRKSL_EEEPT_DpOT0_EUlSM_E_EERNSt13tuple_elementIXT_ESt5tupleIJDpSS_EEE4typeERSZ_, symObjAddr: 0x28288, symBinAddr: 0x10002A1CC, symSize: 0x1C }
  - { offsetInCU: 0x48202, offset: 0x48202, size: 0x8, addend: 0x0, symName: __ZSt12__get_helperILm0EPSt3mapINSt7__cxx1112basic_stringIcSt11char_traitsIcESaIcEEEN8nlohmann16json_abi_v3_11_310basic_jsonIS0_St6vectorS6_bxydSaNS8_14adl_serializerESA_IhSaIhEEvEESt4lessIvESaISt4pairIKS6_SE_EEEJZNSE_6createISL_JRKSL_EEEPT_DpOT0_EUlSM_E_EERT0_RSt11_Tuple_implIXT_EJSW_DpT1_EE, symObjAddr: 0x2826C, symBinAddr: 0x10002A1B0, symSize: 0x1C }
  - { offsetInCU: 0x483AB, offset: 0x483AB, size: 0x8, addend: 0x0, symName: __ZNSt11_Tuple_implILm0EJPSt3mapINSt7__cxx1112basic_stringIcSt11char_traitsIcESaIcEEEN8nlohmann16json_abi_v3_11_310basic_jsonIS0_St6vectorS6_bxydSaNS8_14adl_serializerESA_IhSaIhEEvEESt4lessIvESaISt4pairIKS6_SE_EEEZNSE_6createISL_JRKSL_EEEPT_DpOT0_EUlSM_E_EEC2IRSM_JRKSV_EvEEOSQ_SU_, symObjAddr: 0x28210, symBinAddr: 0x10002A154, symSize: 0x5C }
  - { offsetInCU: 0x482E5, offset: 0x482E5, size: 0x8, addend: 0x0, symName: __ZNSt11__copy_moveILb0ELb1ESt26random_access_iterator_tagE8__copy_mIKiiEEPT0_PT_S7_S5_, symObjAddr: 0x28180, symBinAddr: 0x10002A0C4, symSize: 0x90 }
  - { offsetInCU: 0x48358, offset: 0x48358, size: 0x8, addend: 0x0, symName: __ZNSt15__new_allocatorIhE10deallocateEPhm, symObjAddr: 0x28158, symBinAddr: 0x10002A09C, symSize: 0x28 }
  - { offsetInCU: 0x483A2, offset: 0x483A2, size: 0x8, addend: 0x0, symName: __ZNK9__gnu_cxx17__normal_iteratorIPcSt6vectorIcSaIcEEEdeEv, symObjAddr: 0x28140, symBinAddr: 0x10002A084, symSize: 0x18 }
  - { offsetInCU: 0x483CC, offset: 0x483CC, size: 0x8, addend: 0x0, symName: __ZNK9__gnu_cxx17__normal_iteratorIPcSt6vectorIcSaIcEEEmiEl, symObjAddr: 0x28100, symBinAddr: 0x10002A044, symSize: 0x40 }
  - { offsetInCU: 0x48403, offset: 0x48403, size: 0x8, addend: 0x0, symName: __ZNSt6vectorIcSaIcEE11_S_relocateEPcS2_S2_RS0_, symObjAddr: 0x280CC, symBinAddr: 0x10002A010, symSize: 0x34 }
  - { offsetInCU: 0x48460, offset: 0x48460, size: 0x8, addend: 0x0, symName: __ZSt12__to_addressIcEPT_S1_, symObjAddr: 0x280B8, symBinAddr: 0x100029FFC, symSize: 0x14 }
  - { offsetInCU: 0x48496, offset: 0x48496, size: 0x8, addend: 0x0, symName: __ZNSt12_Vector_baseIcSaIcEE11_M_allocateEm, symObjAddr: 0x28068, symBinAddr: 0x100029FAC, symSize: 0x50 }
  - { offsetInCU: 0x48500, offset: 0x48500, size: 0x8, addend: 0x0, symName: __ZN9__gnu_cxxmiIPcSt6vectorIcSaIcEEEENS_17__normal_iteratorIT_T0_E15difference_typeERKS8_SB_, symObjAddr: 0x2802C, symBinAddr: 0x100029F70, symSize: 0x3C }
  - { offsetInCU: 0x48551, offset: 0x48551, size: 0x8, addend: 0x0, symName: __ZNSt6vectorIcSaIcEE5beginEv, symObjAddr: 0x28008, symBinAddr: 0x100029F4C, symSize: 0x24 }
  - { offsetInCU: 0x4857B, offset: 0x4857B, size: 0x8, addend: 0x0, symName: __ZNSt6vectorIcSaIcEE3endEv, symObjAddr: 0x27FE0, symBinAddr: 0x100029F24, symSize: 0x28 }
  - { offsetInCU: 0x485A5, offset: 0x485A5, size: 0x8, addend: 0x0, symName: __ZNKSt6vectorIcSaIcEE12_M_check_lenEmPKc, symObjAddr: 0x27F10, symBinAddr: 0x100029E54, symSize: 0xD0 }
  - { offsetInCU: 0x48640, offset: 0x48640, size: 0x8, addend: 0x0, symName: __ZN8nlohmann16json_abi_v3_11_36detail20external_constructorILNS1_7value_tE6EE9constructINS0_10basic_jsonISt3mapSt6vectorNSt7__cxx1112basic_stringIcSt11char_traitsIcESaIcEEEbxydSaNS0_14adl_serializerES8_IhSaIhEEvEEEEvRT_NSJ_17number_unsigned_tE, symObjAddr: 0x27EA8, symBinAddr: 0x100029DEC, symSize: 0x68 }
  - { offsetInCU: 0x48684, offset: 0x48684, size: 0x8, addend: 0x0, symName: __ZN8nlohmann16json_abi_v3_11_36detail20external_constructorILNS1_7value_tE4EE9constructINS0_10basic_jsonISt3mapSt6vectorNSt7__cxx1112basic_stringIcSt11char_traitsIcESaIcEEEbxydSaNS0_14adl_serializerES8_IhSaIhEEvEEEEvRT_NSJ_9boolean_tE, symObjAddr: 0x27E3C, symBinAddr: 0x100029D80, symSize: 0x6C }
  - { offsetInCU: 0x486C8, offset: 0x486C8, size: 0x8, addend: 0x0, symName: __ZN8nlohmann16json_abi_v3_11_36detail20external_constructorILNS1_7value_tE7EE9constructINS0_10basic_jsonISt3mapSt6vectorNSt7__cxx1112basic_stringIcSt11char_traitsIcESaIcEEEbxydSaNS0_14adl_serializerES8_IhSaIhEEvEEEEvRT_NSJ_14number_float_tE, symObjAddr: 0x27DD4, symBinAddr: 0x100029D18, symSize: 0x68 }
  - { offsetInCU: 0x48764, offset: 0x48764, size: 0x8, addend: 0x0, symName: __ZSt12__niter_wrapIN9__gnu_cxx17__normal_iteratorIPN8nlohmann16json_abi_v3_11_310basic_jsonISt3mapSt6vectorNSt7__cxx1112basic_stringIcSt11char_traitsIcESaIcEEEbxydSaNS3_14adl_serializerES6_IhSaIhEEvEES6_ISG_SaISG_EEEESH_ET_SL_T0_, symObjAddr: 0x27D8C, symBinAddr: 0x100029CD0, symSize: 0x48 }
  - { offsetInCU: 0x487B1, offset: 0x487B1, size: 0x8, addend: 0x0, symName: __ZSt14__copy_move_a1ILb1EPN8nlohmann16json_abi_v3_11_310basic_jsonISt3mapSt6vectorNSt7__cxx1112basic_stringIcSt11char_traitsIcESaIcEEEbxydSaNS1_14adl_serializerES4_IhSaIhEEvEESF_ET1_T0_SH_SG_, symObjAddr: 0x27D60, symBinAddr: 0x100029CA4, symSize: 0x2C }
  - { offsetInCU: 0x4882F, offset: 0x4882F, size: 0x8, addend: 0x0, symName: __ZNSt11__copy_moveILb0ELb0ESt26random_access_iterator_tagE8__copy_mISt13_Bit_iteratorS3_EET0_T_S5_S4_, symObjAddr: 0x27C98, symBinAddr: 0x100029BDC, symSize: 0xC8 }
  - { offsetInCU: 0x488C1, offset: 0x488C1, size: 0x8, addend: 0x0, symName: __ZSt14__copy_move_a2ILb0ESt19_Bit_const_iteratorSt13_Bit_iteratorET1_T0_S3_S2_, symObjAddr: 0x27C18, symBinAddr: 0x100029B5C, symSize: 0x80 }
  - { offsetInCU: 0x48929, offset: 0x48929, size: 0x8, addend: 0x0, symName: __ZSt14__copy_move_a2ILb0EPmS0_ET1_T0_S2_S1_, symObjAddr: 0x27BEC, symBinAddr: 0x100029B30, symSize: 0x2C }
  - { offsetInCU: 0x48991, offset: 0x48991, size: 0x8, addend: 0x0, symName: __ZNSt20__copy_move_backwardILb0ELb0ESt26random_access_iterator_tagE13__copy_move_bISt13_Bit_iteratorS3_EET0_T_S5_S4_, symObjAddr: 0x27B2C, symBinAddr: 0x100029A70, symSize: 0xC0 }
  - { offsetInCU: 0x48A03, offset: 0x48A03, size: 0x8, addend: 0x0, symName: __ZSt9__advanceIN9__gnu_cxx17__normal_iteratorIPKcNSt7__cxx1112basic_stringIcSt11char_traitsIcESaIcEEEEElEvRT_T0_St26random_access_iterator_tag, symObjAddr: 0x27B00, symBinAddr: 0x100029A44, symSize: 0x2C }
  - { offsetInCU: 0x48AB5, offset: 0x48AB5, size: 0x8, addend: 0x0, symName: __ZNSt10_Head_baseILm0EPN8nlohmann16json_abi_v3_11_327byte_container_with_subtypeISt6vectorIhSaIhEEEELb0EE7_M_headERKS8_, symObjAddr: 0x27AEC, symBinAddr: 0x100029A30, symSize: 0x14 }
  - { offsetInCU: 0x48ADE, offset: 0x48ADE, size: 0x8, addend: 0x0, symName: __ZNSt11_Tuple_implILm1EJZN8nlohmann16json_abi_v3_11_310basic_jsonISt3mapSt6vectorNSt7__cxx1112basic_stringIcSt11char_traitsIcESaIcEEEbxydSaNS1_14adl_serializerES4_IhSaIhEEvE6createINS1_27byte_container_with_subtypeISD_EEJEEEPT_DpOT0_EUlPSH_E_EE7_M_headERSP_, symObjAddr: 0x27AD0, symBinAddr: 0x100029A14, symSize: 0x1C }
  - { offsetInCU: 0x48B08, offset: 0x48B08, size: 0x8, addend: 0x0, symName: __ZNSt10_Head_baseILm0EPN8nlohmann16json_abi_v3_11_327byte_container_with_subtypeISt6vectorIhSaIhEEEELb0EE7_M_headERS8_, symObjAddr: 0x27ABC, symBinAddr: 0x100029A00, symSize: 0x14 }
  - { offsetInCU: 0x48C56, offset: 0x48C56, size: 0x8, addend: 0x0, symName: __ZNSt10_Head_baseILm1EZN8nlohmann16json_abi_v3_11_310basic_jsonISt3mapSt6vectorNSt7__cxx1112basic_stringIcSt11char_traitsIcESaIcEEEbxydSaNS1_14adl_serializerES4_IhSaIhEEvE6createINS1_27byte_container_with_subtypeISD_EEJEEEPT_DpOT0_EUlPSH_E_Lb0EEC2ERKSO_, symObjAddr: 0x27A94, symBinAddr: 0x1000299D8, symSize: 0x28 }
  - { offsetInCU: 0x48B87, offset: 0x48B87, size: 0x8, addend: 0x0, symName: __ZNSt10_Head_baseILm0EPNSt7__cxx1112basic_stringIcSt11char_traitsIcESaIcEEELb0EE7_M_headERKS7_, symObjAddr: 0x27A80, symBinAddr: 0x1000299C4, symSize: 0x14 }
  - { offsetInCU: 0x48BB0, offset: 0x48BB0, size: 0x8, addend: 0x0, symName: __ZNSt11_Tuple_implILm1EJZN8nlohmann16json_abi_v3_11_310basic_jsonISt3mapSt6vectorNSt7__cxx1112basic_stringIcSt11char_traitsIcESaIcEEEbxydSaNS1_14adl_serializerES4_IhSaIhEEvE6createISA_JRA1_KcEEEPT_DpOT0_EUlPSA_E_EE7_M_headERSQ_, symObjAddr: 0x27A64, symBinAddr: 0x1000299A8, symSize: 0x1C }
  - { offsetInCU: 0x48BDA, offset: 0x48BDA, size: 0x8, addend: 0x0, symName: __ZNSt10_Head_baseILm0EPNSt7__cxx1112basic_stringIcSt11char_traitsIcESaIcEEELb0EE7_M_headERS7_, symObjAddr: 0x27A50, symBinAddr: 0x100029994, symSize: 0x14 }
  - { offsetInCU: 0x48D0A, offset: 0x48D0A, size: 0x8, addend: 0x0, symName: __ZNSt10_Head_baseILm1EZN8nlohmann16json_abi_v3_11_310basic_jsonISt3mapSt6vectorNSt7__cxx1112basic_stringIcSt11char_traitsIcESaIcEEEbxydSaNS1_14adl_serializerES4_IhSaIhEEvE6createISA_JRA1_KcEEEPT_DpOT0_EUlPSA_E_Lb0EEC2ERKSP_, symObjAddr: 0x27A28, symBinAddr: 0x10002996C, symSize: 0x28 }
  - { offsetInCU: 0x48C59, offset: 0x48C59, size: 0x8, addend: 0x0, symName: __ZNSt11_Tuple_implILm1EJZN8nlohmann16json_abi_v3_11_310basic_jsonISt3mapSt6vectorNSt7__cxx1112basic_stringIcSt11char_traitsIcESaIcEEEbxydSaNS1_14adl_serializerES4_IhSaIhEEvE6createIS4_ISE_SaISE_EEJEEEPT_DpOT0_EUlPSH_E_EE7_M_headERSP_, symObjAddr: 0x27A0C, symBinAddr: 0x100029950, symSize: 0x1C }
  - { offsetInCU: 0x48D90, offset: 0x48D90, size: 0x8, addend: 0x0, symName: __ZNSt10_Head_baseILm1EZN8nlohmann16json_abi_v3_11_310basic_jsonISt3mapSt6vectorNSt7__cxx1112basic_stringIcSt11char_traitsIcESaIcEEEbxydSaNS1_14adl_serializerES4_IhSaIhEEvE6createIS4_ISE_SaISE_EEJEEEPT_DpOT0_EUlPSH_E_Lb0EEC2ERKSO_, symObjAddr: 0x279E4, symBinAddr: 0x100029928, symSize: 0x28 }
  - { offsetInCU: 0x48D25, offset: 0x48D25, size: 0x8, addend: 0x0, symName: __ZNSt10_Head_baseILm0EPSt3mapINSt7__cxx1112basic_stringIcSt11char_traitsIcESaIcEEEN8nlohmann16json_abi_v3_11_310basic_jsonIS0_St6vectorS6_bxydSaNS8_14adl_serializerESA_IhSaIhEEvEESt4lessIvESaISt4pairIKS6_SE_EEELb0EE7_M_headERKSN_, symObjAddr: 0x279D0, symBinAddr: 0x100029914, symSize: 0x14 }
  - { offsetInCU: 0x48D4E, offset: 0x48D4E, size: 0x8, addend: 0x0, symName: __ZNSt11_Tuple_implILm1EJZN8nlohmann16json_abi_v3_11_310basic_jsonISt3mapSt6vectorNSt7__cxx1112basic_stringIcSt11char_traitsIcESaIcEEEbxydSaNS1_14adl_serializerES4_IhSaIhEEvE6createIS3_ISA_SE_St4lessIvESaISt4pairIKSA_SE_EEEJEEEPT_DpOT0_EUlPSM_E_EE7_M_headERSU_, symObjAddr: 0x279B4, symBinAddr: 0x1000298F8, symSize: 0x1C }
  - { offsetInCU: 0x48D78, offset: 0x48D78, size: 0x8, addend: 0x0, symName: __ZNSt10_Head_baseILm0EPSt3mapINSt7__cxx1112basic_stringIcSt11char_traitsIcESaIcEEEN8nlohmann16json_abi_v3_11_310basic_jsonIS0_St6vectorS6_bxydSaNS8_14adl_serializerESA_IhSaIhEEvEESt4lessIvESaISt4pairIKS6_SE_EEELb0EE7_M_headERSN_, symObjAddr: 0x279A0, symBinAddr: 0x1000298E4, symSize: 0x14 }
  - { offsetInCU: 0x48EC8, offset: 0x48EC8, size: 0x8, addend: 0x0, symName: __ZNSt10_Head_baseILm1EZN8nlohmann16json_abi_v3_11_310basic_jsonISt3mapSt6vectorNSt7__cxx1112basic_stringIcSt11char_traitsIcESaIcEEEbxydSaNS1_14adl_serializerES4_IhSaIhEEvE6createIS3_ISA_SE_St4lessIvESaISt4pairIKSA_SE_EEEJEEEPT_DpOT0_EUlPSM_E_Lb0EEC2ERKST_, symObjAddr: 0x27978, symBinAddr: 0x1000298BC, symSize: 0x28 }
  - { offsetInCU: 0x48DF7, offset: 0x48DF7, size: 0x8, addend: 0x0, symName: __ZSt18uninitialized_copyIN9__gnu_cxx17__normal_iteratorIPKiSt6vectorIiSaIiEEEEPiET0_T_SA_S9_, symObjAddr: 0x2793C, symBinAddr: 0x100029880, symSize: 0x3C }
  - { offsetInCU: 0x48E88, offset: 0x48E88, size: 0x8, addend: 0x0, symName: __ZSt18uninitialized_copyIPiS0_ET0_T_S2_S1_, symObjAddr: 0x27900, symBinAddr: 0x100029844, symSize: 0x3C }
  - { offsetInCU: 0x48F03, offset: 0x48F03, size: 0x8, addend: 0x0, symName: __ZSt13__copy_move_aILb0EPiS0_ET1_T0_S2_S1_, symObjAddr: 0x278A0, symBinAddr: 0x1000297E4, symSize: 0x60 }
  - { offsetInCU: 0x48F6B, offset: 0x48F6B, size: 0x8, addend: 0x0, symName: __ZSt12__miter_baseIPiET_S1_, symObjAddr: 0x2788C, symBinAddr: 0x1000297D0, symSize: 0x14 }
  - { offsetInCU: 0x48F9E, offset: 0x48F9E, size: 0x8, addend: 0x0, symName: __ZSt8_DestroyIN9__gnu_cxx17__normal_iteratorIPiSt6vectorIiSaIiEEEEEvT_S7_, symObjAddr: 0x27864, symBinAddr: 0x1000297A8, symSize: 0x28 }
  - { offsetInCU: 0x48FE0, offset: 0x48FE0, size: 0x8, addend: 0x0, symName: __ZSt13__copy_move_aILb0EN9__gnu_cxx17__normal_iteratorIPKiSt6vectorIiSaIiEEEENS1_IPiS6_EEET1_T0_SB_SA_, symObjAddr: 0x27804, symBinAddr: 0x100029748, symSize: 0x60 }
  - { offsetInCU: 0x49048, offset: 0x49048, size: 0x8, addend: 0x0, symName: __ZSt12__miter_baseIN9__gnu_cxx17__normal_iteratorIPKiSt6vectorIiSaIiEEEEET_S8_, symObjAddr: 0x277F0, symBinAddr: 0x100029734, symSize: 0x14 }
  - { offsetInCU: 0x490E2, offset: 0x490E2, size: 0x8, addend: 0x0, symName: __ZN9__gnu_cxx17__normal_iteratorIPKiSt6vectorIiSaIiEEEC1ERKS2_, symObjAddr: 0x277C8, symBinAddr: 0x10002970C, symSize: 0x28 }
  - { offsetInCU: 0x490D6, offset: 0x490D6, size: 0x8, addend: 0x0, symName: __ZNSt6vectorIiSaIiEE15_M_erase_at_endEPi, symObjAddr: 0x27740, symBinAddr: 0x100029684, symSize: 0x88 }
  - { offsetInCU: 0x49258, offset: 0x49258, size: 0x8, addend: 0x0, symName: __ZNSt4pairIKiSt6vectorIS1_IiSaIiEESaIS3_EEEC1IJRS0_EJLm0EEJEJEEERSt5tupleIJDpT_EERS9_IJDpT1_EESt12_Index_tupleIJXspT0_EEESI_IJXspT2_EEE, symObjAddr: 0x276E4, symBinAddr: 0x100029628, symSize: 0x5C }
  - { offsetInCU: 0x49243, offset: 0x49243, size: 0x8, addend: 0x0, symName: __ZSt9__fill_a1IPiiEN9__gnu_cxx11__enable_ifIXsrSt11__is_scalarIT0_E7__valueEvE6__typeET_S8_RKS4_, symObjAddr: 0x2768C, symBinAddr: 0x1000295D0, symSize: 0x58 }
  - { offsetInCU: 0x492B2, offset: 0x492B2, size: 0x8, addend: 0x0, symName: __ZSt18uninitialized_copyIPKN8nlohmann16json_abi_v3_11_36detail8json_refINS1_10basic_jsonISt3mapSt6vectorNSt7__cxx1112basic_stringIcSt11char_traitsIcESaIcEEEbxydSaNS1_14adl_serializerES6_IhSaIhEEvEEEEPSG_ET0_T_SM_SL_, symObjAddr: 0x27658, symBinAddr: 0x10002959C, symSize: 0x34 }
  - { offsetInCU: 0x49350, offset: 0x49350, size: 0x8, addend: 0x0, symName: __ZNSt10_Head_baseILm0EPSt6vectorIN8nlohmann16json_abi_v3_11_310basic_jsonISt3mapS0_NSt7__cxx1112basic_stringIcSt11char_traitsIcESaIcEEEbxydSaNS2_14adl_serializerES0_IhSaIhEEvEESaISE_EELb0EE7_M_headERKSI_, symObjAddr: 0x27644, symBinAddr: 0x100029588, symSize: 0x14 }
  - { offsetInCU: 0x49379, offset: 0x49379, size: 0x8, addend: 0x0, symName: __ZNSt11_Tuple_implILm1EJZN8nlohmann16json_abi_v3_11_310basic_jsonISt3mapSt6vectorNSt7__cxx1112basic_stringIcSt11char_traitsIcESaIcEEEbxydSaNS1_14adl_serializerES4_IhSaIhEEvE6createIS4_ISE_SaISE_EEJPKNS1_6detail8json_refISE_EESM_EEEPT_DpOT0_EUlPSH_E_EE7_M_headERSU_, symObjAddr: 0x27628, symBinAddr: 0x10002956C, symSize: 0x1C }
  - { offsetInCU: 0x493A3, offset: 0x493A3, size: 0x8, addend: 0x0, symName: __ZNSt10_Head_baseILm0EPSt6vectorIN8nlohmann16json_abi_v3_11_310basic_jsonISt3mapS0_NSt7__cxx1112basic_stringIcSt11char_traitsIcESaIcEEEbxydSaNS2_14adl_serializerES0_IhSaIhEEvEESaISE_EELb0EE7_M_headERSI_, symObjAddr: 0x27614, symBinAddr: 0x100029558, symSize: 0x14 }
  - { offsetInCU: 0x494F8, offset: 0x494F8, size: 0x8, addend: 0x0, symName: __ZNSt10_Head_baseILm1EZN8nlohmann16json_abi_v3_11_310basic_jsonISt3mapSt6vectorNSt7__cxx1112basic_stringIcSt11char_traitsIcESaIcEEEbxydSaNS1_14adl_serializerES4_IhSaIhEEvE6createIS4_ISE_SaISE_EEJPKNS1_6detail8json_refISE_EESM_EEEPT_DpOT0_EUlPSH_E_Lb0EEC2ERKST_, symObjAddr: 0x275EC, symBinAddr: 0x100029530, symSize: 0x28 }
  - { offsetInCU: 0x4942B, offset: 0x4942B, size: 0x8, addend: 0x0, symName: __ZNK9__gnu_cxx16__aligned_membufISt4pairIKNSt7__cxx1112basic_stringIcSt11char_traitsIcESaIcEEEN8nlohmann16json_abi_v3_11_310basic_jsonISt3mapSt6vectorS7_bxydSaNSA_14adl_serializerESD_IhSaIhEEvEEEE7_M_addrEv, symObjAddr: 0x275D8, symBinAddr: 0x10002951C, symSize: 0x14 }
  - { offsetInCU: 0x49454, offset: 0x49454, size: 0x8, addend: 0x0, symName: __ZNSt15__new_allocatorISt13_Rb_tree_nodeISt4pairIKNSt7__cxx1112basic_stringIcSt11char_traitsIcESaIcEEEN8nlohmann16json_abi_v3_11_310basic_jsonISt3mapSt6vectorS7_bxydSaNSA_14adl_serializerESD_IhSaIhEEvEEEEE10deallocateEPSJ_m, symObjAddr: 0x2759C, symBinAddr: 0x1000294E0, symSize: 0x3C }
  - { offsetInCU: 0x49598, offset: 0x49598, size: 0x8, addend: 0x0, symName: __ZNSt4pairIKNSt7__cxx1112basic_stringIcSt11char_traitsIcESaIcEEEN8nlohmann16json_abi_v3_11_310basic_jsonISt3mapSt6vectorS5_bxydSaNS8_14adl_serializerESB_IhSaIhEEvEEED1Ev, symObjAddr: 0x27570, symBinAddr: 0x1000294B4, symSize: 0x2C }
  - { offsetInCU: 0x49564, offset: 0x49564, size: 0x8, addend: 0x0, symName: __ZNSt15__new_allocatorISt13_Rb_tree_nodeISt4pairIKNSt7__cxx1112basic_stringIcSt11char_traitsIcESaIcEEEN8nlohmann16json_abi_v3_11_310basic_jsonISt3mapSt6vectorS7_bxydSaNSA_14adl_serializerESD_IhSaIhEEvEEEEE8allocateEmPKv, symObjAddr: 0x274E0, symBinAddr: 0x100029424, symSize: 0x90 }
  - { offsetInCU: 0x49631, offset: 0x49631, size: 0x8, addend: 0x0, symName: __ZNSt6vectorIhSaIhEEC2ERKS1_, symObjAddr: 0x273CC, symBinAddr: 0x100029310, symSize: 0x114 }
  - { offsetInCU: 0x4972D, offset: 0x4972D, size: 0x8, addend: 0x0, symName: __ZSt3getILm0EJPN8nlohmann16json_abi_v3_11_327byte_container_with_subtypeISt6vectorIhSaIhEEEEZNS1_10basic_jsonISt3mapS3_NSt7__cxx1112basic_stringIcSt11char_traitsIcESaIcEEEbxydSaNS1_14adl_serializerES5_vE6createIS6_JRKS6_EEEPT_DpOT0_EUlS7_E_EERKNSt13tuple_elementIXT_ESt5tupleIJDpSN_EEE4typeERKSU_, symObjAddr: 0x273B0, symBinAddr: 0x1000292F4, symSize: 0x1C }
  - { offsetInCU: 0x49775, offset: 0x49775, size: 0x8, addend: 0x0, symName: __ZNSt15__uniq_ptr_implIN8nlohmann16json_abi_v3_11_327byte_container_with_subtypeISt6vectorIhSaIhEEEEZNS1_10basic_jsonISt3mapS3_NSt7__cxx1112basic_stringIcSt11char_traitsIcESaIcEEEbxydSaNS1_14adl_serializerES5_vE6createIS6_JRKS6_EEEPT_DpOT0_EUlPS6_E_E10_M_deleterEv, symObjAddr: 0x27394, symBinAddr: 0x1000292D8, symSize: 0x1C }
  - { offsetInCU: 0x497A1, offset: 0x497A1, size: 0x8, addend: 0x0, symName: __ZSt3getILm0EJPN8nlohmann16json_abi_v3_11_327byte_container_with_subtypeISt6vectorIhSaIhEEEEZNS1_10basic_jsonISt3mapS3_NSt7__cxx1112basic_stringIcSt11char_traitsIcESaIcEEEbxydSaNS1_14adl_serializerES5_vE6createIS6_JRKS6_EEEPT_DpOT0_EUlS7_E_EERNSt13tuple_elementIXT_ESt5tupleIJDpSN_EEE4typeERSU_, symObjAddr: 0x27378, symBinAddr: 0x1000292BC, symSize: 0x1C }
  - { offsetInCU: 0x49939, offset: 0x49939, size: 0x8, addend: 0x0, symName: __ZNSt5tupleIJPN8nlohmann16json_abi_v3_11_327byte_container_with_subtypeISt6vectorIhSaIhEEEEZNS1_10basic_jsonISt3mapS3_NSt7__cxx1112basic_stringIcSt11char_traitsIcESaIcEEEbxydSaNS1_14adl_serializerES5_vE6createIS6_JRKS6_EEEPT_DpOT0_EUlS7_E_EEC1IRS7_RKSQ_Lb1EEEOSL_OT0_, symObjAddr: 0x27328, symBinAddr: 0x10002926C, symSize: 0x50 }
  - { offsetInCU: 0x4987D, offset: 0x4987D, size: 0x8, addend: 0x0, symName: __ZSt7forwardIRKZN8nlohmann16json_abi_v3_11_310basic_jsonISt3mapSt6vectorNSt7__cxx1112basic_stringIcSt11char_traitsIcESaIcEEEbxydSaNS1_14adl_serializerES4_IhSaIhEEvE6createINS1_27byte_container_with_subtypeISD_EEJRKSH_EEEPT_DpOT0_EUlPSH_E_EOSK_RNSt16remove_referenceISK_E4typeE, symObjAddr: 0x27314, symBinAddr: 0x100029258, symSize: 0x14 }
  - { offsetInCU: 0x498B5, offset: 0x498B5, size: 0x8, addend: 0x0, symName: __ZSt3getILm0EJPNSt7__cxx1112basic_stringIcSt11char_traitsIcESaIcEEEZN8nlohmann16json_abi_v3_11_310basic_jsonISt3mapSt6vectorS5_bxydSaNS8_14adl_serializerESB_IhSaIhEEvE6createIS5_JRKS5_EEEPT_DpOT0_EUlS6_E_EERKNSt13tuple_elementIXT_ESt5tupleIJDpSL_EEE4typeERKSS_, symObjAddr: 0x272F8, symBinAddr: 0x10002923C, symSize: 0x1C }
  - { offsetInCU: 0x498FD, offset: 0x498FD, size: 0x8, addend: 0x0, symName: __ZNSt15__uniq_ptr_implINSt7__cxx1112basic_stringIcSt11char_traitsIcESaIcEEEZN8nlohmann16json_abi_v3_11_310basic_jsonISt3mapSt6vectorS5_bxydSaNS7_14adl_serializerESA_IhSaIhEEvE6createIS5_JRKS5_EEEPT_DpOT0_EUlPS5_E_E10_M_deleterEv, symObjAddr: 0x272DC, symBinAddr: 0x100029220, symSize: 0x1C }
  - { offsetInCU: 0x49929, offset: 0x49929, size: 0x8, addend: 0x0, symName: __ZSt3getILm0EJPNSt7__cxx1112basic_stringIcSt11char_traitsIcESaIcEEEZN8nlohmann16json_abi_v3_11_310basic_jsonISt3mapSt6vectorS5_bxydSaNS8_14adl_serializerESB_IhSaIhEEvE6createIS5_JRKS5_EEEPT_DpOT0_EUlS6_E_EERNSt13tuple_elementIXT_ESt5tupleIJDpSL_EEE4typeERSS_, symObjAddr: 0x272C0, symBinAddr: 0x100029204, symSize: 0x1C }
  - { offsetInCU: 0x49A9D, offset: 0x49A9D, size: 0x8, addend: 0x0, symName: __ZNSt5tupleIJPNSt7__cxx1112basic_stringIcSt11char_traitsIcESaIcEEEZN8nlohmann16json_abi_v3_11_310basic_jsonISt3mapSt6vectorS5_bxydSaNS8_14adl_serializerESB_IhSaIhEEvE6createIS5_JRKS5_EEEPT_DpOT0_EUlS6_E_EEC1IRS6_RKSO_Lb1EEEOSJ_OT0_, symObjAddr: 0x27270, symBinAddr: 0x1000291B4, symSize: 0x50 }
  - { offsetInCU: 0x49A05, offset: 0x49A05, size: 0x8, addend: 0x0, symName: __ZSt7forwardIRKZN8nlohmann16json_abi_v3_11_310basic_jsonISt3mapSt6vectorNSt7__cxx1112basic_stringIcSt11char_traitsIcESaIcEEEbxydSaNS1_14adl_serializerES4_IhSaIhEEvE6createISA_JRKSA_EEEPT_DpOT0_EUlPSA_E_EOSI_RNSt16remove_referenceISI_E4typeE, symObjAddr: 0x2725C, symBinAddr: 0x1000291A0, symSize: 0x14 }
  - { offsetInCU: 0x49B0A, offset: 0x49B0A, size: 0x8, addend: 0x0, symName: __ZNSt6vectorIN8nlohmann16json_abi_v3_11_310basic_jsonISt3mapS_NSt7__cxx1112basic_stringIcSt11char_traitsIcESaIcEEEbxydSaNS1_14adl_serializerES_IhSaIhEEvEESaISD_EEC1ERKSF_, symObjAddr: 0x27148, symBinAddr: 0x10002908C, symSize: 0x114 }
  - { offsetInCU: 0x49B78, offset: 0x49B78, size: 0x8, addend: 0x0, symName: __ZSt3getILm0EJPSt6vectorIN8nlohmann16json_abi_v3_11_310basic_jsonISt3mapS0_NSt7__cxx1112basic_stringIcSt11char_traitsIcESaIcEEEbxydSaNS2_14adl_serializerES0_IhSaIhEEvEESaISE_EEZNSE_6createISG_JRKSG_EEEPT_DpOT0_EUlSH_E_EERKNSt13tuple_elementIXT_ESt5tupleIJDpSN_EEE4typeERKSU_, symObjAddr: 0x2712C, symBinAddr: 0x100029070, symSize: 0x1C }
  - { offsetInCU: 0x49BC0, offset: 0x49BC0, size: 0x8, addend: 0x0, symName: __ZNSt15__uniq_ptr_implISt6vectorIN8nlohmann16json_abi_v3_11_310basic_jsonISt3mapS0_NSt7__cxx1112basic_stringIcSt11char_traitsIcESaIcEEEbxydSaNS2_14adl_serializerES0_IhSaIhEEvEESaISE_EEZNSE_6createISG_JRKSG_EEEPT_DpOT0_EUlPSG_E_E10_M_deleterEv, symObjAddr: 0x27110, symBinAddr: 0x100029054, symSize: 0x1C }
  - { offsetInCU: 0x49BEC, offset: 0x49BEC, size: 0x8, addend: 0x0, symName: __ZSt3getILm0EJPSt6vectorIN8nlohmann16json_abi_v3_11_310basic_jsonISt3mapS0_NSt7__cxx1112basic_stringIcSt11char_traitsIcESaIcEEEbxydSaNS2_14adl_serializerES0_IhSaIhEEvEESaISE_EEZNSE_6createISG_JRKSG_EEEPT_DpOT0_EUlSH_E_EERNSt13tuple_elementIXT_ESt5tupleIJDpSN_EEE4typeERSU_, symObjAddr: 0x270F4, symBinAddr: 0x100029038, symSize: 0x1C }
  - { offsetInCU: 0x49D6E, offset: 0x49D6E, size: 0x8, addend: 0x0, symName: __ZNSt5tupleIJPSt6vectorIN8nlohmann16json_abi_v3_11_310basic_jsonISt3mapS0_NSt7__cxx1112basic_stringIcSt11char_traitsIcESaIcEEEbxydSaNS2_14adl_serializerES0_IhSaIhEEvEESaISE_EEZNSE_6createISG_JRKSG_EEEPT_DpOT0_EUlSH_E_EEC1IRSH_RKSQ_Lb1EEEOSL_OT0_, symObjAddr: 0x270A4, symBinAddr: 0x100028FE8, symSize: 0x50 }
  - { offsetInCU: 0x49CC8, offset: 0x49CC8, size: 0x8, addend: 0x0, symName: __ZSt7forwardIRKZN8nlohmann16json_abi_v3_11_310basic_jsonISt3mapSt6vectorNSt7__cxx1112basic_stringIcSt11char_traitsIcESaIcEEEbxydSaNS1_14adl_serializerES4_IhSaIhEEvE6createIS4_ISE_SaISE_EEJRKSH_EEEPT_DpOT0_EUlPSH_E_EOSK_RNSt16remove_referenceISK_E4typeE, symObjAddr: 0x27090, symBinAddr: 0x100028FD4, symSize: 0x14 }
  - { offsetInCU: 0x49E04, offset: 0x49E04, size: 0x8, addend: 0x0, symName: __ZNSt8_Rb_treeINSt7__cxx1112basic_stringIcSt11char_traitsIcESaIcEEESt4pairIKS5_N8nlohmann16json_abi_v3_11_310basic_jsonISt3mapSt6vectorS5_bxydSaNS9_14adl_serializerESC_IhSaIhEEvEEESt10_Select1stISH_ESt4lessIvESaISH_EEC1ERKSN_, symObjAddr: 0x2700C, symBinAddr: 0x100028F50, symSize: 0x84 }
  - { offsetInCU: 0x49D57, offset: 0x49D57, size: 0x8, addend: 0x0, symName: __ZSt3getILm0EJPSt3mapINSt7__cxx1112basic_stringIcSt11char_traitsIcESaIcEEEN8nlohmann16json_abi_v3_11_310basic_jsonIS0_St6vectorS6_bxydSaNS8_14adl_serializerESA_IhSaIhEEvEESt4lessIvESaISt4pairIKS6_SE_EEEZNSE_6createISL_JRKSL_EEEPT_DpOT0_EUlSM_E_EERKNSt13tuple_elementIXT_ESt5tupleIJDpSS_EEE4typeERKSZ_, symObjAddr: 0x26FF0, symBinAddr: 0x100028F34, symSize: 0x1C }
  - { offsetInCU: 0x49D9F, offset: 0x49D9F, size: 0x8, addend: 0x0, symName: __ZNSt15__uniq_ptr_implISt3mapINSt7__cxx1112basic_stringIcSt11char_traitsIcESaIcEEEN8nlohmann16json_abi_v3_11_310basic_jsonIS0_St6vectorS6_bxydSaNS8_14adl_serializerESA_IhSaIhEEvEESt4lessIvESaISt4pairIKS6_SE_EEEZNSE_6createISL_JRKSL_EEEPT_DpOT0_EUlPSL_E_E10_M_deleterEv, symObjAddr: 0x26FD4, symBinAddr: 0x100028F18, symSize: 0x1C }
  - { offsetInCU: 0x49DCB, offset: 0x49DCB, size: 0x8, addend: 0x0, symName: __ZSt3getILm0EJPSt3mapINSt7__cxx1112basic_stringIcSt11char_traitsIcESaIcEEEN8nlohmann16json_abi_v3_11_310basic_jsonIS0_St6vectorS6_bxydSaNS8_14adl_serializerESA_IhSaIhEEvEESt4lessIvESaISt4pairIKS6_SE_EEEZNSE_6createISL_JRKSL_EEEPT_DpOT0_EUlSM_E_EERNSt13tuple_elementIXT_ESt5tupleIJDpSS_EEE4typeERSZ_, symObjAddr: 0x26FB8, symBinAddr: 0x100028EFC, symSize: 0x1C }
  - { offsetInCU: 0x49F67, offset: 0x49F67, size: 0x8, addend: 0x0, symName: __ZNSt5tupleIJPSt3mapINSt7__cxx1112basic_stringIcSt11char_traitsIcESaIcEEEN8nlohmann16json_abi_v3_11_310basic_jsonIS0_St6vectorS6_bxydSaNS8_14adl_serializerESA_IhSaIhEEvEESt4lessIvESaISt4pairIKS6_SE_EEEZNSE_6createISL_JRKSL_EEEPT_DpOT0_EUlSM_E_EEC1IRSM_RKSV_Lb1EEEOSQ_OT0_, symObjAddr: 0x26F68, symBinAddr: 0x100028EAC, symSize: 0x50 }
  - { offsetInCU: 0x49EA7, offset: 0x49EA7, size: 0x8, addend: 0x0, symName: __ZSt7forwardIRKZN8nlohmann16json_abi_v3_11_310basic_jsonISt3mapSt6vectorNSt7__cxx1112basic_stringIcSt11char_traitsIcESaIcEEEbxydSaNS1_14adl_serializerES4_IhSaIhEEvE6createIS3_ISA_SE_St4lessIvESaISt4pairIKSA_SE_EEEJRKSM_EEEPT_DpOT0_EUlPSM_E_EOSP_RNSt16remove_referenceISP_E4typeE, symObjAddr: 0x26F54, symBinAddr: 0x100028E98, symSize: 0x14 }
  - { offsetInCU: 0x49ED9, offset: 0x49ED9, size: 0x8, addend: 0x0, symName: __ZSt14__copy_move_a2ILb0EPKiPiET1_T0_S4_S3_, symObjAddr: 0x26F28, symBinAddr: 0x100028E6C, symSize: 0x2C }
  - { offsetInCU: 0x49F41, offset: 0x49F41, size: 0x8, addend: 0x0, symName: __ZNSt12_Destroy_auxILb1EE9__destroyIPhEEvT_S3_, symObjAddr: 0x26F10, symBinAddr: 0x100028E54, symSize: 0x18 }
  - { offsetInCU: 0x49FAB, offset: 0x49FAB, size: 0x8, addend: 0x0, symName: __ZNSt20back_insert_iteratorISt6vectorIN8nlohmann16json_abi_v3_11_310basic_jsonISt3mapS0_NSt7__cxx1112basic_stringIcSt11char_traitsIcESaIcEEEbxydSaNS2_14adl_serializerES0_IhSaIhEEvEESaISE_EEEppEv, symObjAddr: 0x26EFC, symBinAddr: 0x100028E40, symSize: 0x14 }
  - { offsetInCU: 0x49FD5, offset: 0x49FD5, size: 0x8, addend: 0x0, symName: __ZNSt20back_insert_iteratorISt6vectorIN8nlohmann16json_abi_v3_11_310basic_jsonISt3mapS0_NSt7__cxx1112basic_stringIcSt11char_traitsIcESaIcEEEbxydSaNS2_14adl_serializerES0_IhSaIhEEvEESaISE_EEEaSEOSE_, symObjAddr: 0x26EBC, symBinAddr: 0x100028E00, symSize: 0x40 }
  - { offsetInCU: 0x4A010, offset: 0x4A010, size: 0x8, addend: 0x0, symName: __ZNSt20back_insert_iteratorISt6vectorIN8nlohmann16json_abi_v3_11_310basic_jsonISt3mapS0_NSt7__cxx1112basic_stringIcSt11char_traitsIcESaIcEEEbxydSaNS2_14adl_serializerES0_IhSaIhEEvEESaISE_EEEdeEv, symObjAddr: 0x26EA8, symBinAddr: 0x100028DEC, symSize: 0x14 }
  - { offsetInCU: 0x4A066, offset: 0x4A066, size: 0x8, addend: 0x0, symName: __ZNSt6vectorIcSaIcEE4backEv, symObjAddr: 0x26E70, symBinAddr: 0x100028DB4, symSize: 0x38 }
  - { offsetInCU: 0x4A090, offset: 0x4A090, size: 0x8, addend: 0x0, symName: __ZNSt6vectorIcSaIcEE17_M_realloc_appendIJcEEEvDpOT_, symObjAddr: 0x26CC0, symBinAddr: 0x100028C04, symSize: 0x1B0 }
  - { offsetInCU: 0x4A259, offset: 0x4A259, size: 0x8, addend: 0x0, symName: __ZZNSt6vectorIcSaIcEE17_M_realloc_appendIJcEEEvDpOT_EN6_GuardC1EPcmRS0_, symObjAddr: 0x26C1C, symBinAddr: 0x100028B60, symSize: 0x44 }
  - { offsetInCU: 0x4A298, offset: 0x4A298, size: 0x8, addend: 0x0, symName: __ZZNSt6vectorIcSaIcEE17_M_realloc_appendIJcEEEvDpOT_EN6_GuardD1Ev, symObjAddr: 0x26C60, symBinAddr: 0x100028BA4, symSize: 0x60 }
  - { offsetInCU: 0x4A38D, offset: 0x4A38D, size: 0x8, addend: 0x0, symName: __ZN8nlohmann16json_abi_v3_11_36detail7to_jsonINS0_10basic_jsonISt3mapSt6vectorNSt7__cxx1112basic_stringIcSt11char_traitsIcESaIcEEEbxydSaNS0_14adl_serializerES5_IhSaIhEEvEEyLi0EEEvRT_T0_, symObjAddr: 0x26BF4, symBinAddr: 0x100028B38, symSize: 0x28 }
  - { offsetInCU: 0x4A3DA, offset: 0x4A3DA, size: 0x8, addend: 0x0, symName: __ZN8nlohmann16json_abi_v3_11_36detail7to_jsonINS0_10basic_jsonISt3mapSt6vectorNSt7__cxx1112basic_stringIcSt11char_traitsIcESaIcEEEbxydSaNS0_14adl_serializerES5_IhSaIhEEvEExLi0EEEvRT_T0_, symObjAddr: 0x26BCC, symBinAddr: 0x100028B10, symSize: 0x28 }
  - { offsetInCU: 0x4A427, offset: 0x4A427, size: 0x8, addend: 0x0, symName: __ZN8nlohmann16json_abi_v3_11_36detail7to_jsonINS0_10basic_jsonISt3mapSt6vectorNSt7__cxx1112basic_stringIcSt11char_traitsIcESaIcEEEbxydSaNS0_14adl_serializerES5_IhSaIhEEvEEbLi0EEEvRT_T0_, symObjAddr: 0x26B9C, symBinAddr: 0x100028AE0, symSize: 0x30 }
  - { offsetInCU: 0x4A474, offset: 0x4A474, size: 0x8, addend: 0x0, symName: __ZN8nlohmann16json_abi_v3_11_36detail7to_jsonINS0_10basic_jsonISt3mapSt6vectorNSt7__cxx1112basic_stringIcSt11char_traitsIcESaIcEEEbxydSaNS0_14adl_serializerES5_IhSaIhEEvEEdLi0EEEvRT_T0_, symObjAddr: 0x26B74, symBinAddr: 0x100028AB8, symSize: 0x28 }
  - { offsetInCU: 0x4A4C5, offset: 0x4A4C5, size: 0x8, addend: 0x0, symName: __ZNSt8_Rb_treeINSt7__cxx1112basic_stringIcSt11char_traitsIcESaIcEEESt4pairIKS5_N8nlohmann16json_abi_v3_11_310basic_jsonISt3mapSt6vectorS5_bxydSaNS9_14adl_serializerESC_IhSaIhEEvEEESt10_Select1stISH_ESt4lessIvESaISH_EE17_M_construct_nodeIJRKSt21piecewise_construct_tSt5tupleIJRS7_EESS_IJEEEEEvPSt13_Rb_tree_nodeISH_EDpOT_, symObjAddr: 0x269F8, symBinAddr: 0x10002893C, symSize: 0x17C }
  - { offsetInCU: 0x4A5C2, offset: 0x4A5C2, size: 0x8, addend: 0x0, symName: __ZN8nlohmann16json_abi_v3_11_36detail20external_constructorILNS1_7value_tE3EE9constructINS0_10basic_jsonISt3mapSt6vectorNSt7__cxx1112basic_stringIcSt11char_traitsIcESaIcEEEbxydSaNS0_14adl_serializerES8_IhSaIhEEvEEEEvRT_RKNSJ_8string_tE, symObjAddr: 0x26990, symBinAddr: 0x1000288D4, symSize: 0x68 }
  - { offsetInCU: 0x4A606, offset: 0x4A606, size: 0x8, addend: 0x0, symName: __ZSt13__copy_move_aILb1EN9__gnu_cxx17__normal_iteratorIPN8nlohmann16json_abi_v3_11_310basic_jsonISt3mapSt6vectorNSt7__cxx1112basic_stringIcSt11char_traitsIcESaIcEEEbxydSaNS3_14adl_serializerES6_IhSaIhEEvEES6_ISG_SaISG_EEEESK_ET1_T0_SM_SL_, symObjAddr: 0x26930, symBinAddr: 0x100028874, symSize: 0x60 }
  - { offsetInCU: 0x4A684, offset: 0x4A684, size: 0x8, addend: 0x0, symName: __ZSt14__relocate_a_1IPN8nlohmann16json_abi_v3_11_310basic_jsonISt3mapSt6vectorNSt7__cxx1112basic_stringIcSt11char_traitsIcESaIcEEEbxydSaNS1_14adl_serializerES4_IhSaIhEEvEESF_ENSt9enable_ifIXsrSt24__is_bitwise_relocatableIT_vE5valueEPSI_E4typeESK_SK_SK_RSaIT0_E, symObjAddr: 0x268CC, symBinAddr: 0x100028810, symSize: 0x64 }
  - { offsetInCU: 0x4A704, offset: 0x4A704, size: 0x8, addend: 0x0, symName: __ZSt12__niter_baseIPPN8nlohmann16json_abi_v3_11_310basic_jsonISt3mapSt6vectorNSt7__cxx1112basic_stringIcSt11char_traitsIcESaIcEEEbxydSaNS1_14adl_serializerES4_IhSaIhEEvEEET_SH_, symObjAddr: 0x268B8, symBinAddr: 0x1000287FC, symSize: 0x14 }
  - { offsetInCU: 0x4A73B, offset: 0x4A73B, size: 0x8, addend: 0x0, symName: __ZNSt15__new_allocatorIPN8nlohmann16json_abi_v3_11_310basic_jsonISt3mapSt6vectorNSt7__cxx1112basic_stringIcSt11char_traitsIcESaIcEEEbxydSaNS1_14adl_serializerES4_IhSaIhEEvEEE8allocateEmPKv, symObjAddr: 0x2683C, symBinAddr: 0x100028780, symSize: 0x7C }
  - { offsetInCU: 0x4A7C7, offset: 0x4A7C7, size: 0x8, addend: 0x0, symName: __ZNKSt12_Vector_baseIPN8nlohmann16json_abi_v3_11_310basic_jsonISt3mapSt6vectorNSt7__cxx1112basic_stringIcSt11char_traitsIcESaIcEEEbxydSaNS1_14adl_serializerES4_IhSaIhEEvEESaISF_EE19_M_get_Tp_allocatorEv, symObjAddr: 0x26828, symBinAddr: 0x10002876C, symSize: 0x14 }
  - { offsetInCU: 0x4A7ED, offset: 0x4A7ED, size: 0x8, addend: 0x0, symName: __ZNSt6vectorIPN8nlohmann16json_abi_v3_11_310basic_jsonISt3mapS_NSt7__cxx1112basic_stringIcSt11char_traitsIcESaIcEEEbxydSaNS1_14adl_serializerES_IhSaIhEEvEESaISE_EE11_S_max_sizeERKSF_, symObjAddr: 0x267D4, symBinAddr: 0x100028718, symSize: 0x54 }
  - { offsetInCU: 0x4A8A4, offset: 0x4A8A4, size: 0x8, addend: 0x0, symName: __ZSt14__copy_move_a2ILb0ESt13_Bit_iteratorS0_ET1_T0_S2_S1_, symObjAddr: 0x26754, symBinAddr: 0x100028698, symSize: 0x80 }
  - { offsetInCU: 0x4A90C, offset: 0x4A90C, size: 0x8, addend: 0x0, symName: __ZSt14__copy_move_a1ILb0ESt19_Bit_const_iteratorSt13_Bit_iteratorET1_T0_S3_S2_, symObjAddr: 0x266D4, symBinAddr: 0x100028618, symSize: 0x80 }
  - { offsetInCU: 0x4A974, offset: 0x4A974, size: 0x8, addend: 0x0, symName: __ZSt12__niter_baseISt19_Bit_const_iteratorET_S1_, symObjAddr: 0x26698, symBinAddr: 0x1000285DC, symSize: 0x3C }
  - { offsetInCU: 0x4A9A7, offset: 0x4A9A7, size: 0x8, addend: 0x0, symName: __ZSt12__niter_wrapIPmET_RKS1_S1_, symObjAddr: 0x26680, symBinAddr: 0x1000285C4, symSize: 0x18 }
  - { offsetInCU: 0x4A9E3, offset: 0x4A9E3, size: 0x8, addend: 0x0, symName: __ZSt14__copy_move_a1ILb0EPmS0_ET1_T0_S2_S1_, symObjAddr: 0x26654, symBinAddr: 0x100028598, symSize: 0x2C }
  - { offsetInCU: 0x4AA4B, offset: 0x4AA4B, size: 0x8, addend: 0x0, symName: __ZSt12__niter_baseIPmET_S1_, symObjAddr: 0x26640, symBinAddr: 0x100028584, symSize: 0x14 }
  - { offsetInCU: 0x4AA94, offset: 0x4AA94, size: 0x8, addend: 0x0, symName: __ZSt23__copy_move_backward_a2ILb0ESt13_Bit_iteratorS0_ET1_T0_S2_S1_, symObjAddr: 0x265C0, symBinAddr: 0x100028504, symSize: 0x80 }
  - { offsetInCU: 0x4ABAC, offset: 0x4ABAC, size: 0x8, addend: 0x0, symName: __ZNSt15__new_allocatorIhED2Ev, symObjAddr: 0x265AC, symBinAddr: 0x1000284F0, symSize: 0x14 }
  - { offsetInCU: 0x4AC01, offset: 0x4AC01, size: 0x8, addend: 0x0, symName: __ZNSt12_Vector_baseIhSaIhEE17_Vector_impl_dataC2Ev, symObjAddr: 0x26580, symBinAddr: 0x1000284C4, symSize: 0x2C }
  - { offsetInCU: 0x4AC0A, offset: 0x4AC0A, size: 0x8, addend: 0x0, symName: __ZNSt11_Tuple_implILm0EJPN8nlohmann16json_abi_v3_11_327byte_container_with_subtypeISt6vectorIhSaIhEEEEZNS1_10basic_jsonISt3mapS3_NSt7__cxx1112basic_stringIcSt11char_traitsIcESaIcEEEbxydSaNS1_14adl_serializerES5_vE6createIS6_JEEEPT_DpOT0_EUlS7_E_EE7_M_headERKSP_, symObjAddr: 0x26560, symBinAddr: 0x1000284A4, symSize: 0x20 }
  - { offsetInCU: 0x4AC34, offset: 0x4AC34, size: 0x8, addend: 0x0, symName: __ZSt12__get_helperILm1EZN8nlohmann16json_abi_v3_11_310basic_jsonISt3mapSt6vectorNSt7__cxx1112basic_stringIcSt11char_traitsIcESaIcEEEbxydSaNS1_14adl_serializerES4_IhSaIhEEvE6createINS1_27byte_container_with_subtypeISD_EEJEEEPT_DpOT0_EUlPSH_E_JEERT0_RSt11_Tuple_implIXT_EJSP_DpT1_EE, symObjAddr: 0x26544, symBinAddr: 0x100028488, symSize: 0x1C }
  - { offsetInCU: 0x4AC76, offset: 0x4AC76, size: 0x8, addend: 0x0, symName: __ZNSt11_Tuple_implILm0EJPN8nlohmann16json_abi_v3_11_327byte_container_with_subtypeISt6vectorIhSaIhEEEEZNS1_10basic_jsonISt3mapS3_NSt7__cxx1112basic_stringIcSt11char_traitsIcESaIcEEEbxydSaNS1_14adl_serializerES5_vE6createIS6_JEEEPT_DpOT0_EUlS7_E_EE7_M_headERSP_, symObjAddr: 0x26524, symBinAddr: 0x100028468, symSize: 0x20 }
  - { offsetInCU: 0x4AD46, offset: 0x4AD46, size: 0x8, addend: 0x0, symName: __ZNSt10_Head_baseILm0EPN8nlohmann16json_abi_v3_11_327byte_container_with_subtypeISt6vectorIhSaIhEEEELb0EEC2IRS7_EEOT_, symObjAddr: 0x264F4, symBinAddr: 0x100028438, symSize: 0x30 }
  - { offsetInCU: 0x4AE2D, offset: 0x4AE2D, size: 0x8, addend: 0x0, symName: __ZNSt11_Tuple_implILm1EJZN8nlohmann16json_abi_v3_11_310basic_jsonISt3mapSt6vectorNSt7__cxx1112basic_stringIcSt11char_traitsIcESaIcEEEbxydSaNS1_14adl_serializerES4_IhSaIhEEvE6createINS1_27byte_container_with_subtypeISD_EEJEEEPT_DpOT0_EUlPSH_E_EEC2ERKSO_, symObjAddr: 0x264CC, symBinAddr: 0x100028410, symSize: 0x28 }
  - { offsetInCU: 0x4AD5F, offset: 0x4AD5F, size: 0x8, addend: 0x0, symName: __ZNSt11_Tuple_implILm0EJPNSt7__cxx1112basic_stringIcSt11char_traitsIcESaIcEEEZN8nlohmann16json_abi_v3_11_310basic_jsonISt3mapSt6vectorS5_bxydSaNS8_14adl_serializerESB_IhSaIhEEvE6createIS5_JRA1_KcEEEPT_DpOT0_EUlS6_E_EE7_M_headERKSQ_, symObjAddr: 0x264AC, symBinAddr: 0x1000283F0, symSize: 0x20 }
  - { offsetInCU: 0x4AD89, offset: 0x4AD89, size: 0x8, addend: 0x0, symName: __ZSt12__get_helperILm1EZN8nlohmann16json_abi_v3_11_310basic_jsonISt3mapSt6vectorNSt7__cxx1112basic_stringIcSt11char_traitsIcESaIcEEEbxydSaNS1_14adl_serializerES4_IhSaIhEEvE6createISA_JRA1_KcEEEPT_DpOT0_EUlPSA_E_JEERT0_RSt11_Tuple_implIXT_EJSQ_DpT1_EE, symObjAddr: 0x26490, symBinAddr: 0x1000283D4, symSize: 0x1C }
  - { offsetInCU: 0x4ADCB, offset: 0x4ADCB, size: 0x8, addend: 0x0, symName: __ZNSt11_Tuple_implILm0EJPNSt7__cxx1112basic_stringIcSt11char_traitsIcESaIcEEEZN8nlohmann16json_abi_v3_11_310basic_jsonISt3mapSt6vectorS5_bxydSaNS8_14adl_serializerESB_IhSaIhEEvE6createIS5_JRA1_KcEEEPT_DpOT0_EUlS6_E_EE7_M_headERSQ_, symObjAddr: 0x26470, symBinAddr: 0x1000283B4, symSize: 0x20 }
  - { offsetInCU: 0x4AE82, offset: 0x4AE82, size: 0x8, addend: 0x0, symName: __ZNSt10_Head_baseILm0EPNSt7__cxx1112basic_stringIcSt11char_traitsIcESaIcEEELb0EEC2IRS6_EEOT_, symObjAddr: 0x26440, symBinAddr: 0x100028384, symSize: 0x30 }
  - { offsetInCU: 0x4AF64, offset: 0x4AF64, size: 0x8, addend: 0x0, symName: __ZNSt11_Tuple_implILm1EJZN8nlohmann16json_abi_v3_11_310basic_jsonISt3mapSt6vectorNSt7__cxx1112basic_stringIcSt11char_traitsIcESaIcEEEbxydSaNS1_14adl_serializerES4_IhSaIhEEvE6createISA_JRA1_KcEEEPT_DpOT0_EUlPSA_E_EEC2ERKSP_, symObjAddr: 0x26418, symBinAddr: 0x10002835C, symSize: 0x28 }
  - { offsetInCU: 0x4AEB4, offset: 0x4AEB4, size: 0x8, addend: 0x0, symName: __ZNSt11_Tuple_implILm0EJPSt6vectorIN8nlohmann16json_abi_v3_11_310basic_jsonISt3mapS0_NSt7__cxx1112basic_stringIcSt11char_traitsIcESaIcEEEbxydSaNS2_14adl_serializerES0_IhSaIhEEvEESaISE_EEZNSE_6createISG_JEEEPT_DpOT0_EUlSH_E_EE7_M_headERKSP_, symObjAddr: 0x263F8, symBinAddr: 0x10002833C, symSize: 0x20 }
  - { offsetInCU: 0x4AEDE, offset: 0x4AEDE, size: 0x8, addend: 0x0, symName: __ZSt12__get_helperILm1EZN8nlohmann16json_abi_v3_11_310basic_jsonISt3mapSt6vectorNSt7__cxx1112basic_stringIcSt11char_traitsIcESaIcEEEbxydSaNS1_14adl_serializerES4_IhSaIhEEvE6createIS4_ISE_SaISE_EEJEEEPT_DpOT0_EUlPSH_E_JEERT0_RSt11_Tuple_implIXT_EJSP_DpT1_EE, symObjAddr: 0x263DC, symBinAddr: 0x100028320, symSize: 0x1C }
  - { offsetInCU: 0x4AF20, offset: 0x4AF20, size: 0x8, addend: 0x0, symName: __ZNSt11_Tuple_implILm0EJPSt6vectorIN8nlohmann16json_abi_v3_11_310basic_jsonISt3mapS0_NSt7__cxx1112basic_stringIcSt11char_traitsIcESaIcEEEbxydSaNS2_14adl_serializerES0_IhSaIhEEvEESaISE_EEZNSE_6createISG_JEEEPT_DpOT0_EUlSH_E_EE7_M_headERSP_, symObjAddr: 0x263BC, symBinAddr: 0x100028300, symSize: 0x20 }
  - { offsetInCU: 0x4B057, offset: 0x4B057, size: 0x8, addend: 0x0, symName: __ZNSt11_Tuple_implILm1EJZN8nlohmann16json_abi_v3_11_310basic_jsonISt3mapSt6vectorNSt7__cxx1112basic_stringIcSt11char_traitsIcESaIcEEEbxydSaNS1_14adl_serializerES4_IhSaIhEEvE6createIS4_ISE_SaISE_EEJEEEPT_DpOT0_EUlPSH_E_EEC2ERKSO_, symObjAddr: 0x26394, symBinAddr: 0x1000282D8, symSize: 0x28 }
  - { offsetInCU: 0x4B005, offset: 0x4B005, size: 0x8, addend: 0x0, symName: __ZNSt11_Tuple_implILm0EJPSt3mapINSt7__cxx1112basic_stringIcSt11char_traitsIcESaIcEEEN8nlohmann16json_abi_v3_11_310basic_jsonIS0_St6vectorS6_bxydSaNS8_14adl_serializerESA_IhSaIhEEvEESt4lessIvESaISt4pairIKS6_SE_EEEZNSE_6createISL_JEEEPT_DpOT0_EUlSM_E_EE7_M_headERKSU_, symObjAddr: 0x26374, symBinAddr: 0x1000282B8, symSize: 0x20 }
  - { offsetInCU: 0x4B02F, offset: 0x4B02F, size: 0x8, addend: 0x0, symName: __ZSt12__get_helperILm1EZN8nlohmann16json_abi_v3_11_310basic_jsonISt3mapSt6vectorNSt7__cxx1112basic_stringIcSt11char_traitsIcESaIcEEEbxydSaNS1_14adl_serializerES4_IhSaIhEEvE6createIS3_ISA_SE_St4lessIvESaISt4pairIKSA_SE_EEEJEEEPT_DpOT0_EUlPSM_E_JEERT0_RSt11_Tuple_implIXT_EJSU_DpT1_EE, symObjAddr: 0x26358, symBinAddr: 0x10002829C, symSize: 0x1C }
  - { offsetInCU: 0x4B071, offset: 0x4B071, size: 0x8, addend: 0x0, symName: __ZNSt11_Tuple_implILm0EJPSt3mapINSt7__cxx1112basic_stringIcSt11char_traitsIcESaIcEEEN8nlohmann16json_abi_v3_11_310basic_jsonIS0_St6vectorS6_bxydSaNS8_14adl_serializerESA_IhSaIhEEvEESt4lessIvESaISt4pairIKS6_SE_EEEZNSE_6createISL_JEEEPT_DpOT0_EUlSM_E_EE7_M_headERSU_, symObjAddr: 0x26338, symBinAddr: 0x10002827C, symSize: 0x20 }
  - { offsetInCU: 0x4B1AF, offset: 0x4B1AF, size: 0x8, addend: 0x0, symName: __ZNSt10_Head_baseILm0EPSt3mapINSt7__cxx1112basic_stringIcSt11char_traitsIcESaIcEEEN8nlohmann16json_abi_v3_11_310basic_jsonIS0_St6vectorS6_bxydSaNS8_14adl_serializerESA_IhSaIhEEvEESt4lessIvESaISt4pairIKS6_SE_EEELb0EEC2IRSM_EEOT_, symObjAddr: 0x26308, symBinAddr: 0x10002824C, symSize: 0x30 }
  - { offsetInCU: 0x4B22A, offset: 0x4B22A, size: 0x8, addend: 0x0, symName: __ZNSt11_Tuple_implILm1EJZN8nlohmann16json_abi_v3_11_310basic_jsonISt3mapSt6vectorNSt7__cxx1112basic_stringIcSt11char_traitsIcESaIcEEEbxydSaNS1_14adl_serializerES4_IhSaIhEEvE6createIS3_ISA_SE_St4lessIvESaISt4pairIKSA_SE_EEEJEEEPT_DpOT0_EUlPSM_E_EEC2ERKST_, symObjAddr: 0x262E0, symBinAddr: 0x100028224, symSize: 0x28 }
  - { offsetInCU: 0x4B15A, offset: 0x4B15A, size: 0x8, addend: 0x0, symName: __ZSt22__uninitialized_copy_aIN9__gnu_cxx17__normal_iteratorIPKiSt6vectorIiSaIiEEEEPiiET0_T_SA_S9_RSaIT1_E, symObjAddr: 0x262B0, symBinAddr: 0x1000281F4, symSize: 0x30 }
  - { offsetInCU: 0x4B1DF, offset: 0x4B1DF, size: 0x8, addend: 0x0, symName: __ZSt22__uninitialized_copy_aIPiS0_iET0_T_S2_S1_RSaIT1_E, symObjAddr: 0x26280, symBinAddr: 0x1000281C4, symSize: 0x30 }
  - { offsetInCU: 0x4B24F, offset: 0x4B24F, size: 0x8, addend: 0x0, symName: __ZSt4copyIPiS0_ET0_T_S2_S1_, symObjAddr: 0x26238, symBinAddr: 0x10002817C, symSize: 0x48 }
  - { offsetInCU: 0x4B2E8, offset: 0x4B2E8, size: 0x8, addend: 0x0, symName: __ZSt4copyIN9__gnu_cxx17__normal_iteratorIPKiSt6vectorIiSaIiEEEENS1_IPiS6_EEET0_T_SB_SA_, symObjAddr: 0x261F0, symBinAddr: 0x100028134, symSize: 0x48 }
  - { offsetInCU: 0x4B34A, offset: 0x4B34A, size: 0x8, addend: 0x0, symName: __ZNSt6vectorIiSaIiEE20_M_allocate_and_copyIN9__gnu_cxx17__normal_iteratorIPKiS1_EEEEPimT_S9_, symObjAddr: 0x2616C, symBinAddr: 0x1000280B0, symSize: 0x84 }
  - { offsetInCU: 0x4B3C1, offset: 0x4B3C1, size: 0x8, addend: 0x0, symName: __ZNKSt6vectorIiSaIiEE3endEv, symObjAddr: 0x26144, symBinAddr: 0x100028088, symSize: 0x28 }
  - { offsetInCU: 0x4B3EB, offset: 0x4B3EB, size: 0x8, addend: 0x0, symName: __ZNKSt6vectorIiSaIiEE5beginEv, symObjAddr: 0x26120, symBinAddr: 0x100028064, symSize: 0x24 }
  - { offsetInCU: 0x4B415, offset: 0x4B415, size: 0x8, addend: 0x0, symName: __ZNKSt6vectorIiSaIiEE8capacityEv, symObjAddr: 0x260F8, symBinAddr: 0x10002803C, symSize: 0x28 }
  - { offsetInCU: 0x4B46C, offset: 0x4B46C, size: 0x8, addend: 0x0, symName: __ZNSt6vectorIiSaIiEE5clearEv, symObjAddr: 0x260CC, symBinAddr: 0x100028010, symSize: 0x2C }
  - { offsetInCU: 0x4B55D, offset: 0x4B55D, size: 0x8, addend: 0x0, symName: __ZNSt4pairIKiSt6vectorIS1_IiSaIiEESaIS3_EEEC1IJRS0_EJEEESt21piecewise_construct_tSt5tupleIJDpT_EESA_IJDpT0_EE, symObjAddr: 0x26090, symBinAddr: 0x100027FD4, symSize: 0x3C }
  - { offsetInCU: 0x4B58E, offset: 0x4B58E, size: 0x8, addend: 0x0, symName: __ZNSt11_Tuple_implILm0EJRKiEEC2EOS2_, symObjAddr: 0x26068, symBinAddr: 0x100027FAC, symSize: 0x28 }
  - { offsetInCU: 0x4B59E, offset: 0x4B59E, size: 0x8, addend: 0x0, symName: __ZSt7forwardIRKSt6vectorIiSaIiEEEOT_RNSt16remove_referenceIS5_E4typeE, symObjAddr: 0x26054, symBinAddr: 0x100027F98, symSize: 0x14 }
  - { offsetInCU: 0x4B5D0, offset: 0x4B5D0, size: 0x8, addend: 0x0, symName: __ZSt8__fill_aIPiiEvT_S1_RKT0_, symObjAddr: 0x26024, symBinAddr: 0x100027F68, symSize: 0x30 }
  - { offsetInCU: 0x4B62E, offset: 0x4B62E, size: 0x8, addend: 0x0, symName: __ZSt22__uninitialized_copy_aIPKN8nlohmann16json_abi_v3_11_36detail8json_refINS1_10basic_jsonISt3mapSt6vectorNSt7__cxx1112basic_stringIcSt11char_traitsIcESaIcEEEbxydSaNS1_14adl_serializerES6_IhSaIhEEvEEEEPSG_SG_ET0_T_SM_SL_RSaIT1_E, symObjAddr: 0x25FF4, symBinAddr: 0x100027F38, symSize: 0x30 }
  - { offsetInCU: 0x4B69E, offset: 0x4B69E, size: 0x8, addend: 0x0, symName: __ZNSt6vectorIN8nlohmann16json_abi_v3_11_310basic_jsonISt3mapS_NSt7__cxx1112basic_stringIcSt11char_traitsIcESaIcEEEbxydSaNS1_14adl_serializerES_IhSaIhEEvEESaISD_EE17_S_check_init_lenEmRKSE_, symObjAddr: 0x25F70, symBinAddr: 0x100027EB4, symSize: 0x84 }
  - { offsetInCU: 0x4B86F, offset: 0x4B86F, size: 0x8, addend: 0x0, symName: __ZNSt12_Vector_baseIN8nlohmann16json_abi_v3_11_310basic_jsonISt3mapSt6vectorNSt7__cxx1112basic_stringIcSt11char_traitsIcESaIcEEEbxydSaNS1_14adl_serializerES4_IhSaIhEEvEESaISE_EE12_Vector_implC1ERKSF_, symObjAddr: 0x25F24, symBinAddr: 0x100027E68, symSize: 0x4C }
  - { offsetInCU: 0x4B82E, offset: 0x4B82E, size: 0x8, addend: 0x0, symName: __ZNSt11_Tuple_implILm0EJPSt6vectorIN8nlohmann16json_abi_v3_11_310basic_jsonISt3mapS0_NSt7__cxx1112basic_stringIcSt11char_traitsIcESaIcEEEbxydSaNS2_14adl_serializerES0_IhSaIhEEvEESaISE_EEZNSE_6createISG_JPKNS2_6detail8json_refISE_EESN_EEEPT_DpOT0_EUlSH_E_EE7_M_headERKSU_, symObjAddr: 0x25F04, symBinAddr: 0x100027E48, symSize: 0x20 }
  - { offsetInCU: 0x4B858, offset: 0x4B858, size: 0x8, addend: 0x0, symName: __ZSt12__get_helperILm1EZN8nlohmann16json_abi_v3_11_310basic_jsonISt3mapSt6vectorNSt7__cxx1112basic_stringIcSt11char_traitsIcESaIcEEEbxydSaNS1_14adl_serializerES4_IhSaIhEEvE6createIS4_ISE_SaISE_EEJPKNS1_6detail8json_refISE_EESM_EEEPT_DpOT0_EUlPSH_E_JEERT0_RSt11_Tuple_implIXT_EJSU_DpT1_EE, symObjAddr: 0x25EE8, symBinAddr: 0x100027E2C, symSize: 0x1C }
  - { offsetInCU: 0x4B89A, offset: 0x4B89A, size: 0x8, addend: 0x0, symName: __ZNSt11_Tuple_implILm0EJPSt6vectorIN8nlohmann16json_abi_v3_11_310basic_jsonISt3mapS0_NSt7__cxx1112basic_stringIcSt11char_traitsIcESaIcEEEbxydSaNS2_14adl_serializerES0_IhSaIhEEvEESaISE_EEZNSE_6createISG_JPKNS2_6detail8json_refISE_EESN_EEEPT_DpOT0_EUlSH_E_EE7_M_headERSU_, symObjAddr: 0x25EC8, symBinAddr: 0x100027E0C, symSize: 0x20 }
  - { offsetInCU: 0x4B9BE, offset: 0x4B9BE, size: 0x8, addend: 0x0, symName: __ZNSt10_Head_baseILm0EPSt6vectorIN8nlohmann16json_abi_v3_11_310basic_jsonISt3mapS0_NSt7__cxx1112basic_stringIcSt11char_traitsIcESaIcEEEbxydSaNS2_14adl_serializerES0_IhSaIhEEvEESaISE_EELb0EEC2IRSH_EEOT_, symObjAddr: 0x25E98, symBinAddr: 0x100027DDC, symSize: 0x30 }
  - { offsetInCU: 0x4BA58, offset: 0x4BA58, size: 0x8, addend: 0x0, symName: __ZNSt11_Tuple_implILm1EJZN8nlohmann16json_abi_v3_11_310basic_jsonISt3mapSt6vectorNSt7__cxx1112basic_stringIcSt11char_traitsIcESaIcEEEbxydSaNS1_14adl_serializerES4_IhSaIhEEvE6createIS4_ISE_SaISE_EEJPKNS1_6detail8json_refISE_EESM_EEEPT_DpOT0_EUlPSH_E_EEC2ERKST_, symObjAddr: 0x25E70, symBinAddr: 0x100027DB4, symSize: 0x28 }
  - { offsetInCU: 0x4B987, offset: 0x4B987, size: 0x8, addend: 0x0, symName: __ZNK9__gnu_cxx16__aligned_membufISt4pairIKNSt7__cxx1112basic_stringIcSt11char_traitsIcESaIcEEEN8nlohmann16json_abi_v3_11_310basic_jsonISt3mapSt6vectorS7_bxydSaNSA_14adl_serializerESD_IhSaIhEEvEEEE6_M_ptrEv, symObjAddr: 0x25E54, symBinAddr: 0x100027D98, symSize: 0x1C }
  - { offsetInCU: 0x4BA82, offset: 0x4BA82, size: 0x8, addend: 0x0, symName: __ZNSt8_Rb_treeINSt7__cxx1112basic_stringIcSt11char_traitsIcESaIcEEESt4pairIKS5_N8nlohmann16json_abi_v3_11_310basic_jsonISt3mapSt6vectorS5_bxydSaNS9_14adl_serializerESC_IhSaIhEEvEEESt10_Select1stISH_ESt4lessIvESaISH_EE21_M_get_Node_allocatorEv, symObjAddr: 0x25E40, symBinAddr: 0x100027D84, symSize: 0x14 }
  - { offsetInCU: 0x4BAAC, offset: 0x4BAAC, size: 0x8, addend: 0x0, symName: __ZNSt15__uniq_ptr_implIN8nlohmann16json_abi_v3_11_327byte_container_with_subtypeISt6vectorIhSaIhEEEEZNS1_10basic_jsonISt3mapS3_NSt7__cxx1112basic_stringIcSt11char_traitsIcESaIcEEEbxydSaNS1_14adl_serializerES5_vE6createIS6_JRKS6_EEEPT_DpOT0_EUlPS6_E_E7releaseEv, symObjAddr: 0x25E0C, symBinAddr: 0x100027D50, symSize: 0x34 }
  - { offsetInCU: 0x4BAE6, offset: 0x4BAE6, size: 0x8, addend: 0x0, symName: __ZNKSt10unique_ptrIN8nlohmann16json_abi_v3_11_327byte_container_with_subtypeISt6vectorIhSaIhEEEEZNS1_10basic_jsonISt3mapS3_NSt7__cxx1112basic_stringIcSt11char_traitsIcESaIcEEEbxydSaNS1_14adl_serializerES5_vE6createIS6_JRKS6_EEEPT_DpOT0_EUlPS6_E_EcvbEv, symObjAddr: 0x25DE4, symBinAddr: 0x100027D28, symSize: 0x28 }
  - { offsetInCU: 0x4BBC8, offset: 0x4BBC8, size: 0x8, addend: 0x0, symName: __ZN8nlohmann16json_abi_v3_11_327byte_container_with_subtypeISt6vectorIhSaIhEEEC1ERKS5_, symObjAddr: 0x25D9C, symBinAddr: 0x100027CE0, symSize: 0x48 }
  - { offsetInCU: 0x4BBA4, offset: 0x4BBA4, size: 0x8, addend: 0x0, symName: __ZNKSt15__uniq_ptr_implIN8nlohmann16json_abi_v3_11_327byte_container_with_subtypeISt6vectorIhSaIhEEEEZNS1_10basic_jsonISt3mapS3_NSt7__cxx1112basic_stringIcSt11char_traitsIcESaIcEEEbxydSaNS1_14adl_serializerES5_vE6createIS6_JRKS6_EEEPT_DpOT0_EUlPS6_E_E6_M_ptrEv, symObjAddr: 0x25D7C, symBinAddr: 0x100027CC0, symSize: 0x20 }
  - { offsetInCU: 0x4BBCE, offset: 0x4BBCE, size: 0x8, addend: 0x0, symName: __ZNSt10unique_ptrIN8nlohmann16json_abi_v3_11_327byte_container_with_subtypeISt6vectorIhSaIhEEEEZNS1_10basic_jsonISt3mapS3_NSt7__cxx1112basic_stringIcSt11char_traitsIcESaIcEEEbxydSaNS1_14adl_serializerES5_vE6createIS6_JRKS6_EEEPT_DpOT0_EUlPS6_E_E11get_deleterEv, symObjAddr: 0x25D60, symBinAddr: 0x100027CA4, symSize: 0x1C }
  - { offsetInCU: 0x4BBF8, offset: 0x4BBF8, size: 0x8, addend: 0x0, symName: __ZNSt15__uniq_ptr_implIN8nlohmann16json_abi_v3_11_327byte_container_with_subtypeISt6vectorIhSaIhEEEEZNS1_10basic_jsonISt3mapS3_NSt7__cxx1112basic_stringIcSt11char_traitsIcESaIcEEEbxydSaNS1_14adl_serializerES5_vE6createIS6_JRKS6_EEEPT_DpOT0_EUlPS6_E_E6_M_ptrEv, symObjAddr: 0x25D44, symBinAddr: 0x100027C88, symSize: 0x1C }
  - { offsetInCU: 0x4BD67, offset: 0x4BD67, size: 0x8, addend: 0x0, symName: __ZNSt15__uniq_ptr_implIN8nlohmann16json_abi_v3_11_327byte_container_with_subtypeISt6vectorIhSaIhEEEEZNS1_10basic_jsonISt3mapS3_NSt7__cxx1112basic_stringIcSt11char_traitsIcESaIcEEEbxydSaNS1_14adl_serializerES5_vE6createIS6_JRKS6_EEEPT_DpOT0_EUlPS6_E_EC2IRKSQ_EESP_OSK_, symObjAddr: 0x25CF8, symBinAddr: 0x100027C3C, symSize: 0x4C }
  - { offsetInCU: 0x4BCA0, offset: 0x4BCA0, size: 0x8, addend: 0x0, symName: __ZNSt15__uniq_ptr_implINSt7__cxx1112basic_stringIcSt11char_traitsIcESaIcEEEZN8nlohmann16json_abi_v3_11_310basic_jsonISt3mapSt6vectorS5_bxydSaNS7_14adl_serializerESA_IhSaIhEEvE6createIS5_JRKS5_EEEPT_DpOT0_EUlPS5_E_E7releaseEv, symObjAddr: 0x25CC4, symBinAddr: 0x100027C08, symSize: 0x34 }
  - { offsetInCU: 0x4BCDA, offset: 0x4BCDA, size: 0x8, addend: 0x0, symName: __ZNKSt10unique_ptrINSt7__cxx1112basic_stringIcSt11char_traitsIcESaIcEEEZN8nlohmann16json_abi_v3_11_310basic_jsonISt3mapSt6vectorS5_bxydSaNS7_14adl_serializerESA_IhSaIhEEvE6createIS5_JRKS5_EEEPT_DpOT0_EUlPS5_E_EcvbEv, symObjAddr: 0x25C9C, symBinAddr: 0x100027BE0, symSize: 0x28 }
  - { offsetInCU: 0x4BD04, offset: 0x4BD04, size: 0x8, addend: 0x0, symName: __ZNKSt15__uniq_ptr_implINSt7__cxx1112basic_stringIcSt11char_traitsIcESaIcEEEZN8nlohmann16json_abi_v3_11_310basic_jsonISt3mapSt6vectorS5_bxydSaNS7_14adl_serializerESA_IhSaIhEEvE6createIS5_JRKS5_EEEPT_DpOT0_EUlPS5_E_E6_M_ptrEv, symObjAddr: 0x25C7C, symBinAddr: 0x100027BC0, symSize: 0x20 }
  - { offsetInCU: 0x4BD2E, offset: 0x4BD2E, size: 0x8, addend: 0x0, symName: __ZNSt10unique_ptrINSt7__cxx1112basic_stringIcSt11char_traitsIcESaIcEEEZN8nlohmann16json_abi_v3_11_310basic_jsonISt3mapSt6vectorS5_bxydSaNS7_14adl_serializerESA_IhSaIhEEvE6createIS5_JRKS5_EEEPT_DpOT0_EUlPS5_E_E11get_deleterEv, symObjAddr: 0x25C60, symBinAddr: 0x100027BA4, symSize: 0x1C }
  - { offsetInCU: 0x4BD58, offset: 0x4BD58, size: 0x8, addend: 0x0, symName: __ZNSt15__uniq_ptr_implINSt7__cxx1112basic_stringIcSt11char_traitsIcESaIcEEEZN8nlohmann16json_abi_v3_11_310basic_jsonISt3mapSt6vectorS5_bxydSaNS7_14adl_serializerESA_IhSaIhEEvE6createIS5_JRKS5_EEEPT_DpOT0_EUlPS5_E_E6_M_ptrEv, symObjAddr: 0x25C44, symBinAddr: 0x100027B88, symSize: 0x1C }
  - { offsetInCU: 0x4BEA3, offset: 0x4BEA3, size: 0x8, addend: 0x0, symName: __ZNSt15__uniq_ptr_implINSt7__cxx1112basic_stringIcSt11char_traitsIcESaIcEEEZN8nlohmann16json_abi_v3_11_310basic_jsonISt3mapSt6vectorS5_bxydSaNS7_14adl_serializerESA_IhSaIhEEvE6createIS5_JRKS5_EEEPT_DpOT0_EUlPS5_E_EC2IRKSO_EESN_OSI_, symObjAddr: 0x25BF8, symBinAddr: 0x100027B3C, symSize: 0x4C }
  - { offsetInCU: 0x4BE00, offset: 0x4BE00, size: 0x8, addend: 0x0, symName: __ZNSt15__uniq_ptr_implISt6vectorIN8nlohmann16json_abi_v3_11_310basic_jsonISt3mapS0_NSt7__cxx1112basic_stringIcSt11char_traitsIcESaIcEEEbxydSaNS2_14adl_serializerES0_IhSaIhEEvEESaISE_EEZNSE_6createISG_JRKSG_EEEPT_DpOT0_EUlPSG_E_E7releaseEv, symObjAddr: 0x25BC4, symBinAddr: 0x100027B08, symSize: 0x34 }
  - { offsetInCU: 0x4BE3A, offset: 0x4BE3A, size: 0x8, addend: 0x0, symName: __ZNKSt10unique_ptrISt6vectorIN8nlohmann16json_abi_v3_11_310basic_jsonISt3mapS0_NSt7__cxx1112basic_stringIcSt11char_traitsIcESaIcEEEbxydSaNS2_14adl_serializerES0_IhSaIhEEvEESaISE_EEZNSE_6createISG_JRKSG_EEEPT_DpOT0_EUlPSG_E_EcvbEv, symObjAddr: 0x25B9C, symBinAddr: 0x100027AE0, symSize: 0x28 }
  - { offsetInCU: 0x4BEA6, offset: 0x4BEA6, size: 0x8, addend: 0x0, symName: __ZNKSt15__uniq_ptr_implISt6vectorIN8nlohmann16json_abi_v3_11_310basic_jsonISt3mapS0_NSt7__cxx1112basic_stringIcSt11char_traitsIcESaIcEEEbxydSaNS2_14adl_serializerES0_IhSaIhEEvEESaISE_EEZNSE_6createISG_JRKSG_EEEPT_DpOT0_EUlPSG_E_E6_M_ptrEv, symObjAddr: 0x25B7C, symBinAddr: 0x100027AC0, symSize: 0x20 }
  - { offsetInCU: 0x4BED0, offset: 0x4BED0, size: 0x8, addend: 0x0, symName: __ZNSt10unique_ptrISt6vectorIN8nlohmann16json_abi_v3_11_310basic_jsonISt3mapS0_NSt7__cxx1112basic_stringIcSt11char_traitsIcESaIcEEEbxydSaNS2_14adl_serializerES0_IhSaIhEEvEESaISE_EEZNSE_6createISG_JRKSG_EEEPT_DpOT0_EUlPSG_E_E11get_deleterEv, symObjAddr: 0x25B60, symBinAddr: 0x100027AA4, symSize: 0x1C }
  - { offsetInCU: 0x4BEFA, offset: 0x4BEFA, size: 0x8, addend: 0x0, symName: __ZNSt15__uniq_ptr_implISt6vectorIN8nlohmann16json_abi_v3_11_310basic_jsonISt3mapS0_NSt7__cxx1112basic_stringIcSt11char_traitsIcESaIcEEEbxydSaNS2_14adl_serializerES0_IhSaIhEEvEESaISE_EEZNSE_6createISG_JRKSG_EEEPT_DpOT0_EUlPSG_E_E6_M_ptrEv, symObjAddr: 0x25B44, symBinAddr: 0x100027A88, symSize: 0x1C }
  - { offsetInCU: 0x4C053, offset: 0x4C053, size: 0x8, addend: 0x0, symName: __ZNSt15__uniq_ptr_implISt6vectorIN8nlohmann16json_abi_v3_11_310basic_jsonISt3mapS0_NSt7__cxx1112basic_stringIcSt11char_traitsIcESaIcEEEbxydSaNS2_14adl_serializerES0_IhSaIhEEvEESaISE_EEZNSE_6createISG_JRKSG_EEEPT_DpOT0_EUlPSG_E_EC2IRKSQ_EESP_OSK_, symObjAddr: 0x25AF8, symBinAddr: 0x100027A3C, symSize: 0x4C }
  - { offsetInCU: 0x4BFA2, offset: 0x4BFA2, size: 0x8, addend: 0x0, symName: __ZNSt15__uniq_ptr_implISt3mapINSt7__cxx1112basic_stringIcSt11char_traitsIcESaIcEEEN8nlohmann16json_abi_v3_11_310basic_jsonIS0_St6vectorS6_bxydSaNS8_14adl_serializerESA_IhSaIhEEvEESt4lessIvESaISt4pairIKS6_SE_EEEZNSE_6createISL_JRKSL_EEEPT_DpOT0_EUlPSL_E_E7releaseEv, symObjAddr: 0x25AC4, symBinAddr: 0x100027A08, symSize: 0x34 }
  - { offsetInCU: 0x4BFDC, offset: 0x4BFDC, size: 0x8, addend: 0x0, symName: __ZNKSt10unique_ptrISt3mapINSt7__cxx1112basic_stringIcSt11char_traitsIcESaIcEEEN8nlohmann16json_abi_v3_11_310basic_jsonIS0_St6vectorS6_bxydSaNS8_14adl_serializerESA_IhSaIhEEvEESt4lessIvESaISt4pairIKS6_SE_EEEZNSE_6createISL_JRKSL_EEEPT_DpOT0_EUlPSL_E_EcvbEv, symObjAddr: 0x25A9C, symBinAddr: 0x1000279E0, symSize: 0x28 }
  - { offsetInCU: 0x4C129, offset: 0x4C129, size: 0x8, addend: 0x0, symName: __ZNSt3mapINSt7__cxx1112basic_stringIcSt11char_traitsIcESaIcEEEN8nlohmann16json_abi_v3_11_310basic_jsonIS_St6vectorS5_bxydSaNS7_14adl_serializerES9_IhSaIhEEvEESt4lessIvESaISt4pairIKS5_SD_EEEC1ERKSK_, symObjAddr: 0x25A74, symBinAddr: 0x1000279B8, symSize: 0x28 }
  - { offsetInCU: 0x4C096, offset: 0x4C096, size: 0x8, addend: 0x0, symName: __ZNKSt15__uniq_ptr_implISt3mapINSt7__cxx1112basic_stringIcSt11char_traitsIcESaIcEEEN8nlohmann16json_abi_v3_11_310basic_jsonIS0_St6vectorS6_bxydSaNS8_14adl_serializerESA_IhSaIhEEvEESt4lessIvESaISt4pairIKS6_SE_EEEZNSE_6createISL_JRKSL_EEEPT_DpOT0_EUlPSL_E_E6_M_ptrEv, symObjAddr: 0x25A54, symBinAddr: 0x100027998, symSize: 0x20 }
  - { offsetInCU: 0x4C0C0, offset: 0x4C0C0, size: 0x8, addend: 0x0, symName: __ZNSt10unique_ptrISt3mapINSt7__cxx1112basic_stringIcSt11char_traitsIcESaIcEEEN8nlohmann16json_abi_v3_11_310basic_jsonIS0_St6vectorS6_bxydSaNS8_14adl_serializerESA_IhSaIhEEvEESt4lessIvESaISt4pairIKS6_SE_EEEZNSE_6createISL_JRKSL_EEEPT_DpOT0_EUlPSL_E_E11get_deleterEv, symObjAddr: 0x25A38, symBinAddr: 0x10002797C, symSize: 0x1C }
  - { offsetInCU: 0x4C0EA, offset: 0x4C0EA, size: 0x8, addend: 0x0, symName: __ZNSt15__uniq_ptr_implISt3mapINSt7__cxx1112basic_stringIcSt11char_traitsIcESaIcEEEN8nlohmann16json_abi_v3_11_310basic_jsonIS0_St6vectorS6_bxydSaNS8_14adl_serializerESA_IhSaIhEEvEESt4lessIvESaISt4pairIKS6_SE_EEEZNSE_6createISL_JRKSL_EEEPT_DpOT0_EUlPSL_E_E6_M_ptrEv, symObjAddr: 0x25A1C, symBinAddr: 0x100027960, symSize: 0x1C }
  - { offsetInCU: 0x4C25D, offset: 0x4C25D, size: 0x8, addend: 0x0, symName: __ZNSt15__uniq_ptr_implISt3mapINSt7__cxx1112basic_stringIcSt11char_traitsIcESaIcEEEN8nlohmann16json_abi_v3_11_310basic_jsonIS0_St6vectorS6_bxydSaNS8_14adl_serializerESA_IhSaIhEEvEESt4lessIvESaISt4pairIKS6_SE_EEEZNSE_6createISL_JRKSL_EEEPT_DpOT0_EUlPSL_E_EC2IRKSV_EESU_OSP_, symObjAddr: 0x259D0, symBinAddr: 0x100027914, symSize: 0x4C }
  - { offsetInCU: 0x4C18E, offset: 0x4C18E, size: 0x8, addend: 0x0, symName: __ZSt12__niter_wrapIPiET_RKS1_S1_, symObjAddr: 0x259B8, symBinAddr: 0x1000278FC, symSize: 0x18 }
  - { offsetInCU: 0x4C1CA, offset: 0x4C1CA, size: 0x8, addend: 0x0, symName: __ZSt14__copy_move_a1ILb0EPKiPiET1_T0_S4_S3_, symObjAddr: 0x2598C, symBinAddr: 0x1000278D0, symSize: 0x2C }
  - { offsetInCU: 0x4C232, offset: 0x4C232, size: 0x8, addend: 0x0, symName: __ZSt12__niter_baseIPKiET_S2_, symObjAddr: 0x25978, symBinAddr: 0x1000278BC, symSize: 0x14 }
  - { offsetInCU: 0x4C265, offset: 0x4C265, size: 0x8, addend: 0x0, symName: __ZSt8_DestroyIPhEvT_S1_, symObjAddr: 0x25950, symBinAddr: 0x100027894, symSize: 0x28 }
  - { offsetInCU: 0x4C2AB, offset: 0x4C2AB, size: 0x8, addend: 0x0, symName: __ZNSt12_Vector_baseIhSaIhEE13_M_deallocateEPhm, symObjAddr: 0x258F8, symBinAddr: 0x10002783C, symSize: 0x58 }
  - { offsetInCU: 0x4C329, offset: 0x4C329, size: 0x8, addend: 0x0, symName: __ZNSt11__copy_moveILb1ELb0ESt26random_access_iterator_tagE8__copy_mIPN8nlohmann16json_abi_v3_11_310basic_jsonISt3mapSt6vectorNSt7__cxx1112basic_stringIcSt11char_traitsIcESaIcEEEbxydSaNS4_14adl_serializerES7_IhSaIhEEvEESt20back_insert_iteratorIS7_ISH_SaISH_EEEEET0_T_SO_SN_, symObjAddr: 0x25870, symBinAddr: 0x1000277B4, symSize: 0x88 }
  - { offsetInCU: 0x4C3CE, offset: 0x4C3CE, size: 0x8, addend: 0x0, symName: __ZSt8_DestroyIN8nlohmann16json_abi_v3_11_310basic_jsonISt3mapSt6vectorNSt7__cxx1112basic_stringIcSt11char_traitsIcESaIcEEEbxydSaNS1_14adl_serializerES4_IhSaIhEEvEEEvPT_, symObjAddr: 0x25850, symBinAddr: 0x100027794, symSize: 0x20 }
  - { offsetInCU: 0x4C616, offset: 0x4C616, size: 0x8, addend: 0x0, symName: __ZN8nlohmann16json_abi_v3_11_36detail11concat_intoINSt7__cxx1112basic_stringIcSt11char_traitsIcESaIcEEERA3_KcJS8_RKS8_ELi0EEEvRT_OT0_DpOT1_, symObjAddr: 0x257EC, symBinAddr: 0x100027730, symSize: 0x64 }
  - { offsetInCU: 0x4C68C, offset: 0x4C68C, size: 0x8, addend: 0x0, symName: __ZN8nlohmann16json_abi_v3_11_36detail13concat_lengthIJNSt7__cxx1112basic_stringIcSt11char_traitsIcESaIcEEES8_EEEmPKcDpRKT_, symObjAddr: 0x257AC, symBinAddr: 0x1000276F0, symSize: 0x40 }
  - { offsetInCU: 0x4C6E3, offset: 0x4C6E3, size: 0x8, addend: 0x0, symName: __ZNKSt16initializer_listIjE4sizeEv, symObjAddr: 0x25794, symBinAddr: 0x1000276D8, symSize: 0x18 }
  - { offsetInCU: 0x4C70D, offset: 0x4C70D, size: 0x8, addend: 0x0, symName: __ZNSt6vectorIcSaIcEE15_M_erase_at_endEPc, symObjAddr: 0x25710, symBinAddr: 0x100027654, symSize: 0x84 }
  - { offsetInCU: 0x4C7D1, offset: 0x4C7D1, size: 0x8, addend: 0x0, symName: __ZN9__gnu_cxxeqIPKcSt6vectorIcSaIcEEEEbRKNS_17__normal_iteratorIT_T0_EESB_, symObjAddr: 0x256CC, symBinAddr: 0x100027610, symSize: 0x44 }
  - { offsetInCU: 0x4C822, offset: 0x4C822, size: 0x8, addend: 0x0, symName: __ZNSt6vectorIcSaIcEE12emplace_backIJcEEERcDpOT_, symObjAddr: 0x255F4, symBinAddr: 0x100027538, symSize: 0xD8 }
  - { offsetInCU: 0x4C8D4, offset: 0x4C8D4, size: 0x8, addend: 0x0, symName: __ZSt4moveIRcEONSt16remove_referenceIT_E4typeEOS2_, symObjAddr: 0x255E0, symBinAddr: 0x100027524, symSize: 0x14 }
  - { offsetInCU: 0x4C916, offset: 0x4C916, size: 0x8, addend: 0x0, symName: __ZNK8nlohmann16json_abi_v3_11_36detail10to_json_fnclINS0_10basic_jsonISt3mapSt6vectorNSt7__cxx1112basic_stringIcSt11char_traitsIcESaIcEEEbxydSaNS0_14adl_serializerES6_IhSaIhEEvEERyEEDTcmcl7to_jsonfp_cl7forwardIT0_Efp0_EEcvv_EERT_OSI_, symObjAddr: 0x255A8, symBinAddr: 0x1000274EC, symSize: 0x38 }
  - { offsetInCU: 0x4C974, offset: 0x4C974, size: 0x8, addend: 0x0, symName: __ZNK8nlohmann16json_abi_v3_11_36detail10to_json_fnclINS0_10basic_jsonISt3mapSt6vectorNSt7__cxx1112basic_stringIcSt11char_traitsIcESaIcEEEbxydSaNS0_14adl_serializerES6_IhSaIhEEvEERxEEDTcmcl7to_jsonfp_cl7forwardIT0_Efp0_EEcvv_EERT_OSI_, symObjAddr: 0x25570, symBinAddr: 0x1000274B4, symSize: 0x38 }
  - { offsetInCU: 0x4C9D2, offset: 0x4C9D2, size: 0x8, addend: 0x0, symName: __ZNK8nlohmann16json_abi_v3_11_36detail10to_json_fnclINS0_10basic_jsonISt3mapSt6vectorNSt7__cxx1112basic_stringIcSt11char_traitsIcESaIcEEEbxydSaNS0_14adl_serializerES6_IhSaIhEEvEERbEEDTcmcl7to_jsonfp_cl7forwardIT0_Efp0_EEcvv_EERT_OSI_, symObjAddr: 0x25538, symBinAddr: 0x10002747C, symSize: 0x38 }
  - { offsetInCU: 0x4CA30, offset: 0x4CA30, size: 0x8, addend: 0x0, symName: __ZNK8nlohmann16json_abi_v3_11_36detail10to_json_fnclINS0_10basic_jsonISt3mapSt6vectorNSt7__cxx1112basic_stringIcSt11char_traitsIcESaIcEEEbxydSaNS0_14adl_serializerES6_IhSaIhEEvEERdEEDTcmcl7to_jsonfp_cl7forwardIT0_Efp0_EEcvv_EERT_OSI_, symObjAddr: 0x25500, symBinAddr: 0x100027444, symSize: 0x38 }
  - { offsetInCU: 0x4CA8E, offset: 0x4CA8E, size: 0x8, addend: 0x0, symName: __ZNSt8_Rb_treeINSt7__cxx1112basic_stringIcSt11char_traitsIcESaIcEEESt4pairIKS5_N8nlohmann16json_abi_v3_11_310basic_jsonISt3mapSt6vectorS5_bxydSaNS9_14adl_serializerESC_IhSaIhEEvEEESt10_Select1stISH_ESt4lessIvESaISH_EE14_M_create_nodeIJRKSt21piecewise_construct_tSt5tupleIJRS7_EESS_IJEEEEEPSt13_Rb_tree_nodeISH_EDpOT_, symObjAddr: 0x25490, symBinAddr: 0x1000273D4, symSize: 0x70 }
  - { offsetInCU: 0x4CB7B, offset: 0x4CB7B, size: 0x8, addend: 0x0, symName: __ZNSt10_Head_baseILm0ERKNSt7__cxx1112basic_stringIcSt11char_traitsIcESaIcEEELb0EEC2ES7_, symObjAddr: 0x2546C, symBinAddr: 0x1000273B0, symSize: 0x24 }
  - { offsetInCU: 0x4CB52, offset: 0x4CB52, size: 0x8, addend: 0x0, symName: __ZN8nlohmann16json_abi_v3_11_36detail7to_jsonINS0_10basic_jsonISt3mapSt6vectorNSt7__cxx1112basic_stringIcSt11char_traitsIcESaIcEEEbxydSaNS0_14adl_serializerES5_IhSaIhEEvEESB_Li0EEEvRT_RKT0_, symObjAddr: 0x25444, symBinAddr: 0x100027388, symSize: 0x28 }
  - { offsetInCU: 0x4CB9F, offset: 0x4CB9F, size: 0x8, addend: 0x0, symName: __ZSt4moveIN9__gnu_cxx17__normal_iteratorIPN8nlohmann16json_abi_v3_11_310basic_jsonISt3mapSt6vectorNSt7__cxx1112basic_stringIcSt11char_traitsIcESaIcEEEbxydSaNS3_14adl_serializerES6_IhSaIhEEvEES6_ISG_SaISG_EEEESK_ET0_T_SM_SL_, symObjAddr: 0x253FC, symBinAddr: 0x100027340, symSize: 0x48 }
  - { offsetInCU: 0x4CC01, offset: 0x4CC01, size: 0x8, addend: 0x0, symName: __ZNSt8_Rb_treeINSt7__cxx1112basic_stringIcSt11char_traitsIcESaIcEEESt4pairIKS5_N8nlohmann16json_abi_v3_11_310basic_jsonISt3mapSt6vectorS5_bxydSaNS9_14adl_serializerESC_IhSaIhEEvEEESt10_Select1stISH_ESt4lessIvESaISH_EE12_M_erase_auxESt23_Rb_tree_const_iteratorISH_E, symObjAddr: 0x253A4, symBinAddr: 0x1000272E8, symSize: 0x58 }
  - { offsetInCU: 0x4CC63, offset: 0x4CC63, size: 0x8, addend: 0x0, symName: __ZNKSt8_Rb_treeINSt7__cxx1112basic_stringIcSt11char_traitsIcESaIcEEESt4pairIKS5_N8nlohmann16json_abi_v3_11_310basic_jsonISt3mapSt6vectorS5_bxydSaNS9_14adl_serializerESC_IhSaIhEEvEEESt10_Select1stISH_ESt4lessIvESaISH_EE21_M_get_Node_allocatorEv, symObjAddr: 0x25390, symBinAddr: 0x1000272D4, symSize: 0x14 }
  - { offsetInCU: 0x4CC89, offset: 0x4CC89, size: 0x8, addend: 0x0, symName: __ZSt12__relocate_aIPPN8nlohmann16json_abi_v3_11_310basic_jsonISt3mapSt6vectorNSt7__cxx1112basic_stringIcSt11char_traitsIcESaIcEEEbxydSaNS1_14adl_serializerES4_IhSaIhEEvEESG_SaISF_EET0_T_SJ_SI_RT1_, symObjAddr: 0x25334, symBinAddr: 0x100027278, symSize: 0x5C }
  - { offsetInCU: 0x4CD29, offset: 0x4CD29, size: 0x8, addend: 0x0, symName: __ZNK9__gnu_cxx17__normal_iteratorIPPN8nlohmann16json_abi_v3_11_310basic_jsonISt3mapSt6vectorNSt7__cxx1112basic_stringIcSt11char_traitsIcESaIcEEEbxydSaNS2_14adl_serializerES5_IhSaIhEEvEES5_ISG_SaISG_EEE4baseEv, symObjAddr: 0x25320, symBinAddr: 0x100027264, symSize: 0x14 }
  - { offsetInCU: 0x4CD53, offset: 0x4CD53, size: 0x8, addend: 0x0, symName: __ZNKSt6vectorIPN8nlohmann16json_abi_v3_11_310basic_jsonISt3mapS_NSt7__cxx1112basic_stringIcSt11char_traitsIcESaIcEEEbxydSaNS1_14adl_serializerES_IhSaIhEEvEESaISE_EE8max_sizeEv, symObjAddr: 0x25300, symBinAddr: 0x100027244, symSize: 0x20 }
  - { offsetInCU: 0x4CD79, offset: 0x4CD79, size: 0x8, addend: 0x0, symName: __ZSt14__copy_move_a1ILb0ESt13_Bit_iteratorS0_ET1_T0_S2_S1_, symObjAddr: 0x25280, symBinAddr: 0x1000271C4, symSize: 0x80 }
  - { offsetInCU: 0x4CDE1, offset: 0x4CDE1, size: 0x8, addend: 0x0, symName: __ZSt13__copy_move_aILb0ESt19_Bit_const_iteratorSt13_Bit_iteratorET1_T0_S3_S2_, symObjAddr: 0x251BC, symBinAddr: 0x100027100, symSize: 0xC4 }
  - { offsetInCU: 0x4CE4C, offset: 0x4CE4C, size: 0x8, addend: 0x0, symName: __ZSt12__miter_baseISt19_Bit_const_iteratorET_S1_, symObjAddr: 0x25180, symBinAddr: 0x1000270C4, symSize: 0x3C }
  - { offsetInCU: 0x4CE7F, offset: 0x4CE7F, size: 0x8, addend: 0x0, symName: __ZSt13__copy_move_aILb0EPmS0_ET1_T0_S2_S1_, symObjAddr: 0x25120, symBinAddr: 0x100027064, symSize: 0x60 }
  - { offsetInCU: 0x4CEE7, offset: 0x4CEE7, size: 0x8, addend: 0x0, symName: __ZSt12__miter_baseIPmET_S1_, symObjAddr: 0x2510C, symBinAddr: 0x100027050, symSize: 0x14 }
  - { offsetInCU: 0x4CF1E, offset: 0x4CF1E, size: 0x8, addend: 0x0, symName: __ZNSt15__new_allocatorImE8allocateEmPKv, symObjAddr: 0x25090, symBinAddr: 0x100026FD4, symSize: 0x7C }
  - { offsetInCU: 0x4CFC0, offset: 0x4CFC0, size: 0x8, addend: 0x0, symName: __ZNKSt13_Bvector_baseISaIbEE20_M_get_Bit_allocatorEv, symObjAddr: 0x2507C, symBinAddr: 0x100026FC0, symSize: 0x14 }
  - { offsetInCU: 0x4CFE6, offset: 0x4CFE6, size: 0x8, addend: 0x0, symName: __ZSt12__niter_wrapISt13_Bit_iteratorET_RKS1_S1_, symObjAddr: 0x25040, symBinAddr: 0x100026F84, symSize: 0x3C }
  - { offsetInCU: 0x4D022, offset: 0x4D022, size: 0x8, addend: 0x0, symName: __ZSt23__copy_move_backward_a1ILb0ESt13_Bit_iteratorS0_ET1_T0_S2_S1_, symObjAddr: 0x24FC0, symBinAddr: 0x100026F04, symSize: 0x80 }
  - { offsetInCU: 0x4D08A, offset: 0x4D08A, size: 0x8, addend: 0x0, symName: __ZSt12__niter_baseISt13_Bit_iteratorET_S1_, symObjAddr: 0x24F84, symBinAddr: 0x100026EC8, symSize: 0x3C }
  - { offsetInCU: 0x4D0C1, offset: 0x4D0C1, size: 0x8, addend: 0x0, symName: __ZNK8nlohmann16json_abi_v3_11_310basic_jsonISt3mapSt6vectorNSt7__cxx1112basic_stringIcSt11char_traitsIcESaIcEEEbxydSaNS0_14adl_serializerES3_IhSaIhEEvE12get_impl_ptrEPKb, symObjAddr: 0x24F48, symBinAddr: 0x100026E8C, symSize: 0x3C }
  - { offsetInCU: 0x4D0F4, offset: 0x4D0F4, size: 0x8, addend: 0x0, symName: __ZNK8nlohmann16json_abi_v3_11_310basic_jsonISt3mapSt6vectorNSt7__cxx1112basic_stringIcSt11char_traitsIcESaIcEEEbxydSaNS0_14adl_serializerES3_IhSaIhEEvE10is_booleanEv, symObjAddr: 0x24F24, symBinAddr: 0x100026E68, symSize: 0x24 }
  - { offsetInCU: 0x4D11E, offset: 0x4D11E, size: 0x8, addend: 0x0, symName: __ZNK8nlohmann16json_abi_v3_11_310basic_jsonISt3mapSt6vectorNSt7__cxx1112basic_stringIcSt11char_traitsIcESaIcEEEbxydSaNS0_14adl_serializerES3_IhSaIhEEvE12get_impl_ptrEPKd, symObjAddr: 0x24EE8, symBinAddr: 0x100026E2C, symSize: 0x3C }
  - { offsetInCU: 0x4D151, offset: 0x4D151, size: 0x8, addend: 0x0, symName: __ZNK8nlohmann16json_abi_v3_11_310basic_jsonISt3mapSt6vectorNSt7__cxx1112basic_stringIcSt11char_traitsIcESaIcEEEbxydSaNS0_14adl_serializerES3_IhSaIhEEvE15is_number_floatEv, symObjAddr: 0x24EC4, symBinAddr: 0x100026E08, symSize: 0x24 }
  - { offsetInCU: 0x4D17B, offset: 0x4D17B, size: 0x8, addend: 0x0, symName: __ZNK8nlohmann16json_abi_v3_11_310basic_jsonISt3mapSt6vectorNSt7__cxx1112basic_stringIcSt11char_traitsIcESaIcEEEbxydSaNS0_14adl_serializerES3_IhSaIhEEvE12get_impl_ptrEPKx, symObjAddr: 0x24E88, symBinAddr: 0x100026DCC, symSize: 0x3C }
  - { offsetInCU: 0x4D1AE, offset: 0x4D1AE, size: 0x8, addend: 0x0, symName: __ZNK8nlohmann16json_abi_v3_11_310basic_jsonISt3mapSt6vectorNSt7__cxx1112basic_stringIcSt11char_traitsIcESaIcEEEbxydSaNS0_14adl_serializerES3_IhSaIhEEvE17is_number_integerEv, symObjAddr: 0x24E4C, symBinAddr: 0x100026D90, symSize: 0x3C }
  - { offsetInCU: 0x4D1D8, offset: 0x4D1D8, size: 0x8, addend: 0x0, symName: __ZNK8nlohmann16json_abi_v3_11_310basic_jsonISt3mapSt6vectorNSt7__cxx1112basic_stringIcSt11char_traitsIcESaIcEEEbxydSaNS0_14adl_serializerES3_IhSaIhEEvE12get_impl_ptrEPKy, symObjAddr: 0x24E10, symBinAddr: 0x100026D54, symSize: 0x3C }
  - { offsetInCU: 0x4D20B, offset: 0x4D20B, size: 0x8, addend: 0x0, symName: __ZNK8nlohmann16json_abi_v3_11_310basic_jsonISt3mapSt6vectorNSt7__cxx1112basic_stringIcSt11char_traitsIcESaIcEEEbxydSaNS0_14adl_serializerES3_IhSaIhEEvE18is_number_unsignedEv, symObjAddr: 0x24DEC, symBinAddr: 0x100026D30, symSize: 0x24 }
  - { offsetInCU: 0x4D235, offset: 0x4D235, size: 0x8, addend: 0x0, symName: __ZN8nlohmann16json_abi_v3_11_36detail22iterator_input_adapterIN9__gnu_cxx17__normal_iteratorIPKcNSt7__cxx1112basic_stringIcSt11char_traitsIcESaIcEEEEEE13get_characterEv, symObjAddr: 0x24D44, symBinAddr: 0x100026C88, symSize: 0xA8 }
  - { offsetInCU: 0x4D2D8, offset: 0x4D2D8, size: 0x8, addend: 0x0, symName: __ZSt19__relocate_object_aISt6vectorIiSaIiEES2_SaIS2_EEvPT_PT0_RT1_, symObjAddr: 0x24C74, symBinAddr: 0x100026BB8, symSize: 0xD0 }
  - { offsetInCU: 0x4D40E, offset: 0x4D40E, size: 0x8, addend: 0x0, symName: __ZNK8nlohmann16json_abi_v3_11_310basic_jsonISt3mapSt6vectorNSt7__cxx1112basic_stringIcSt11char_traitsIcESaIcEEEbxydSaNS0_14adl_serializerES3_IhSaIhEEvE12get_impl_ptrEPKS9_, symObjAddr: 0x24C38, symBinAddr: 0x100026B7C, symSize: 0x3C }
  - { offsetInCU: 0x4D43D, offset: 0x4D43D, size: 0x8, addend: 0x0, symName: __ZSt19__relocate_object_aIN8nlohmann16json_abi_v3_11_310basic_jsonISt3mapSt6vectorNSt7__cxx1112basic_stringIcSt11char_traitsIcESaIcEEEbxydSaNS1_14adl_serializerES4_IhSaIhEEvEESE_SaISE_EEvPT_PT0_RT1_, symObjAddr: 0x24B68, symBinAddr: 0x100026AAC, symSize: 0xD0 }
  - { offsetInCU: 0x4D56F, offset: 0x4D56F, size: 0x8, addend: 0x0, symName: __ZSt11__addressofIN8nlohmann16json_abi_v3_11_310basic_jsonISt3mapSt6vectorNSt7__cxx1112basic_stringIcSt11char_traitsIcESaIcEEEbxydSaNS1_14adl_serializerES4_IhSaIhEEvEEEPT_RSF_, symObjAddr: 0x24B54, symBinAddr: 0x100026A98, symSize: 0x14 }
  - { offsetInCU: 0x4D609, offset: 0x4D609, size: 0x8, addend: 0x0, symName: __ZNSt12_Vector_baseIhSaIhEE12_Vector_implC1Ev, symObjAddr: 0x24B1C, symBinAddr: 0x100026A60, symSize: 0x38 }
  - { offsetInCU: 0x4D647, offset: 0x4D647, size: 0x8, addend: 0x0, symName: __ZSt12__get_helperILm0EPN8nlohmann16json_abi_v3_11_327byte_container_with_subtypeISt6vectorIhSaIhEEEEJZNS1_10basic_jsonISt3mapS3_NSt7__cxx1112basic_stringIcSt11char_traitsIcESaIcEEEbxydSaNS1_14adl_serializerES5_vE6createIS6_JEEEPT_DpOT0_EUlS7_E_EERKT0_RKSt11_Tuple_implIXT_EJSP_DpT1_EE, symObjAddr: 0x24B00, symBinAddr: 0x100026A44, symSize: 0x1C }
  - { offsetInCU: 0x4D695, offset: 0x4D695, size: 0x8, addend: 0x0, symName: __ZSt3getILm1EJPN8nlohmann16json_abi_v3_11_327byte_container_with_subtypeISt6vectorIhSaIhEEEEZNS1_10basic_jsonISt3mapS3_NSt7__cxx1112basic_stringIcSt11char_traitsIcESaIcEEEbxydSaNS1_14adl_serializerES5_vE6createIS6_JEEEPT_DpOT0_EUlS7_E_EERNSt13tuple_elementIXT_ESt5tupleIJDpSL_EEE4typeERSS_, symObjAddr: 0x24AE4, symBinAddr: 0x100026A28, symSize: 0x1C }
  - { offsetInCU: 0x4D6D9, offset: 0x4D6D9, size: 0x8, addend: 0x0, symName: __ZSt12__get_helperILm0EPN8nlohmann16json_abi_v3_11_327byte_container_with_subtypeISt6vectorIhSaIhEEEEJZNS1_10basic_jsonISt3mapS3_NSt7__cxx1112basic_stringIcSt11char_traitsIcESaIcEEEbxydSaNS1_14adl_serializerES5_vE6createIS6_JEEEPT_DpOT0_EUlS7_E_EERT0_RSt11_Tuple_implIXT_EJSP_DpT1_EE, symObjAddr: 0x24AC8, symBinAddr: 0x100026A0C, symSize: 0x1C }
  - { offsetInCU: 0x4D879, offset: 0x4D879, size: 0x8, addend: 0x0, symName: __ZNSt11_Tuple_implILm0EJPN8nlohmann16json_abi_v3_11_327byte_container_with_subtypeISt6vectorIhSaIhEEEEZNS1_10basic_jsonISt3mapS3_NSt7__cxx1112basic_stringIcSt11char_traitsIcESaIcEEEbxydSaNS1_14adl_serializerES5_vE6createIS6_JEEEPT_DpOT0_EUlS7_E_EEC2IRS7_JRKSO_EvEEOSJ_SN_, symObjAddr: 0x24A6C, symBinAddr: 0x1000269B0, symSize: 0x5C }
  - { offsetInCU: 0x4D7C2, offset: 0x4D7C2, size: 0x8, addend: 0x0, symName: __ZSt7forwardIRPN8nlohmann16json_abi_v3_11_327byte_container_with_subtypeISt6vectorIhSaIhEEEEEOT_RNSt16remove_referenceIS9_E4typeE, symObjAddr: 0x24A58, symBinAddr: 0x10002699C, symSize: 0x14 }
  - { offsetInCU: 0x4D7F4, offset: 0x4D7F4, size: 0x8, addend: 0x0, symName: __ZSt12__get_helperILm0EPNSt7__cxx1112basic_stringIcSt11char_traitsIcESaIcEEEJZN8nlohmann16json_abi_v3_11_310basic_jsonISt3mapSt6vectorS5_bxydSaNS8_14adl_serializerESB_IhSaIhEEvE6createIS5_JRA1_KcEEEPT_DpOT0_EUlS6_E_EERKT0_RKSt11_Tuple_implIXT_EJSQ_DpT1_EE, symObjAddr: 0x24A3C, symBinAddr: 0x100026980, symSize: 0x1C }
  - { offsetInCU: 0x4D842, offset: 0x4D842, size: 0x8, addend: 0x0, symName: __ZSt3getILm1EJPNSt7__cxx1112basic_stringIcSt11char_traitsIcESaIcEEEZN8nlohmann16json_abi_v3_11_310basic_jsonISt3mapSt6vectorS5_bxydSaNS8_14adl_serializerESB_IhSaIhEEvE6createIS5_JRA1_KcEEEPT_DpOT0_EUlS6_E_EERNSt13tuple_elementIXT_ESt5tupleIJDpSM_EEE4typeERST_, symObjAddr: 0x24A20, symBinAddr: 0x100026964, symSize: 0x1C }
  - { offsetInCU: 0x4D886, offset: 0x4D886, size: 0x8, addend: 0x0, symName: __ZSt12__get_helperILm0EPNSt7__cxx1112basic_stringIcSt11char_traitsIcESaIcEEEJZN8nlohmann16json_abi_v3_11_310basic_jsonISt3mapSt6vectorS5_bxydSaNS8_14adl_serializerESB_IhSaIhEEvE6createIS5_JRA1_KcEEEPT_DpOT0_EUlS6_E_EERT0_RSt11_Tuple_implIXT_EJSQ_DpT1_EE, symObjAddr: 0x24A04, symBinAddr: 0x100026948, symSize: 0x1C }
  - { offsetInCU: 0x4DA08, offset: 0x4DA08, size: 0x8, addend: 0x0, symName: __ZNSt11_Tuple_implILm0EJPNSt7__cxx1112basic_stringIcSt11char_traitsIcESaIcEEEZN8nlohmann16json_abi_v3_11_310basic_jsonISt3mapSt6vectorS5_bxydSaNS8_14adl_serializerESB_IhSaIhEEvE6createIS5_JRA1_KcEEEPT_DpOT0_EUlS6_E_EEC2IRS6_JRKSP_EvEEOSK_SO_, symObjAddr: 0x249A8, symBinAddr: 0x1000268EC, symSize: 0x5C }
  - { offsetInCU: 0x4D96F, offset: 0x4D96F, size: 0x8, addend: 0x0, symName: __ZSt7forwardIRPNSt7__cxx1112basic_stringIcSt11char_traitsIcESaIcEEEEOT_RNSt16remove_referenceIS8_E4typeE, symObjAddr: 0x24994, symBinAddr: 0x1000268D8, symSize: 0x14 }
  - { offsetInCU: 0x4D9A1, offset: 0x4D9A1, size: 0x8, addend: 0x0, symName: __ZSt12__get_helperILm0EPSt6vectorIN8nlohmann16json_abi_v3_11_310basic_jsonISt3mapS0_NSt7__cxx1112basic_stringIcSt11char_traitsIcESaIcEEEbxydSaNS2_14adl_serializerES0_IhSaIhEEvEESaISE_EEJZNSE_6createISG_JEEEPT_DpOT0_EUlSH_E_EERKT0_RKSt11_Tuple_implIXT_EJSP_DpT1_EE, symObjAddr: 0x24978, symBinAddr: 0x1000268BC, symSize: 0x1C }
  - { offsetInCU: 0x4D9EF, offset: 0x4D9EF, size: 0x8, addend: 0x0, symName: __ZSt3getILm1EJPSt6vectorIN8nlohmann16json_abi_v3_11_310basic_jsonISt3mapS0_NSt7__cxx1112basic_stringIcSt11char_traitsIcESaIcEEEbxydSaNS2_14adl_serializerES0_IhSaIhEEvEESaISE_EEZNSE_6createISG_JEEEPT_DpOT0_EUlSH_E_EERNSt13tuple_elementIXT_ESt5tupleIJDpSL_EEE4typeERSS_, symObjAddr: 0x2495C, symBinAddr: 0x1000268A0, symSize: 0x1C }
  - { offsetInCU: 0x4DA33, offset: 0x4DA33, size: 0x8, addend: 0x0, symName: __ZSt12__get_helperILm0EPSt6vectorIN8nlohmann16json_abi_v3_11_310basic_jsonISt3mapS0_NSt7__cxx1112basic_stringIcSt11char_traitsIcESaIcEEEbxydSaNS2_14adl_serializerES0_IhSaIhEEvEESaISE_EEJZNSE_6createISG_JEEEPT_DpOT0_EUlSH_E_EERT0_RSt11_Tuple_implIXT_EJSP_DpT1_EE, symObjAddr: 0x24940, symBinAddr: 0x100026884, symSize: 0x1C }
  - { offsetInCU: 0x4DBBD, offset: 0x4DBBD, size: 0x8, addend: 0x0, symName: __ZNSt11_Tuple_implILm0EJPSt6vectorIN8nlohmann16json_abi_v3_11_310basic_jsonISt3mapS0_NSt7__cxx1112basic_stringIcSt11char_traitsIcESaIcEEEbxydSaNS2_14adl_serializerES0_IhSaIhEEvEESaISE_EEZNSE_6createISG_JEEEPT_DpOT0_EUlSH_E_EEC2IRSH_JRKSO_EvEEOSJ_SN_, symObjAddr: 0x248E4, symBinAddr: 0x100026828, symSize: 0x5C }
  - { offsetInCU: 0x4DB1A, offset: 0x4DB1A, size: 0x8, addend: 0x0, symName: __ZNSt8_Rb_treeINSt7__cxx1112basic_stringIcSt11char_traitsIcESaIcEEESt4pairIKS5_N8nlohmann16json_abi_v3_11_310basic_jsonISt3mapSt6vectorS5_bxydSaNS9_14adl_serializerESC_IhSaIhEEvEEESt10_Select1stISH_ESt4lessIvESaISH_EE17_M_construct_nodeIJS5_DnEEEvPSt13_Rb_tree_nodeISH_EDpOT_, symObjAddr: 0x247F4, symBinAddr: 0x100026738, symSize: 0xF0 }
  - { offsetInCU: 0x4DCF2, offset: 0x4DCF2, size: 0x8, addend: 0x0, symName: __ZNSt15__new_allocatorISt13_Rb_tree_nodeISt4pairIKNSt7__cxx1112basic_stringIcSt11char_traitsIcESaIcEEEN8nlohmann16json_abi_v3_11_310basic_jsonISt3mapSt6vectorS7_bxydSaNSA_14adl_serializerESD_IhSaIhEEvEEEEED2Ev, symObjAddr: 0x247E0, symBinAddr: 0x100026724, symSize: 0x14 }
  - { offsetInCU: 0x4DC8C, offset: 0x4DC8C, size: 0x8, addend: 0x0, symName: __ZNSt20_Rb_tree_key_compareISt4lessIvEEC2Ev, symObjAddr: 0x247CC, symBinAddr: 0x100026710, symSize: 0x14 }
  - { offsetInCU: 0x4DC9C, offset: 0x4DC9C, size: 0x8, addend: 0x0, symName: __ZSt12__get_helperILm0EPSt3mapINSt7__cxx1112basic_stringIcSt11char_traitsIcESaIcEEEN8nlohmann16json_abi_v3_11_310basic_jsonIS0_St6vectorS6_bxydSaNS8_14adl_serializerESA_IhSaIhEEvEESt4lessIvESaISt4pairIKS6_SE_EEEJZNSE_6createISL_JEEEPT_DpOT0_EUlSM_E_EERKT0_RKSt11_Tuple_implIXT_EJSU_DpT1_EE, symObjAddr: 0x247B0, symBinAddr: 0x1000266F4, symSize: 0x1C }
  - { offsetInCU: 0x4DCEA, offset: 0x4DCEA, size: 0x8, addend: 0x0, symName: __ZSt3getILm1EJPSt3mapINSt7__cxx1112basic_stringIcSt11char_traitsIcESaIcEEEN8nlohmann16json_abi_v3_11_310basic_jsonIS0_St6vectorS6_bxydSaNS8_14adl_serializerESA_IhSaIhEEvEESt4lessIvESaISt4pairIKS6_SE_EEEZNSE_6createISL_JEEEPT_DpOT0_EUlSM_E_EERNSt13tuple_elementIXT_ESt5tupleIJDpSQ_EEE4typeERSX_, symObjAddr: 0x24794, symBinAddr: 0x1000266D8, symSize: 0x1C }
  - { offsetInCU: 0x4DD2E, offset: 0x4DD2E, size: 0x8, addend: 0x0, symName: __ZSt12__get_helperILm0EPSt3mapINSt7__cxx1112basic_stringIcSt11char_traitsIcESaIcEEEN8nlohmann16json_abi_v3_11_310basic_jsonIS0_St6vectorS6_bxydSaNS8_14adl_serializerESA_IhSaIhEEvEESt4lessIvESaISt4pairIKS6_SE_EEEJZNSE_6createISL_JEEEPT_DpOT0_EUlSM_E_EERT0_RSt11_Tuple_implIXT_EJSU_DpT1_EE, symObjAddr: 0x24778, symBinAddr: 0x1000266BC, symSize: 0x1C }
  - { offsetInCU: 0x4DED2, offset: 0x4DED2, size: 0x8, addend: 0x0, symName: __ZNSt11_Tuple_implILm0EJPSt3mapINSt7__cxx1112basic_stringIcSt11char_traitsIcESaIcEEEN8nlohmann16json_abi_v3_11_310basic_jsonIS0_St6vectorS6_bxydSaNS8_14adl_serializerESA_IhSaIhEEvEESt4lessIvESaISt4pairIKS6_SE_EEEZNSE_6createISL_JEEEPT_DpOT0_EUlSM_E_EEC2IRSM_JRKST_EvEEOSO_SS_, symObjAddr: 0x2471C, symBinAddr: 0x100026660, symSize: 0x5C }
  - { offsetInCU: 0x4DE17, offset: 0x4DE17, size: 0x8, addend: 0x0, symName: __ZSt7forwardIRPSt3mapINSt7__cxx1112basic_stringIcSt11char_traitsIcESaIcEEEN8nlohmann16json_abi_v3_11_310basic_jsonIS0_St6vectorS6_bxydSaNS8_14adl_serializerESA_IhSaIhEEvEESt4lessIvESaISt4pairIKS6_SE_EEEEOT_RNSt16remove_referenceISO_E4typeE, symObjAddr: 0x24708, symBinAddr: 0x10002664C, symSize: 0x14 }
  - { offsetInCU: 0x4DE8E, offset: 0x4DE8E, size: 0x8, addend: 0x0, symName: __ZNSt6vectorIiSaIiEEC1ERKS1_, symObjAddr: 0x245F4, symBinAddr: 0x100026538, symSize: 0x114 }
  - { offsetInCU: 0x4DF8A, offset: 0x4DF8A, size: 0x8, addend: 0x0, symName: __ZSt7forwardIRSt6vectorIiSaIiEEEOT_RNSt16remove_referenceIS4_E4typeE, symObjAddr: 0x245E0, symBinAddr: 0x100026524, symSize: 0x14 }
  - { offsetInCU: 0x4DFC0, offset: 0x4DFC0, size: 0x8, addend: 0x0, symName: __ZNSt6vectorIiSaIiEEaSERKS1_, symObjAddr: 0x24298, symBinAddr: 0x1000261DC, symSize: 0x348 }
  - { offsetInCU: 0x4E144, offset: 0x4E144, size: 0x8, addend: 0x0, symName: __ZSt11__addressofIKSt6vectorIiSaIiEEEPT_RS4_, symObjAddr: 0x24284, symBinAddr: 0x1000261C8, symSize: 0x14 }
  - { offsetInCU: 0x4E17A, offset: 0x4E17A, size: 0x8, addend: 0x0, symName: __ZNK9__gnu_cxx17__normal_iteratorIPKSt6vectorIiSaIiEES1_IS3_SaIS3_EEEdeEv, symObjAddr: 0x2426C, symBinAddr: 0x1000261B0, symSize: 0x18 }
  - { offsetInCU: 0x4E1A4, offset: 0x4E1A4, size: 0x8, addend: 0x0, symName: __ZN9__gnu_cxx17__normal_iteratorIPKSt6vectorIiSaIiEES1_IS3_SaIS3_EEEppEv, symObjAddr: 0x24244, symBinAddr: 0x100026188, symSize: 0x28 }
  - { offsetInCU: 0x4E1D0, offset: 0x4E1D0, size: 0x8, addend: 0x0, symName: __ZN9__gnu_cxxneIPKSt6vectorIiSaIiEES1_IS3_SaIS3_EEEEbRKNS_17__normal_iteratorIT_T0_EESD_, symObjAddr: 0x24200, symBinAddr: 0x100026144, symSize: 0x44 }
  - { offsetInCU: 0x4E226, offset: 0x4E226, size: 0x8, addend: 0x0, symName: __ZNK9__gnu_cxx16__aligned_membufISt4pairIKiSt6vectorIS3_IiSaIiEESaIS5_EEEE7_M_addrEv, symObjAddr: 0x241EC, symBinAddr: 0x100026130, symSize: 0x14 }
  - { offsetInCU: 0x4E2DA, offset: 0x4E2DA, size: 0x8, addend: 0x0, symName: __ZNSt5tupleIJRKiEEC1EOS2_, symObjAddr: 0x241C4, symBinAddr: 0x100026108, symSize: 0x28 }
  - { offsetInCU: 0x4E2F3, offset: 0x4E2F3, size: 0x8, addend: 0x0, symName: __ZNSt15__new_allocatorISt13_Rb_tree_nodeISt4pairIKiSt6vectorIS3_IiSaIiEESaIS5_EEEEE8allocateEmPKv, symObjAddr: 0x24148, symBinAddr: 0x10002608C, symSize: 0x7C }
  - { offsetInCU: 0x4E37B, offset: 0x4E37B, size: 0x8, addend: 0x0, symName: __ZSt10_ConstructISt6vectorIiSaIiEEJRKS2_EEvPT_DpOT0_, symObjAddr: 0x240CC, symBinAddr: 0x100026010, symSize: 0x7C }
  - { offsetInCU: 0x4E3C7, offset: 0x4E3C7, size: 0x8, addend: 0x0, symName: __ZSt10__fill_n_aIPimiET_S1_T0_RKT1_St26random_access_iterator_tag, symObjAddr: 0x24068, symBinAddr: 0x100025FAC, symSize: 0x64 }
  - { offsetInCU: 0x4E451, offset: 0x4E451, size: 0x8, addend: 0x0, symName: __ZNSt6vectorIN8nlohmann16json_abi_v3_11_310basic_jsonISt3mapS_NSt7__cxx1112basic_stringIcSt11char_traitsIcESaIcEEEbxydSaNS1_14adl_serializerES_IhSaIhEEvEESaISD_EE19_M_range_initializeIPKNS1_6detail8json_refISD_EEEEvT_SM_St20forward_iterator_tag, symObjAddr: 0x23F78, symBinAddr: 0x100025EBC, symSize: 0xF0 }
  - { offsetInCU: 0x4E64D, offset: 0x4E64D, size: 0x8, addend: 0x0, symName: __ZNSt12_Vector_baseIN8nlohmann16json_abi_v3_11_310basic_jsonISt3mapSt6vectorNSt7__cxx1112basic_stringIcSt11char_traitsIcESaIcEEEbxydSaNS1_14adl_serializerES4_IhSaIhEEvEESaISE_EEC2ERKSF_, symObjAddr: 0x23F50, symBinAddr: 0x100025E94, symSize: 0x28 }
  - { offsetInCU: 0x4E5C2, offset: 0x4E5C2, size: 0x8, addend: 0x0, symName: __ZSt12__get_helperILm0EPSt6vectorIN8nlohmann16json_abi_v3_11_310basic_jsonISt3mapS0_NSt7__cxx1112basic_stringIcSt11char_traitsIcESaIcEEEbxydSaNS2_14adl_serializerES0_IhSaIhEEvEESaISE_EEJZNSE_6createISG_JPKNS2_6detail8json_refISE_EESN_EEEPT_DpOT0_EUlSH_E_EERKT0_RKSt11_Tuple_implIXT_EJSU_DpT1_EE, symObjAddr: 0x23F34, symBinAddr: 0x100025E78, symSize: 0x1C }
  - { offsetInCU: 0x4E610, offset: 0x4E610, size: 0x8, addend: 0x0, symName: __ZSt3getILm1EJPSt6vectorIN8nlohmann16json_abi_v3_11_310basic_jsonISt3mapS0_NSt7__cxx1112basic_stringIcSt11char_traitsIcESaIcEEEbxydSaNS2_14adl_serializerES0_IhSaIhEEvEESaISE_EEZNSE_6createISG_JPKNS2_6detail8json_refISE_EESN_EEEPT_DpOT0_EUlSH_E_EERNSt13tuple_elementIXT_ESt5tupleIJDpSQ_EEE4typeERSX_, symObjAddr: 0x23F18, symBinAddr: 0x100025E5C, symSize: 0x1C }
  - { offsetInCU: 0x4E654, offset: 0x4E654, size: 0x8, addend: 0x0, symName: __ZSt12__get_helperILm0EPSt6vectorIN8nlohmann16json_abi_v3_11_310basic_jsonISt3mapS0_NSt7__cxx1112basic_stringIcSt11char_traitsIcESaIcEEEbxydSaNS2_14adl_serializerES0_IhSaIhEEvEESaISE_EEJZNSE_6createISG_JPKNS2_6detail8json_refISE_EESN_EEEPT_DpOT0_EUlSH_E_EERT0_RSt11_Tuple_implIXT_EJSU_DpT1_EE, symObjAddr: 0x23EFC, symBinAddr: 0x100025E40, symSize: 0x1C }
  - { offsetInCU: 0x4E7FD, offset: 0x4E7FD, size: 0x8, addend: 0x0, symName: __ZNSt11_Tuple_implILm0EJPSt6vectorIN8nlohmann16json_abi_v3_11_310basic_jsonISt3mapS0_NSt7__cxx1112basic_stringIcSt11char_traitsIcESaIcEEEbxydSaNS2_14adl_serializerES0_IhSaIhEEvEESaISE_EEZNSE_6createISG_JPKNS2_6detail8json_refISE_EESN_EEEPT_DpOT0_EUlSH_E_EEC2IRSH_JRKST_EvEEOSO_SS_, symObjAddr: 0x23EA0, symBinAddr: 0x100025DE4, symSize: 0x5C }
  - { offsetInCU: 0x4E73D, offset: 0x4E73D, size: 0x8, addend: 0x0, symName: __ZSt7forwardIRPSt6vectorIN8nlohmann16json_abi_v3_11_310basic_jsonISt3mapS0_NSt7__cxx1112basic_stringIcSt11char_traitsIcESaIcEEEbxydSaNS2_14adl_serializerES0_IhSaIhEEvEESaISE_EEEOT_RNSt16remove_referenceISJ_E4typeE, symObjAddr: 0x23E8C, symBinAddr: 0x100025DD0, symSize: 0x14 }
  - { offsetInCU: 0x4E77B, offset: 0x4E77B, size: 0x8, addend: 0x0, symName: __ZSt7forwardIRPSt13_Rb_tree_nodeISt4pairIKNSt7__cxx1112basic_stringIcSt11char_traitsIcESaIcEEEN8nlohmann16json_abi_v3_11_310basic_jsonISt3mapSt6vectorS7_bxydSaNSA_14adl_serializerESD_IhSaIhEEvEEEEEOT_RNSt16remove_referenceISM_E4typeE, symObjAddr: 0x23E78, symBinAddr: 0x100025DBC, symSize: 0x14 }
  - { offsetInCU: 0x4E7B1, offset: 0x4E7B1, size: 0x8, addend: 0x0, symName: __ZNKSt10_Select1stISt4pairIKNSt7__cxx1112basic_stringIcSt11char_traitsIcESaIcEEEN8nlohmann16json_abi_v3_11_310basic_jsonISt3mapSt6vectorS6_bxydSaNS9_14adl_serializerESC_IhSaIhEEvEEEEclERKSH_, symObjAddr: 0x23E60, symBinAddr: 0x100025DA4, symSize: 0x18 }
  - { offsetInCU: 0x4E7EC, offset: 0x4E7EC, size: 0x8, addend: 0x0, symName: __ZNKSt13_Rb_tree_nodeISt4pairIKNSt7__cxx1112basic_stringIcSt11char_traitsIcESaIcEEEN8nlohmann16json_abi_v3_11_310basic_jsonISt3mapSt6vectorS6_bxydSaNS9_14adl_serializerESC_IhSaIhEEvEEEE9_M_valptrEv, symObjAddr: 0x23E40, symBinAddr: 0x100025D84, symSize: 0x20 }
  - { offsetInCU: 0x4E816, offset: 0x4E816, size: 0x8, addend: 0x0, symName: __ZNSt8_Rb_treeINSt7__cxx1112basic_stringIcSt11char_traitsIcESaIcEEESt4pairIKS5_N8nlohmann16json_abi_v3_11_310basic_jsonISt3mapSt6vectorS5_bxydSaNS9_14adl_serializerESC_IhSaIhEEvEEESt10_Select1stISH_ESt4lessIvESaISH_EE11_M_put_nodeEPSt13_Rb_tree_nodeISH_E, symObjAddr: 0x23DF4, symBinAddr: 0x100025D38, symSize: 0x4C }
  - { offsetInCU: 0x4E887, offset: 0x4E887, size: 0x8, addend: 0x0, symName: __ZNSt8_Rb_treeINSt7__cxx1112basic_stringIcSt11char_traitsIcESaIcEEESt4pairIKS5_N8nlohmann16json_abi_v3_11_310basic_jsonISt3mapSt6vectorS5_bxydSaNS9_14adl_serializerESC_IhSaIhEEvEEESt10_Select1stISH_ESt4lessIvESaISH_EE15_M_destroy_nodeEPSt13_Rb_tree_nodeISH_E, symObjAddr: 0x23D94, symBinAddr: 0x100025CD8, symSize: 0x60 }
  - { offsetInCU: 0x4E91C, offset: 0x4E91C, size: 0x8, addend: 0x0, symName: __ZNSt8_Rb_treeINSt7__cxx1112basic_stringIcSt11char_traitsIcESaIcEEESt4pairIKS5_N8nlohmann16json_abi_v3_11_310basic_jsonISt3mapSt6vectorS5_bxydSaNS9_14adl_serializerESC_IhSaIhEEvEEESt10_Select1stISH_ESt4lessIvESaISH_EE17_M_construct_nodeIJS5_SG_EEEvPSt13_Rb_tree_nodeISH_EDpOT_, symObjAddr: 0x23CA4, symBinAddr: 0x100025BE8, symSize: 0xF0 }
  - { offsetInCU: 0x4EA02, offset: 0x4EA02, size: 0x8, addend: 0x0, symName: __ZNSt8_Rb_treeINSt7__cxx1112basic_stringIcSt11char_traitsIcESaIcEEESt4pairIKS5_N8nlohmann16json_abi_v3_11_310basic_jsonISt3mapSt6vectorS5_bxydSaNS9_14adl_serializerESC_IhSaIhEEvEEESt10_Select1stISH_ESt4lessIvESaISH_EE11_M_get_nodeEv, symObjAddr: 0x23C68, symBinAddr: 0x100025BAC, symSize: 0x3C }
  - { offsetInCU: 0x4EA59, offset: 0x4EA59, size: 0x8, addend: 0x0, symName: __ZNSt8_Rb_treeINSt7__cxx1112basic_stringIcSt11char_traitsIcESaIcEEESt4pairIKS5_N8nlohmann16json_abi_v3_11_310basic_jsonISt3mapSt6vectorS5_bxydSaNS9_14adl_serializerESC_IhSaIhEEvEEESt10_Select1stISH_ESt4lessIvESaISH_EE11_M_leftmostEv, symObjAddr: 0x23C50, symBinAddr: 0x100025B94, symSize: 0x18 }
  - { offsetInCU: 0x4EA83, offset: 0x4EA83, size: 0x8, addend: 0x0, symName: __ZNSt8_Rb_treeINSt7__cxx1112basic_stringIcSt11char_traitsIcESaIcEEESt4pairIKS5_N8nlohmann16json_abi_v3_11_310basic_jsonISt3mapSt6vectorS5_bxydSaNS9_14adl_serializerESC_IhSaIhEEvEEESt10_Select1stISH_ESt4lessIvESaISH_EE12_M_rightmostEv, symObjAddr: 0x23C38, symBinAddr: 0x100025B7C, symSize: 0x18 }
  - { offsetInCU: 0x4EAAD, offset: 0x4EAAD, size: 0x8, addend: 0x0, symName: __ZNKSt23_Rb_tree_const_iteratorISt4pairIKNSt7__cxx1112basic_stringIcSt11char_traitsIcESaIcEEEN8nlohmann16json_abi_v3_11_310basic_jsonISt3mapSt6vectorS6_bxydSaNS9_14adl_serializerESC_IhSaIhEEvEEEE13_M_const_castEv, symObjAddr: 0x23C10, symBinAddr: 0x100025B54, symSize: 0x28 }
  - { offsetInCU: 0x4EAD7, offset: 0x4EAD7, size: 0x8, addend: 0x0, symName: __ZNSt10unique_ptrIN8nlohmann16json_abi_v3_11_327byte_container_with_subtypeISt6vectorIhSaIhEEEEZNS1_10basic_jsonISt3mapS3_NSt7__cxx1112basic_stringIcSt11char_traitsIcESaIcEEEbxydSaNS1_14adl_serializerES5_vE6createIS6_JRKS6_EEEPT_DpOT0_EUlPS6_E_E7releaseEv, symObjAddr: 0x23BF4, symBinAddr: 0x100025B38, symSize: 0x1C }
  - { offsetInCU: 0x4EAFD, offset: 0x4EAFD, size: 0x8, addend: 0x0, symName: __ZStneIN8nlohmann16json_abi_v3_11_327byte_container_with_subtypeISt6vectorIhSaIhEEEEZNS1_10basic_jsonISt3mapS3_NSt7__cxx1112basic_stringIcSt11char_traitsIcESaIcEEEbxydSaNS1_14adl_serializerES5_vE6createIS6_JRKS6_EEEPT_DpOT0_EUlPS6_E_EbRKSt10unique_ptrISK_T0_EDn, symObjAddr: 0x23BD4, symBinAddr: 0x100025B18, symSize: 0x20 }
  - { offsetInCU: 0x4EB8C, offset: 0x4EB8C, size: 0x8, addend: 0x0, symName: __ZSt7forwardIRKN8nlohmann16json_abi_v3_11_327byte_container_with_subtypeISt6vectorIhSaIhEEEEEOT_RNSt16remove_referenceIS9_E4typeE, symObjAddr: 0x23BC0, symBinAddr: 0x100025B04, symSize: 0x14 }
  - { offsetInCU: 0x4EBC2, offset: 0x4EBC2, size: 0x8, addend: 0x0, symName: __ZNKSt10unique_ptrIN8nlohmann16json_abi_v3_11_327byte_container_with_subtypeISt6vectorIhSaIhEEEEZNS1_10basic_jsonISt3mapS3_NSt7__cxx1112basic_stringIcSt11char_traitsIcESaIcEEEbxydSaNS1_14adl_serializerES5_vE6createIS6_JRKS6_EEEPT_DpOT0_EUlPS6_E_E3getEv, symObjAddr: 0x23BA4, symBinAddr: 0x100025AE8, symSize: 0x1C }
  - { offsetInCU: 0x4ED17, offset: 0x4ED17, size: 0x8, addend: 0x0, symName: __ZNSt10unique_ptrIN8nlohmann16json_abi_v3_11_327byte_container_with_subtypeISt6vectorIhSaIhEEEEZNS1_10basic_jsonISt3mapS3_NSt7__cxx1112basic_stringIcSt11char_traitsIcESaIcEEEbxydSaNS1_14adl_serializerES5_vE6createIS6_JRKS6_EEEPT_DpOT0_EUlPS6_E_ED1Ev, symObjAddr: 0x23B3C, symBinAddr: 0x100025A80, symSize: 0x68 }
  - { offsetInCU: 0x4EDB6, offset: 0x4EDB6, size: 0x8, addend: 0x0, symName: __ZNSt10unique_ptrIN8nlohmann16json_abi_v3_11_327byte_container_with_subtypeISt6vectorIhSaIhEEEEZNS1_10basic_jsonISt3mapS3_NSt7__cxx1112basic_stringIcSt11char_traitsIcESaIcEEEbxydSaNS1_14adl_serializerES5_vE6createIS6_JRKS6_EEEPT_DpOT0_EUlPS6_E_EC1ISQ_vEESP_RKSQ_, symObjAddr: 0x23B0C, symBinAddr: 0x100025A50, symSize: 0x30 }
  - { offsetInCU: 0x4EE50, offset: 0x4EE50, size: 0x8, addend: 0x0, symName: __ZNSt15__uniq_ptr_dataIN8nlohmann16json_abi_v3_11_327byte_container_with_subtypeISt6vectorIhSaIhEEEEZNS1_10basic_jsonISt3mapS3_NSt7__cxx1112basic_stringIcSt11char_traitsIcESaIcEEEbxydSaNS1_14adl_serializerES5_vE6createIS6_JRKS6_EEEPT_DpOT0_EUlPS6_E_Lb1ELb0EECI1St15__uniq_ptr_implIS6_SQ_EIRKSQ_EESP_OSK_, symObjAddr: 0x23ADC, symBinAddr: 0x100025A20, symSize: 0x30 }
  - { offsetInCU: 0x4ED65, offset: 0x4ED65, size: 0x8, addend: 0x0, symName: __ZNSt10unique_ptrINSt7__cxx1112basic_stringIcSt11char_traitsIcESaIcEEEZN8nlohmann16json_abi_v3_11_310basic_jsonISt3mapSt6vectorS5_bxydSaNS7_14adl_serializerESA_IhSaIhEEvE6createIS5_JRKS5_EEEPT_DpOT0_EUlPS5_E_E7releaseEv, symObjAddr: 0x23AC0, symBinAddr: 0x100025A04, symSize: 0x1C }
  - { offsetInCU: 0x4ED8B, offset: 0x4ED8B, size: 0x8, addend: 0x0, symName: __ZStneINSt7__cxx1112basic_stringIcSt11char_traitsIcESaIcEEEZN8nlohmann16json_abi_v3_11_310basic_jsonISt3mapSt6vectorS5_bxydSaNS7_14adl_serializerESA_IhSaIhEEvE6createIS5_JRKS5_EEEPT_DpOT0_EUlPS5_E_EbRKSt10unique_ptrISI_T0_EDn, symObjAddr: 0x23AA0, symBinAddr: 0x1000259E4, symSize: 0x20 }
  - { offsetInCU: 0x4EDD4, offset: 0x4EDD4, size: 0x8, addend: 0x0, symName: __ZNKSt10unique_ptrINSt7__cxx1112basic_stringIcSt11char_traitsIcESaIcEEEZN8nlohmann16json_abi_v3_11_310basic_jsonISt3mapSt6vectorS5_bxydSaNS7_14adl_serializerESA_IhSaIhEEvE6createIS5_JRKS5_EEEPT_DpOT0_EUlPS5_E_E3getEv, symObjAddr: 0x23A84, symBinAddr: 0x1000259C8, symSize: 0x1C }
  - { offsetInCU: 0x4EF05, offset: 0x4EF05, size: 0x8, addend: 0x0, symName: __ZNSt10unique_ptrINSt7__cxx1112basic_stringIcSt11char_traitsIcESaIcEEEZN8nlohmann16json_abi_v3_11_310basic_jsonISt3mapSt6vectorS5_bxydSaNS7_14adl_serializerESA_IhSaIhEEvE6createIS5_JRKS5_EEEPT_DpOT0_EUlPS5_E_ED1Ev, symObjAddr: 0x23A1C, symBinAddr: 0x100025960, symSize: 0x68 }
  - { offsetInCU: 0x4EFA4, offset: 0x4EFA4, size: 0x8, addend: 0x0, symName: __ZNSt10unique_ptrINSt7__cxx1112basic_stringIcSt11char_traitsIcESaIcEEEZN8nlohmann16json_abi_v3_11_310basic_jsonISt3mapSt6vectorS5_bxydSaNS7_14adl_serializerESA_IhSaIhEEvE6createIS5_JRKS5_EEEPT_DpOT0_EUlPS5_E_EC1ISO_vEESN_RKSO_, symObjAddr: 0x239EC, symBinAddr: 0x100025930, symSize: 0x30 }
  - { offsetInCU: 0x4F03E, offset: 0x4F03E, size: 0x8, addend: 0x0, symName: __ZNSt15__uniq_ptr_dataINSt7__cxx1112basic_stringIcSt11char_traitsIcESaIcEEEZN8nlohmann16json_abi_v3_11_310basic_jsonISt3mapSt6vectorS5_bxydSaNS7_14adl_serializerESA_IhSaIhEEvE6createIS5_JRKS5_EEEPT_DpOT0_EUlPS5_E_Lb1ELb0EECI1St15__uniq_ptr_implIS5_SO_EIRKSO_EESN_OSI_, symObjAddr: 0x239BC, symBinAddr: 0x100025900, symSize: 0x30 }
  - { offsetInCU: 0x4EF77, offset: 0x4EF77, size: 0x8, addend: 0x0, symName: __ZNSt10unique_ptrISt6vectorIN8nlohmann16json_abi_v3_11_310basic_jsonISt3mapS0_NSt7__cxx1112basic_stringIcSt11char_traitsIcESaIcEEEbxydSaNS2_14adl_serializerES0_IhSaIhEEvEESaISE_EEZNSE_6createISG_JRKSG_EEEPT_DpOT0_EUlPSG_E_E7releaseEv, symObjAddr: 0x239A0, symBinAddr: 0x1000258E4, symSize: 0x1C }
  - { offsetInCU: 0x4EF9D, offset: 0x4EF9D, size: 0x8, addend: 0x0, symName: __ZStneISt6vectorIN8nlohmann16json_abi_v3_11_310basic_jsonISt3mapS0_NSt7__cxx1112basic_stringIcSt11char_traitsIcESaIcEEEbxydSaNS2_14adl_serializerES0_IhSaIhEEvEESaISE_EEZNSE_6createISG_JRKSG_EEEPT_DpOT0_EUlPSG_E_EbRKSt10unique_ptrISK_T0_EDn, symObjAddr: 0x23980, symBinAddr: 0x1000258C4, symSize: 0x20 }
  - { offsetInCU: 0x4F02C, offset: 0x4F02C, size: 0x8, addend: 0x0, symName: __ZSt7forwardIRKSt6vectorIN8nlohmann16json_abi_v3_11_310basic_jsonISt3mapS0_NSt7__cxx1112basic_stringIcSt11char_traitsIcESaIcEEEbxydSaNS2_14adl_serializerES0_IhSaIhEEvEESaISE_EEEOT_RNSt16remove_referenceISJ_E4typeE, symObjAddr: 0x2396C, symBinAddr: 0x1000258B0, symSize: 0x14 }
  - { offsetInCU: 0x4F062, offset: 0x4F062, size: 0x8, addend: 0x0, symName: __ZNKSt10unique_ptrISt6vectorIN8nlohmann16json_abi_v3_11_310basic_jsonISt3mapS0_NSt7__cxx1112basic_stringIcSt11char_traitsIcESaIcEEEbxydSaNS2_14adl_serializerES0_IhSaIhEEvEESaISE_EEZNSE_6createISG_JRKSG_EEEPT_DpOT0_EUlPSG_E_E3getEv, symObjAddr: 0x23950, symBinAddr: 0x100025894, symSize: 0x1C }
  - { offsetInCU: 0x4F1A1, offset: 0x4F1A1, size: 0x8, addend: 0x0, symName: __ZNSt10unique_ptrISt6vectorIN8nlohmann16json_abi_v3_11_310basic_jsonISt3mapS0_NSt7__cxx1112basic_stringIcSt11char_traitsIcESaIcEEEbxydSaNS2_14adl_serializerES0_IhSaIhEEvEESaISE_EEZNSE_6createISG_JRKSG_EEEPT_DpOT0_EUlPSG_E_ED1Ev, symObjAddr: 0x238E8, symBinAddr: 0x10002582C, symSize: 0x68 }
  - { offsetInCU: 0x4F240, offset: 0x4F240, size: 0x8, addend: 0x0, symName: __ZNSt10unique_ptrISt6vectorIN8nlohmann16json_abi_v3_11_310basic_jsonISt3mapS0_NSt7__cxx1112basic_stringIcSt11char_traitsIcESaIcEEEbxydSaNS2_14adl_serializerES0_IhSaIhEEvEESaISE_EEZNSE_6createISG_JRKSG_EEEPT_DpOT0_EUlPSG_E_EC1ISQ_vEESP_RKSQ_, symObjAddr: 0x238B8, symBinAddr: 0x1000257FC, symSize: 0x30 }
  - { offsetInCU: 0x4F2DA, offset: 0x4F2DA, size: 0x8, addend: 0x0, symName: __ZNSt15__uniq_ptr_dataISt6vectorIN8nlohmann16json_abi_v3_11_310basic_jsonISt3mapS0_NSt7__cxx1112basic_stringIcSt11char_traitsIcESaIcEEEbxydSaNS2_14adl_serializerES0_IhSaIhEEvEESaISE_EEZNSE_6createISG_JRKSG_EEEPT_DpOT0_EUlPSG_E_Lb1ELb0EECI1St15__uniq_ptr_implISG_SQ_EIRKSQ_EESP_OSK_, symObjAddr: 0x23888, symBinAddr: 0x1000257CC, symSize: 0x30 }
  - { offsetInCU: 0x4F205, offset: 0x4F205, size: 0x8, addend: 0x0, symName: __ZNSt10unique_ptrISt3mapINSt7__cxx1112basic_stringIcSt11char_traitsIcESaIcEEEN8nlohmann16json_abi_v3_11_310basic_jsonIS0_St6vectorS6_bxydSaNS8_14adl_serializerESA_IhSaIhEEvEESt4lessIvESaISt4pairIKS6_SE_EEEZNSE_6createISL_JRKSL_EEEPT_DpOT0_EUlPSL_E_E7releaseEv, symObjAddr: 0x2386C, symBinAddr: 0x1000257B0, symSize: 0x1C }
  - { offsetInCU: 0x4F22B, offset: 0x4F22B, size: 0x8, addend: 0x0, symName: __ZStneISt3mapINSt7__cxx1112basic_stringIcSt11char_traitsIcESaIcEEEN8nlohmann16json_abi_v3_11_310basic_jsonIS0_St6vectorS6_bxydSaNS8_14adl_serializerESA_IhSaIhEEvEESt4lessIvESaISt4pairIKS6_SE_EEEZNSE_6createISL_JRKSL_EEEPT_DpOT0_EUlPSL_E_EbRKSt10unique_ptrISP_T0_EDn, symObjAddr: 0x2384C, symBinAddr: 0x100025790, symSize: 0x20 }
  - { offsetInCU: 0x4F2BA, offset: 0x4F2BA, size: 0x8, addend: 0x0, symName: __ZSt7forwardIRKSt3mapINSt7__cxx1112basic_stringIcSt11char_traitsIcESaIcEEEN8nlohmann16json_abi_v3_11_310basic_jsonIS0_St6vectorS6_bxydSaNS8_14adl_serializerESA_IhSaIhEEvEESt4lessIvESaISt4pairIKS6_SE_EEEEOT_RNSt16remove_referenceISO_E4typeE, symObjAddr: 0x23838, symBinAddr: 0x10002577C, symSize: 0x14 }
  - { offsetInCU: 0x4F2F0, offset: 0x4F2F0, size: 0x8, addend: 0x0, symName: __ZNKSt10unique_ptrISt3mapINSt7__cxx1112basic_stringIcSt11char_traitsIcESaIcEEEN8nlohmann16json_abi_v3_11_310basic_jsonIS0_St6vectorS6_bxydSaNS8_14adl_serializerESA_IhSaIhEEvEESt4lessIvESaISt4pairIKS6_SE_EEEZNSE_6createISL_JRKSL_EEEPT_DpOT0_EUlPSL_E_E3getEv, symObjAddr: 0x2381C, symBinAddr: 0x100025760, symSize: 0x1C }
  - { offsetInCU: 0x4F449, offset: 0x4F449, size: 0x8, addend: 0x0, symName: __ZNSt10unique_ptrISt3mapINSt7__cxx1112basic_stringIcSt11char_traitsIcESaIcEEEN8nlohmann16json_abi_v3_11_310basic_jsonIS0_St6vectorS6_bxydSaNS8_14adl_serializerESA_IhSaIhEEvEESt4lessIvESaISt4pairIKS6_SE_EEEZNSE_6createISL_JRKSL_EEEPT_DpOT0_EUlPSL_E_ED1Ev, symObjAddr: 0x237B4, symBinAddr: 0x1000256F8, symSize: 0x68 }
  - { offsetInCU: 0x4F4E8, offset: 0x4F4E8, size: 0x8, addend: 0x0, symName: __ZNSt10unique_ptrISt3mapINSt7__cxx1112basic_stringIcSt11char_traitsIcESaIcEEEN8nlohmann16json_abi_v3_11_310basic_jsonIS0_St6vectorS6_bxydSaNS8_14adl_serializerESA_IhSaIhEEvEESt4lessIvESaISt4pairIKS6_SE_EEEZNSE_6createISL_JRKSL_EEEPT_DpOT0_EUlPSL_E_EC1ISV_vEESU_RKSV_, symObjAddr: 0x23784, symBinAddr: 0x1000256C8, symSize: 0x30 }
  - { offsetInCU: 0x4F582, offset: 0x4F582, size: 0x8, addend: 0x0, symName: __ZNSt15__uniq_ptr_dataISt3mapINSt7__cxx1112basic_stringIcSt11char_traitsIcESaIcEEEN8nlohmann16json_abi_v3_11_310basic_jsonIS0_St6vectorS6_bxydSaNS8_14adl_serializerESA_IhSaIhEEvEESt4lessIvESaISt4pairIKS6_SE_EEEZNSE_6createISL_JRKSL_EEEPT_DpOT0_EUlPSL_E_Lb1ELb0EECI1St15__uniq_ptr_implISL_SV_EIRKSV_EESU_OSP_, symObjAddr: 0x23754, symBinAddr: 0x100025698, symSize: 0x30 }
  - { offsetInCU: 0x4F493, offset: 0x4F493, size: 0x8, addend: 0x0, symName: __ZN9__gnu_cxx5__ops12_Iter_negateIZN8nlohmann16json_abi_v3_11_310basic_jsonISt3mapSt6vectorNSt7__cxx1112basic_stringIcSt11char_traitsIcESaIcEEEbxydSaNS3_14adl_serializerES6_IhSaIhEEvEC4ESt16initializer_listINS3_6detail8json_refISG_EEEbNSI_7value_tEEUlRKSK_E_EclIPSN_EEbT_, symObjAddr: 0x23728, symBinAddr: 0x10002566C, symSize: 0x2C }
  - { offsetInCU: 0x4F605, offset: 0x4F605, size: 0x8, addend: 0x0, symName: __ZN9__gnu_cxx5__ops12_Iter_negateIZN8nlohmann16json_abi_v3_11_310basic_jsonISt3mapSt6vectorNSt7__cxx1112basic_stringIcSt11char_traitsIcESaIcEEEbxydSaNS3_14adl_serializerES6_IhSaIhEEvEC4ESt16initializer_listINS3_6detail8json_refISG_EEEbNSI_7value_tEEUlRKSK_E_EC1ESP_, symObjAddr: 0x23704, symBinAddr: 0x100025648, symSize: 0x24 }
  - { offsetInCU: 0x4F52A, offset: 0x4F52A, size: 0x8, addend: 0x0, symName: __ZSt13__copy_move_aILb0EPKiPiET1_T0_S4_S3_, symObjAddr: 0x236A4, symBinAddr: 0x1000255E8, symSize: 0x60 }
  - { offsetInCU: 0x4F592, offset: 0x4F592, size: 0x8, addend: 0x0, symName: __ZSt12__miter_baseIPKiET_S2_, symObjAddr: 0x23690, symBinAddr: 0x1000255D4, symSize: 0x14 }
  - { offsetInCU: 0x4F604, offset: 0x4F604, size: 0x8, addend: 0x0, symName: __ZNSt12_Vector_baseIhSaIhEE19_M_get_Tp_allocatorEv, symObjAddr: 0x2367C, symBinAddr: 0x1000255C0, symSize: 0x14 }
  - { offsetInCU: 0x4F66E, offset: 0x4F66E, size: 0x8, addend: 0x0, symName: __ZNSt12_Vector_baseIhSaIhEED2Ev, symObjAddr: 0x23630, symBinAddr: 0x100025574, symSize: 0x4C }
  - { offsetInCU: 0x4F6B6, offset: 0x4F6B6, size: 0x8, addend: 0x0, symName: __ZSt14__copy_move_a2ILb1EPN8nlohmann16json_abi_v3_11_310basic_jsonISt3mapSt6vectorNSt7__cxx1112basic_stringIcSt11char_traitsIcESaIcEEEbxydSaNS1_14adl_serializerES4_IhSaIhEEvEESt20back_insert_iteratorIS4_ISE_SaISE_EEEET1_T0_SL_SK_, symObjAddr: 0x23604, symBinAddr: 0x100025548, symSize: 0x2C }
  - { offsetInCU: 0x4F734, offset: 0x4F734, size: 0x8, addend: 0x0, symName: __ZNSt12_Destroy_auxILb0EE9__destroyIPN8nlohmann16json_abi_v3_11_310basic_jsonISt3mapSt6vectorNSt7__cxx1112basic_stringIcSt11char_traitsIcESaIcEEEbxydSaNS3_14adl_serializerES6_IhSaIhEEvEEEEvT_SI_, symObjAddr: 0x235B8, symBinAddr: 0x1000254FC, symSize: 0x4C }
  - { offsetInCU: 0x4F77A, offset: 0x4F77A, size: 0x8, addend: 0x0, symName: __ZNSt6vectorIN8nlohmann16json_abi_v3_11_310basic_jsonISt3mapS_NSt7__cxx1112basic_stringIcSt11char_traitsIcESaIcEEEbxydSaNS1_14adl_serializerES_IhSaIhEEvEESaISD_EE17_M_realloc_appendIJRyEEEvDpOT_, symObjAddr: 0x233F8, symBinAddr: 0x10002533C, symSize: 0x1C0 }
  - { offsetInCU: 0x4F9D4, offset: 0x4F9D4, size: 0x8, addend: 0x0, symName: __ZZNSt6vectorIN8nlohmann16json_abi_v3_11_310basic_jsonISt3mapS_NSt7__cxx1112basic_stringIcSt11char_traitsIcESaIcEEEbxydSaNS1_14adl_serializerES_IhSaIhEEvEESaISD_EE17_M_realloc_appendIJRyEEEvDpOT_EN6_GuardC1EPSD_mRSE_, symObjAddr: 0x23354, symBinAddr: 0x100025298, symSize: 0x44 }
  - { offsetInCU: 0x4FA11, offset: 0x4FA11, size: 0x8, addend: 0x0, symName: __ZZNSt6vectorIN8nlohmann16json_abi_v3_11_310basic_jsonISt3mapS_NSt7__cxx1112basic_stringIcSt11char_traitsIcESaIcEEEbxydSaNS1_14adl_serializerES_IhSaIhEEvEESaISD_EE17_M_realloc_appendIJRyEEEvDpOT_EN6_GuardD1Ev, symObjAddr: 0x23398, symBinAddr: 0x1000252DC, symSize: 0x60 }
  - { offsetInCU: 0x4FA7B, offset: 0x4FA7B, size: 0x8, addend: 0x0, symName: __ZNSt6vectorIN8nlohmann16json_abi_v3_11_310basic_jsonISt3mapS_NSt7__cxx1112basic_stringIcSt11char_traitsIcESaIcEEEbxydSaNS1_14adl_serializerES_IhSaIhEEvEESaISD_EE17_M_realloc_appendIJRS9_EEEvDpOT_, symObjAddr: 0x23158, symBinAddr: 0x10002509C, symSize: 0x1FC }
  - { offsetInCU: 0x4FCD7, offset: 0x4FCD7, size: 0x8, addend: 0x0, symName: __ZZNSt6vectorIN8nlohmann16json_abi_v3_11_310basic_jsonISt3mapS_NSt7__cxx1112basic_stringIcSt11char_traitsIcESaIcEEEbxydSaNS1_14adl_serializerES_IhSaIhEEvEESaISD_EE17_M_realloc_appendIJRS9_EEEvDpOT_EN6_GuardC1EPSD_mRSE_, symObjAddr: 0x230B4, symBinAddr: 0x100024FF8, symSize: 0x44 }
  - { offsetInCU: 0x4FD14, offset: 0x4FD14, size: 0x8, addend: 0x0, symName: __ZZNSt6vectorIN8nlohmann16json_abi_v3_11_310basic_jsonISt3mapS_NSt7__cxx1112basic_stringIcSt11char_traitsIcESaIcEEEbxydSaNS1_14adl_serializerES_IhSaIhEEvEESaISD_EE17_M_realloc_appendIJRS9_EEEvDpOT_EN6_GuardD1Ev, symObjAddr: 0x230F8, symBinAddr: 0x10002503C, symSize: 0x60 }
  - { offsetInCU: 0x4FD78, offset: 0x4FD78, size: 0x8, addend: 0x0, symName: __ZNSt6vectorIN8nlohmann16json_abi_v3_11_310basic_jsonISt3mapS_NSt7__cxx1112basic_stringIcSt11char_traitsIcESaIcEEEbxydSaNS1_14adl_serializerES_IhSaIhEEvEESaISD_EE17_M_realloc_appendIJRxEEEvDpOT_, symObjAddr: 0x22EF4, symBinAddr: 0x100024E38, symSize: 0x1C0 }
  - { offsetInCU: 0x4FFD2, offset: 0x4FFD2, size: 0x8, addend: 0x0, symName: __ZZNSt6vectorIN8nlohmann16json_abi_v3_11_310basic_jsonISt3mapS_NSt7__cxx1112basic_stringIcSt11char_traitsIcESaIcEEEbxydSaNS1_14adl_serializerES_IhSaIhEEvEESaISD_EE17_M_realloc_appendIJRxEEEvDpOT_EN6_GuardC1EPSD_mRSE_, symObjAddr: 0x22E50, symBinAddr: 0x100024D94, symSize: 0x44 }
  - { offsetInCU: 0x5000F, offset: 0x5000F, size: 0x8, addend: 0x0, symName: __ZZNSt6vectorIN8nlohmann16json_abi_v3_11_310basic_jsonISt3mapS_NSt7__cxx1112basic_stringIcSt11char_traitsIcESaIcEEEbxydSaNS1_14adl_serializerES_IhSaIhEEvEESaISD_EE17_M_realloc_appendIJRxEEEvDpOT_EN6_GuardD1Ev, symObjAddr: 0x22E94, symBinAddr: 0x100024DD8, symSize: 0x60 }
  - { offsetInCU: 0x50079, offset: 0x50079, size: 0x8, addend: 0x0, symName: __ZNSt6vectorIN8nlohmann16json_abi_v3_11_310basic_jsonISt3mapS_NSt7__cxx1112basic_stringIcSt11char_traitsIcESaIcEEEbxydSaNS1_14adl_serializerES_IhSaIhEEvEESaISD_EE17_M_realloc_appendIJDnEEEvDpOT_, symObjAddr: 0x22C8C, symBinAddr: 0x100024BD0, symSize: 0x1C4 }
  - { offsetInCU: 0x502D3, offset: 0x502D3, size: 0x8, addend: 0x0, symName: __ZZNSt6vectorIN8nlohmann16json_abi_v3_11_310basic_jsonISt3mapS_NSt7__cxx1112basic_stringIcSt11char_traitsIcESaIcEEEbxydSaNS1_14adl_serializerES_IhSaIhEEvEESaISD_EE17_M_realloc_appendIJDnEEEvDpOT_EN6_GuardC1EPSD_mRSE_, symObjAddr: 0x22BE8, symBinAddr: 0x100024B2C, symSize: 0x44 }
  - { offsetInCU: 0x50310, offset: 0x50310, size: 0x8, addend: 0x0, symName: __ZZNSt6vectorIN8nlohmann16json_abi_v3_11_310basic_jsonISt3mapS_NSt7__cxx1112basic_stringIcSt11char_traitsIcESaIcEEEbxydSaNS1_14adl_serializerES_IhSaIhEEvEESaISD_EE17_M_realloc_appendIJDnEEEvDpOT_EN6_GuardD1Ev, symObjAddr: 0x22C2C, symBinAddr: 0x100024B70, symSize: 0x60 }
  - { offsetInCU: 0x5037A, offset: 0x5037A, size: 0x8, addend: 0x0, symName: __ZNSt6vectorIN8nlohmann16json_abi_v3_11_310basic_jsonISt3mapS_NSt7__cxx1112basic_stringIcSt11char_traitsIcESaIcEEEbxydSaNS1_14adl_serializerES_IhSaIhEEvEESaISD_EE17_M_realloc_appendIJRbEEEvDpOT_, symObjAddr: 0x22A28, symBinAddr: 0x10002496C, symSize: 0x1C0 }
  - { offsetInCU: 0x505D4, offset: 0x505D4, size: 0x8, addend: 0x0, symName: __ZZNSt6vectorIN8nlohmann16json_abi_v3_11_310basic_jsonISt3mapS_NSt7__cxx1112basic_stringIcSt11char_traitsIcESaIcEEEbxydSaNS1_14adl_serializerES_IhSaIhEEvEESaISD_EE17_M_realloc_appendIJRbEEEvDpOT_EN6_GuardC1EPSD_mRSE_, symObjAddr: 0x22984, symBinAddr: 0x1000248C8, symSize: 0x44 }
  - { offsetInCU: 0x50611, offset: 0x50611, size: 0x8, addend: 0x0, symName: __ZZNSt6vectorIN8nlohmann16json_abi_v3_11_310basic_jsonISt3mapS_NSt7__cxx1112basic_stringIcSt11char_traitsIcESaIcEEEbxydSaNS1_14adl_serializerES_IhSaIhEEvEESaISD_EE17_M_realloc_appendIJRbEEEvDpOT_EN6_GuardD1Ev, symObjAddr: 0x229C8, symBinAddr: 0x10002490C, symSize: 0x60 }
  - { offsetInCU: 0x5067B, offset: 0x5067B, size: 0x8, addend: 0x0, symName: __ZNSt6vectorIN8nlohmann16json_abi_v3_11_310basic_jsonISt3mapS_NSt7__cxx1112basic_stringIcSt11char_traitsIcESaIcEEEbxydSaNS1_14adl_serializerES_IhSaIhEEvEESaISD_EE17_M_realloc_appendIJRdEEEvDpOT_, symObjAddr: 0x227C4, symBinAddr: 0x100024708, symSize: 0x1C0 }
  - { offsetInCU: 0x508D5, offset: 0x508D5, size: 0x8, addend: 0x0, symName: __ZZNSt6vectorIN8nlohmann16json_abi_v3_11_310basic_jsonISt3mapS_NSt7__cxx1112basic_stringIcSt11char_traitsIcESaIcEEEbxydSaNS1_14adl_serializerES_IhSaIhEEvEESaISD_EE17_M_realloc_appendIJRdEEEvDpOT_EN6_GuardC1EPSD_mRSE_, symObjAddr: 0x22720, symBinAddr: 0x100024664, symSize: 0x44 }
  - { offsetInCU: 0x50912, offset: 0x50912, size: 0x8, addend: 0x0, symName: __ZZNSt6vectorIN8nlohmann16json_abi_v3_11_310basic_jsonISt3mapS_NSt7__cxx1112basic_stringIcSt11char_traitsIcESaIcEEEbxydSaNS1_14adl_serializerES_IhSaIhEEvEESaISD_EE17_M_realloc_appendIJRdEEEvDpOT_EN6_GuardD1Ev, symObjAddr: 0x22764, symBinAddr: 0x1000246A8, symSize: 0x60 }
  - { offsetInCU: 0x5097C, offset: 0x5097C, size: 0x8, addend: 0x0, symName: __ZNSt6vectorIPN8nlohmann16json_abi_v3_11_310basic_jsonISt3mapS_NSt7__cxx1112basic_stringIcSt11char_traitsIcESaIcEEEbxydSaNS1_14adl_serializerES_IhSaIhEEvEESaISE_EE17_M_realloc_appendIJSE_EEEvDpOT_, symObjAddr: 0x22564, symBinAddr: 0x1000244A8, symSize: 0x1BC }
  - { offsetInCU: 0x50BD8, offset: 0x50BD8, size: 0x8, addend: 0x0, symName: __ZZNSt6vectorIPN8nlohmann16json_abi_v3_11_310basic_jsonISt3mapS_NSt7__cxx1112basic_stringIcSt11char_traitsIcESaIcEEEbxydSaNS1_14adl_serializerES_IhSaIhEEvEESaISE_EE17_M_realloc_appendIJSE_EEEvDpOT_EN6_GuardC1EPSE_mRSF_, symObjAddr: 0x224C0, symBinAddr: 0x100024404, symSize: 0x44 }
  - { offsetInCU: 0x50C15, offset: 0x50C15, size: 0x8, addend: 0x0, symName: __ZZNSt6vectorIPN8nlohmann16json_abi_v3_11_310basic_jsonISt3mapS_NSt7__cxx1112basic_stringIcSt11char_traitsIcESaIcEEEbxydSaNS1_14adl_serializerES_IhSaIhEEvEESaISE_EE17_M_realloc_appendIJSE_EEEvDpOT_EN6_GuardD1Ev, symObjAddr: 0x22504, symBinAddr: 0x100024448, symSize: 0x60 }
  - { offsetInCU: 0x50C7D, offset: 0x50C7D, size: 0x8, addend: 0x0, symName: __ZNSt6vectorIN8nlohmann16json_abi_v3_11_310basic_jsonISt3mapS_NSt7__cxx1112basic_stringIcSt11char_traitsIcESaIcEEEbxydSaNS1_14adl_serializerES_IhSaIhEEvEESaISD_EE17_M_realloc_appendIJNS1_6detail7value_tEEEEvDpOT_, symObjAddr: 0x222C0, symBinAddr: 0x100024204, symSize: 0x200 }
  - { offsetInCU: 0x50EE9, offset: 0x50EE9, size: 0x8, addend: 0x0, symName: __ZZNSt6vectorIN8nlohmann16json_abi_v3_11_310basic_jsonISt3mapS_NSt7__cxx1112basic_stringIcSt11char_traitsIcESaIcEEEbxydSaNS1_14adl_serializerES_IhSaIhEEvEESaISD_EE17_M_realloc_appendIJNS1_6detail7value_tEEEEvDpOT_EN6_GuardC1EPSD_mRSE_, symObjAddr: 0x2221C, symBinAddr: 0x100024160, symSize: 0x44 }
  - { offsetInCU: 0x50F26, offset: 0x50F26, size: 0x8, addend: 0x0, symName: __ZZNSt6vectorIN8nlohmann16json_abi_v3_11_310basic_jsonISt3mapS_NSt7__cxx1112basic_stringIcSt11char_traitsIcESaIcEEEbxydSaNS1_14adl_serializerES_IhSaIhEEvEESaISD_EE17_M_realloc_appendIJNS1_6detail7value_tEEEEvDpOT_EN6_GuardD1Ev, symObjAddr: 0x22260, symBinAddr: 0x1000241A4, symSize: 0x60 }
  - { offsetInCU: 0x50F76, offset: 0x50F76, size: 0x8, addend: 0x0, symName: __ZN8nlohmann16json_abi_v3_11_36detail11concat_intoINSt7__cxx1112basic_stringIcSt11char_traitsIcESaIcEEES8_JRA3_KcS8_RKS8_ELi0EEEvRT_OT0_DpOT1_, symObjAddr: 0x221A4, symBinAddr: 0x1000240E8, symSize: 0x78 }
  - { offsetInCU: 0x50FFA, offset: 0x50FFA, size: 0x8, addend: 0x0, symName: __ZN8nlohmann16json_abi_v3_11_36detail13concat_lengthINSt7__cxx1112basic_stringIcSt11char_traitsIcESaIcEEEJA3_cS8_S8_EEEmRKT_DpRKT0_, symObjAddr: 0x2215C, symBinAddr: 0x1000240A0, symSize: 0x48 }
  - { offsetInCU: 0x51068, offset: 0x51068, size: 0x8, addend: 0x0, symName: __ZNKSt16initializer_listIjE3endEv, symObjAddr: 0x22124, symBinAddr: 0x100024068, symSize: 0x38 }
  - { offsetInCU: 0x51092, offset: 0x51092, size: 0x8, addend: 0x0, symName: __ZNKSt16initializer_listIjE5beginEv, symObjAddr: 0x2210C, symBinAddr: 0x100024050, symSize: 0x18 }
  - { offsetInCU: 0x510BC, offset: 0x510BC, size: 0x8, addend: 0x0, symName: __ZNSt6vectorIcSaIcEE5clearEv, symObjAddr: 0x220E0, symBinAddr: 0x100024024, symSize: 0x2C }
  - { offsetInCU: 0x510E6, offset: 0x510E6, size: 0x8, addend: 0x0, symName: __ZNSt6vectorIcSaIcEE8pop_backEv, symObjAddr: 0x2208C, symBinAddr: 0x100023FD0, symSize: 0x54 }
  - { offsetInCU: 0x5116A, offset: 0x5116A, size: 0x8, addend: 0x0, symName: __ZNKSt6vectorIcSaIcEE5emptyEv, symObjAddr: 0x22054, symBinAddr: 0x100023F98, symSize: 0x38 }
  - { offsetInCU: 0x51194, offset: 0x51194, size: 0x8, addend: 0x0, symName: __ZNSt6vectorIcSaIcEE9push_backEOc, symObjAddr: 0x22024, symBinAddr: 0x100023F68, symSize: 0x30 }
  - { offsetInCU: 0x511CB, offset: 0x511CB, size: 0x8, addend: 0x0, symName: __ZN8nlohmann16json_abi_v3_11_314adl_serializerIyvE7to_jsonINS0_10basic_jsonISt3mapSt6vectorNSt7__cxx1112basic_stringIcSt11char_traitsIcESaIcEEEbxydSaS1_S6_IhSaIhEEvEERyEEDTcmclL_ZNS0_7to_jsonEEfp_cl7forwardIT0_Efp0_EEcvv_EERT_OSH_, symObjAddr: 0x21FE0, symBinAddr: 0x100023F24, symSize: 0x44 }
  - { offsetInCU: 0x51218, offset: 0x51218, size: 0x8, addend: 0x0, symName: __ZN8nlohmann16json_abi_v3_11_314adl_serializerIxvE7to_jsonINS0_10basic_jsonISt3mapSt6vectorNSt7__cxx1112basic_stringIcSt11char_traitsIcESaIcEEEbxydSaS1_S6_IhSaIhEEvEERxEEDTcmclL_ZNS0_7to_jsonEEfp_cl7forwardIT0_Efp0_EEcvv_EERT_OSH_, symObjAddr: 0x21F9C, symBinAddr: 0x100023EE0, symSize: 0x44 }
  - { offsetInCU: 0x51265, offset: 0x51265, size: 0x8, addend: 0x0, symName: __ZN8nlohmann16json_abi_v3_11_314adl_serializerIbvE7to_jsonINS0_10basic_jsonISt3mapSt6vectorNSt7__cxx1112basic_stringIcSt11char_traitsIcESaIcEEEbxydSaS1_S6_IhSaIhEEvEERbEEDTcmclL_ZNS0_7to_jsonEEfp_cl7forwardIT0_Efp0_EEcvv_EERT_OSH_, symObjAddr: 0x21F58, symBinAddr: 0x100023E9C, symSize: 0x44 }
  - { offsetInCU: 0x512B2, offset: 0x512B2, size: 0x8, addend: 0x0, symName: __ZN8nlohmann16json_abi_v3_11_314adl_serializerIdvE7to_jsonINS0_10basic_jsonISt3mapSt6vectorNSt7__cxx1112basic_stringIcSt11char_traitsIcESaIcEEEbxydSaS1_S6_IhSaIhEEvEERdEEDTcmclL_ZNS0_7to_jsonEEfp_cl7forwardIT0_Efp0_EEcvv_EERT_OSH_, symObjAddr: 0x21F14, symBinAddr: 0x100023E58, symSize: 0x44 }
  - { offsetInCU: 0x512FF, offset: 0x512FF, size: 0x8, addend: 0x0, symName: __ZN8nlohmann16json_abi_v3_11_36detail11concat_intoINSt7__cxx1112basic_stringIcSt11char_traitsIcESaIcEEEcJELi0EEEvRT_OT0_DpOT1_, symObjAddr: 0x21ED8, symBinAddr: 0x100023E1C, symSize: 0x3C }
  - { offsetInCU: 0x51357, offset: 0x51357, size: 0x8, addend: 0x0, symName: __ZN8nlohmann16json_abi_v3_11_36detail13concat_lengthIJEEEmcDpRKT_, symObjAddr: 0x21EBC, symBinAddr: 0x100023E00, symSize: 0x1C }
  - { offsetInCU: 0x514FF, offset: 0x514FF, size: 0x8, addend: 0x0, symName: __ZNSt8_Rb_treeINSt7__cxx1112basic_stringIcSt11char_traitsIcESaIcEEESt4pairIKS5_N8nlohmann16json_abi_v3_11_310basic_jsonISt3mapSt6vectorS5_bxydSaNS9_14adl_serializerESC_IhSaIhEEvEEESt10_Select1stISH_ESt4lessIvESaISH_EE10_Auto_nodeC1IJRKSt21piecewise_construct_tSt5tupleIJRS7_EEST_IJEEEEERSN_DpOT_, symObjAddr: 0x21E40, symBinAddr: 0x100023D84, symSize: 0x7C }
  - { offsetInCU: 0x51443, offset: 0x51443, size: 0x8, addend: 0x0, symName: __ZSt7forwardISt5tupleIJRKNSt7__cxx1112basic_stringIcSt11char_traitsIcESaIcEEEEEEOT_RNSt16remove_referenceISA_E4typeE, symObjAddr: 0x21E2C, symBinAddr: 0x100023D70, symSize: 0x14 }
  - { offsetInCU: 0x514F4, offset: 0x514F4, size: 0x8, addend: 0x0, symName: __ZNSt11_Tuple_implILm0EJRKNSt7__cxx1112basic_stringIcSt11char_traitsIcESaIcEEEEEC2ES7_, symObjAddr: 0x21E04, symBinAddr: 0x100023D48, symSize: 0x28 }
  - { offsetInCU: 0x514D0, offset: 0x514D0, size: 0x8, addend: 0x0, symName: __ZNK8nlohmann16json_abi_v3_11_36detail10to_json_fnclINS0_10basic_jsonISt3mapSt6vectorNSt7__cxx1112basic_stringIcSt11char_traitsIcESaIcEEEbxydSaNS0_14adl_serializerES6_IhSaIhEEvEERSC_EEDTcmcl7to_jsonfp_cl7forwardIT0_Efp0_EEcvv_EERT_OSI_, symObjAddr: 0x21DD0, symBinAddr: 0x100023D14, symSize: 0x34 }
  - { offsetInCU: 0x51530, offset: 0x51530, size: 0x8, addend: 0x0, symName: __ZN8nlohmann16json_abi_v3_11_36detail11concat_intoINSt7__cxx1112basic_stringIcSt11char_traitsIcESaIcEEERA25_KcJPS9_ELi0EEEvRT_OT0_DpOT1_, symObjAddr: 0x21D88, symBinAddr: 0x100023CCC, symSize: 0x48 }
  - { offsetInCU: 0x5159E, offset: 0x5159E, size: 0x8, addend: 0x0, symName: __ZSt7forwardIRA25_KcEOT_RNSt16remove_referenceIS3_E4typeE, symObjAddr: 0x21D74, symBinAddr: 0x100023CB8, symSize: 0x14 }
  - { offsetInCU: 0x515D4, offset: 0x515D4, size: 0x8, addend: 0x0, symName: __ZNSt6vectorIN8nlohmann16json_abi_v3_11_310basic_jsonISt3mapS_NSt7__cxx1112basic_stringIcSt11char_traitsIcESaIcEEEbxydSaNS1_14adl_serializerES_IhSaIhEEvEESaISD_EE8_M_eraseEN9__gnu_cxx17__normal_iteratorIPSD_SF_EE, symObjAddr: 0x21CAC, symBinAddr: 0x100023BF0, symSize: 0xC8 }
  - { offsetInCU: 0x51667, offset: 0x51667, size: 0x8, addend: 0x0, symName: __ZNK9__gnu_cxx17__normal_iteratorIPN8nlohmann16json_abi_v3_11_310basic_jsonISt3mapSt6vectorNSt7__cxx1112basic_stringIcSt11char_traitsIcESaIcEEEbxydSaNS2_14adl_serializerES5_IhSaIhEEvEES5_ISF_SaISF_EEEplEl, symObjAddr: 0x21C6C, symBinAddr: 0x100023BB0, symSize: 0x40 }
  - { offsetInCU: 0x5169E, offset: 0x5169E, size: 0x8, addend: 0x0, symName: __ZN9__gnu_cxxmiIPKN8nlohmann16json_abi_v3_11_310basic_jsonISt3mapSt6vectorNSt7__cxx1112basic_stringIcSt11char_traitsIcESaIcEEEbxydSaNS2_14adl_serializerES5_IhSaIhEEvEES5_ISF_SaISF_EEEENS_17__normal_iteratorIT_T0_E15difference_typeERKSN_SQ_, symObjAddr: 0x21C2C, symBinAddr: 0x100023B70, symSize: 0x40 }
  - { offsetInCU: 0x516EF, offset: 0x516EF, size: 0x8, addend: 0x0, symName: __ZNKSt6vectorIN8nlohmann16json_abi_v3_11_310basic_jsonISt3mapS_NSt7__cxx1112basic_stringIcSt11char_traitsIcESaIcEEEbxydSaNS1_14adl_serializerES_IhSaIhEEvEESaISD_EE6cbeginEv, symObjAddr: 0x21C08, symBinAddr: 0x100023B4C, symSize: 0x24 }
  - { offsetInCU: 0x51719, offset: 0x51719, size: 0x8, addend: 0x0, symName: __ZNSt8_Rb_treeINSt7__cxx1112basic_stringIcSt11char_traitsIcESaIcEEESt4pairIKS5_N8nlohmann16json_abi_v3_11_310basic_jsonISt3mapSt6vectorS5_bxydSaNS9_14adl_serializerESC_IhSaIhEEvEEESt10_Select1stISH_ESt4lessIvESaISH_EE5eraseB5cxx11ESt17_Rb_tree_iteratorISH_E, symObjAddr: 0x21B7C, symBinAddr: 0x100023AC0, symSize: 0x8C }
  - { offsetInCU: 0x517AB, offset: 0x517AB, size: 0x8, addend: 0x0, symName: __ZNK9__gnu_cxx17__normal_iteratorIPKPN8nlohmann16json_abi_v3_11_310basic_jsonISt3mapSt6vectorNSt7__cxx1112basic_stringIcSt11char_traitsIcESaIcEEEbxydSaNS2_14adl_serializerES5_IhSaIhEEvEES5_ISG_SaISG_EEE4baseEv, symObjAddr: 0x21B68, symBinAddr: 0x100023AAC, symSize: 0x14 }
  - { offsetInCU: 0x518CB, offset: 0x518CB, size: 0x8, addend: 0x0, symName: __ZN9__gnu_cxx17__normal_iteratorIPKPN8nlohmann16json_abi_v3_11_310basic_jsonISt3mapSt6vectorNSt7__cxx1112basic_stringIcSt11char_traitsIcESaIcEEEbxydSaNS2_14adl_serializerES5_IhSaIhEEvEES5_ISG_SaISG_EEEC1ERKSI_, symObjAddr: 0x21B40, symBinAddr: 0x100023A84, symSize: 0x28 }
  - { offsetInCU: 0x5182C, offset: 0x5182C, size: 0x8, addend: 0x0, symName: __ZNKSt8_Rb_treeINSt7__cxx1112basic_stringIcSt11char_traitsIcESaIcEEESt4pairIKS5_N8nlohmann16json_abi_v3_11_310basic_jsonISt3mapSt6vectorS5_bxydSaNS9_14adl_serializerESC_IhSaIhEEvEEESt10_Select1stISH_ESt4lessIvESaISH_EE8max_sizeEv, symObjAddr: 0x21B00, symBinAddr: 0x100023A44, symSize: 0x40 }
  - { offsetInCU: 0x519B6, offset: 0x519B6, size: 0x8, addend: 0x0, symName: __ZN9__gnu_cxx17__normal_iteratorIPPN8nlohmann16json_abi_v3_11_310basic_jsonISt3mapSt6vectorNSt7__cxx1112basic_stringIcSt11char_traitsIcESaIcEEEbxydSaNS2_14adl_serializerES5_IhSaIhEEvEES5_ISG_SaISG_EEEC1ERKSH_, symObjAddr: 0x21AD8, symBinAddr: 0x100023A1C, symSize: 0x28 }
  - { offsetInCU: 0x51914, offset: 0x51914, size: 0x8, addend: 0x0, symName: __ZNSt6vectorIPN8nlohmann16json_abi_v3_11_310basic_jsonISt3mapS_NSt7__cxx1112basic_stringIcSt11char_traitsIcESaIcEEEbxydSaNS1_14adl_serializerES_IhSaIhEEvEESaISE_EE11_S_relocateEPSE_SH_SH_RSF_, symObjAddr: 0x21AA4, symBinAddr: 0x1000239E8, symSize: 0x34 }
  - { offsetInCU: 0x51971, offset: 0x51971, size: 0x8, addend: 0x0, symName: __ZSt12__to_addressIPN8nlohmann16json_abi_v3_11_310basic_jsonISt3mapSt6vectorNSt7__cxx1112basic_stringIcSt11char_traitsIcESaIcEEEbxydSaNS1_14adl_serializerES4_IhSaIhEEvEEEPT_SH_, symObjAddr: 0x21A90, symBinAddr: 0x1000239D4, symSize: 0x14 }
  - { offsetInCU: 0x519A7, offset: 0x519A7, size: 0x8, addend: 0x0, symName: __ZNSt12_Vector_baseIPN8nlohmann16json_abi_v3_11_310basic_jsonISt3mapSt6vectorNSt7__cxx1112basic_stringIcSt11char_traitsIcESaIcEEEbxydSaNS1_14adl_serializerES4_IhSaIhEEvEESaISF_EE11_M_allocateEm, symObjAddr: 0x21A40, symBinAddr: 0x100023984, symSize: 0x50 }
  - { offsetInCU: 0x51A11, offset: 0x51A11, size: 0x8, addend: 0x0, symName: __ZN9__gnu_cxxmiIPPN8nlohmann16json_abi_v3_11_310basic_jsonISt3mapSt6vectorNSt7__cxx1112basic_stringIcSt11char_traitsIcESaIcEEEbxydSaNS2_14adl_serializerES5_IhSaIhEEvEES5_ISG_SaISG_EEEENS_17__normal_iteratorIT_T0_E15difference_typeERKSN_SQ_, symObjAddr: 0x21A00, symBinAddr: 0x100023944, symSize: 0x40 }
  - { offsetInCU: 0x51A62, offset: 0x51A62, size: 0x8, addend: 0x0, symName: __ZNSt6vectorIPN8nlohmann16json_abi_v3_11_310basic_jsonISt3mapS_NSt7__cxx1112basic_stringIcSt11char_traitsIcESaIcEEEbxydSaNS1_14adl_serializerES_IhSaIhEEvEESaISE_EE5beginEv, symObjAddr: 0x219DC, symBinAddr: 0x100023920, symSize: 0x24 }
  - { offsetInCU: 0x51A8C, offset: 0x51A8C, size: 0x8, addend: 0x0, symName: __ZNKSt6vectorIPN8nlohmann16json_abi_v3_11_310basic_jsonISt3mapS_NSt7__cxx1112basic_stringIcSt11char_traitsIcESaIcEEEbxydSaNS1_14adl_serializerES_IhSaIhEEvEESaISE_EE12_M_check_lenEmPKc, symObjAddr: 0x2190C, symBinAddr: 0x100023850, symSize: 0xD0 }
  - { offsetInCU: 0x51B2D, offset: 0x51B2D, size: 0x8, addend: 0x0, symName: __ZSt7forwardIRKPN8nlohmann16json_abi_v3_11_310basic_jsonISt3mapSt6vectorNSt7__cxx1112basic_stringIcSt11char_traitsIcESaIcEEEbxydSaNS1_14adl_serializerES4_IhSaIhEEvEEEOT_RNSt16remove_referenceISI_E4typeE, symObjAddr: 0x218F8, symBinAddr: 0x10002383C, symSize: 0x14 }
  - { offsetInCU: 0x51B65, offset: 0x51B65, size: 0x8, addend: 0x0, symName: __ZSt7forwardIRPN8nlohmann16json_abi_v3_11_310basic_jsonISt3mapSt6vectorNSt7__cxx1112basic_stringIcSt11char_traitsIcESaIcEEEbxydSaNS1_14adl_serializerES4_IhSaIhEEvEEEOT_RNSt16remove_referenceISH_E4typeE, symObjAddr: 0x218E4, symBinAddr: 0x100023828, symSize: 0x14 }
  - { offsetInCU: 0x51B9D, offset: 0x51B9D, size: 0x8, addend: 0x0, symName: __ZSt7forwardIPN8nlohmann16json_abi_v3_11_310basic_jsonISt3mapSt6vectorNSt7__cxx1112basic_stringIcSt11char_traitsIcESaIcEEEbxydSaNS1_14adl_serializerES4_IhSaIhEEvEEEOT_RNSt16remove_referenceISG_E4typeE, symObjAddr: 0x218D0, symBinAddr: 0x100023814, symSize: 0x14 }
  - { offsetInCU: 0x51BCF, offset: 0x51BCF, size: 0x8, addend: 0x0, symName: __ZSt13__copy_move_aILb0ESt13_Bit_iteratorS0_ET1_T0_S2_S1_, symObjAddr: 0x2180C, symBinAddr: 0x100023750, symSize: 0xC4 }
  - { offsetInCU: 0x51C3A, offset: 0x51C3A, size: 0x8, addend: 0x0, symName: __ZSt4copyISt19_Bit_const_iteratorSt13_Bit_iteratorET0_T_S3_S2_, symObjAddr: 0x2176C, symBinAddr: 0x1000236B0, symSize: 0xA0 }
  - { offsetInCU: 0x51C9A, offset: 0x51C9A, size: 0x8, addend: 0x0, symName: __ZSt4copyIPmS0_ET0_T_S2_S1_, symObjAddr: 0x21724, symBinAddr: 0x100023668, symSize: 0x48 }
  - { offsetInCU: 0x51D20, offset: 0x51D20, size: 0x8, addend: 0x0, symName: __ZNKSt6vectorIbSaIbEE4sizeEv, symObjAddr: 0x216EC, symBinAddr: 0x100023630, symSize: 0x38 }
  - { offsetInCU: 0x51D4A, offset: 0x51D4A, size: 0x8, addend: 0x0, symName: __ZNKSt6vectorIbSaIbEE8max_sizeEv, symObjAddr: 0x21684, symBinAddr: 0x1000235C8, symSize: 0x68 }
  - { offsetInCU: 0x51DFD, offset: 0x51DFD, size: 0x8, addend: 0x0, symName: __ZSt22__copy_move_backward_aILb0ESt13_Bit_iteratorS0_ET1_T0_S2_S1_, symObjAddr: 0x215C0, symBinAddr: 0x100023504, symSize: 0xC4 }
  - { offsetInCU: 0x51E68, offset: 0x51E68, size: 0x8, addend: 0x0, symName: __ZSt12__miter_baseISt13_Bit_iteratorET_S1_, symObjAddr: 0x21584, symBinAddr: 0x1000234C8, symSize: 0x3C }
  - { offsetInCU: 0x51E9F, offset: 0x51E9F, size: 0x8, addend: 0x0, symName: __ZNSt15__new_allocatorIPN8nlohmann16json_abi_v3_11_310basic_jsonISt3mapSt6vectorNSt7__cxx1112basic_stringIcSt11char_traitsIcESaIcEEEbxydSaNS1_14adl_serializerES4_IhSaIhEEvEEE10deallocateEPSF_m, symObjAddr: 0x21554, symBinAddr: 0x100023498, symSize: 0x30 }
  - { offsetInCU: 0x51EFF, offset: 0x51EFF, size: 0x8, addend: 0x0, symName: __ZNK8nlohmann16json_abi_v3_11_310basic_jsonISt3mapSt6vectorNSt7__cxx1112basic_stringIcSt11char_traitsIcESaIcEEEbxydSaNS0_14adl_serializerES3_IhSaIhEEvE7get_ptrIPKbLi0EEEDTcldtclL_ZSt7declvalIRKSD_EDTcl9__declvalIT_ELi0EEEvEE12get_impl_ptrcl7declvalISK_EEEEv, symObjAddr: 0x21534, symBinAddr: 0x100023478, symSize: 0x20 }
  - { offsetInCU: 0x51F32, offset: 0x51F32, size: 0x8, addend: 0x0, symName: __ZNK8nlohmann16json_abi_v3_11_310basic_jsonISt3mapSt6vectorNSt7__cxx1112basic_stringIcSt11char_traitsIcESaIcEEEbxydSaNS0_14adl_serializerES3_IhSaIhEEvE7get_ptrIPKdLi0EEEDTcldtclL_ZSt7declvalIRKSD_EDTcl9__declvalIT_ELi0EEEvEE12get_impl_ptrcl7declvalISK_EEEEv, symObjAddr: 0x21514, symBinAddr: 0x100023458, symSize: 0x20 }
  - { offsetInCU: 0x51F65, offset: 0x51F65, size: 0x8, addend: 0x0, symName: __ZNK8nlohmann16json_abi_v3_11_310basic_jsonISt3mapSt6vectorNSt7__cxx1112basic_stringIcSt11char_traitsIcESaIcEEEbxydSaNS0_14adl_serializerES3_IhSaIhEEvE7get_ptrIPKxLi0EEEDTcldtclL_ZSt7declvalIRKSD_EDTcl9__declvalIT_ELi0EEEvEE12get_impl_ptrcl7declvalISK_EEEEv, symObjAddr: 0x214F4, symBinAddr: 0x100023438, symSize: 0x20 }
  - { offsetInCU: 0x51F98, offset: 0x51F98, size: 0x8, addend: 0x0, symName: __ZNK8nlohmann16json_abi_v3_11_310basic_jsonISt3mapSt6vectorNSt7__cxx1112basic_stringIcSt11char_traitsIcESaIcEEEbxydSaNS0_14adl_serializerES3_IhSaIhEEvE7get_ptrIPKyLi0EEEDTcldtclL_ZSt7declvalIRKSD_EDTcl9__declvalIT_ELi0EEEvEE12get_impl_ptrcl7declvalISK_EEEEv, symObjAddr: 0x214D4, symBinAddr: 0x100023418, symSize: 0x20 }
  - { offsetInCU: 0x51FCB, offset: 0x51FCB, size: 0x8, addend: 0x0, symName: __ZNK8nlohmann16json_abi_v3_11_310basic_jsonISt3mapSt6vectorNSt7__cxx1112basic_stringIcSt11char_traitsIcESaIcEEEbxydSaNS0_14adl_serializerES3_IhSaIhEEvEcvNS0_6detail7value_tEEv, symObjAddr: 0x214BC, symBinAddr: 0x100023400, symSize: 0x18 }
  - { offsetInCU: 0x51FF1, offset: 0x51FF1, size: 0x8, addend: 0x0, symName: __ZN8nlohmann16json_abi_v3_11_36detail5lexerINS0_10basic_jsonISt3mapSt6vectorNSt7__cxx1112basic_stringIcSt11char_traitsIcESaIcEEEbxydSaNS0_14adl_serializerES5_IhSaIhEEvEENS1_22iterator_input_adapterIN9__gnu_cxx17__normal_iteratorIPKcSB_EEEEE6strtofERdSK_PPc, symObjAddr: 0x21484, symBinAddr: 0x1000233C8, symSize: 0x38 }
  - { offsetInCU: 0x52041, offset: 0x52041, size: 0x8, addend: 0x0, symName: __ZN8nlohmann16json_abi_v3_11_36detail5lexerINS0_10basic_jsonISt3mapSt6vectorNSt7__cxx1112basic_stringIcSt11char_traitsIcESaIcEEEbxydSaNS0_14adl_serializerES5_IhSaIhEEvEENS1_22iterator_input_adapterIN9__gnu_cxx17__normal_iteratorIPKcSB_EEEEE18next_byte_in_rangeESt16initializer_listIiE, symObjAddr: 0x212A4, symBinAddr: 0x1000231E8, symSize: 0x1E0 }
  - { offsetInCU: 0x520C7, offset: 0x520C7, size: 0x8, addend: 0x0, symName: __ZN8nlohmann16json_abi_v3_11_36detail5lexerINS0_10basic_jsonISt3mapSt6vectorNSt7__cxx1112basic_stringIcSt11char_traitsIcESaIcEEEbxydSaNS0_14adl_serializerES5_IhSaIhEEvEENS1_22iterator_input_adapterIN9__gnu_cxx17__normal_iteratorIPKcSB_EEEEE13get_codepointEv, symObjAddr: 0x2108C, symBinAddr: 0x100022FD0, symSize: 0x218 }
  - { offsetInCU: 0x5218C, offset: 0x5218C, size: 0x8, addend: 0x0, symName: __ZN8nlohmann16json_abi_v3_11_36detail5lexerINS0_10basic_jsonISt3mapSt6vectorNSt7__cxx1112basic_stringIcSt11char_traitsIcESaIcEEEbxydSaNS0_14adl_serializerES5_IhSaIhEEvEENS1_22iterator_input_adapterIN9__gnu_cxx17__normal_iteratorIPKcSB_EEEEE3addEi, symObjAddr: 0x2105C, symBinAddr: 0x100022FA0, symSize: 0x30 }
  - { offsetInCU: 0x521C7, offset: 0x521C7, size: 0x8, addend: 0x0, symName: __ZN8nlohmann16json_abi_v3_11_36detail5lexerINS0_10basic_jsonISt3mapSt6vectorNSt7__cxx1112basic_stringIcSt11char_traitsIcESaIcEEEbxydSaNS0_14adl_serializerES5_IhSaIhEEvEENS1_22iterator_input_adapterIN9__gnu_cxx17__normal_iteratorIPKcSB_EEEEE5resetEv, symObjAddr: 0x20FFC, symBinAddr: 0x100022F40, symSize: 0x60 }
  - { offsetInCU: 0x521F1, offset: 0x521F1, size: 0x8, addend: 0x0, symName: __ZN8nlohmann16json_abi_v3_11_36detail5lexerINS0_10basic_jsonISt3mapSt6vectorNSt7__cxx1112basic_stringIcSt11char_traitsIcESaIcEEEbxydSaNS0_14adl_serializerES5_IhSaIhEEvEENS1_22iterator_input_adapterIN9__gnu_cxx17__normal_iteratorIPKcSB_EEEEE5ungetEv, symObjAddr: 0x20EF8, symBinAddr: 0x100022E3C, symSize: 0x104 }
  - { offsetInCU: 0x5222F, offset: 0x5222F, size: 0x8, addend: 0x0, symName: __ZN8nlohmann16json_abi_v3_11_36detail5lexerINS0_10basic_jsonISt3mapSt6vectorNSt7__cxx1112basic_stringIcSt11char_traitsIcESaIcEEEbxydSaNS0_14adl_serializerES5_IhSaIhEEvEENS1_22iterator_input_adapterIN9__gnu_cxx17__normal_iteratorIPKcSB_EEEEE3getEv, symObjAddr: 0x20DF0, symBinAddr: 0x100022D34, symSize: 0x108 }
  - { offsetInCU: 0x5232C, offset: 0x5232C, size: 0x8, addend: 0x0, symName: __ZN8nlohmann16json_abi_v3_11_36detail22iterator_input_adapterIN9__gnu_cxx17__normal_iteratorIPKcNSt7__cxx1112basic_stringIcSt11char_traitsIcESaIcEEEEEEC1ESD_SD_, symObjAddr: 0x20DA0, symBinAddr: 0x100022CE4, symSize: 0x50 }
  - { offsetInCU: 0x522CA, offset: 0x522CA, size: 0x8, addend: 0x0, symName: __ZSt4moveIRN9__gnu_cxx17__normal_iteratorIPKcNSt7__cxx1112basic_stringIcSt11char_traitsIcESaIcEEEEEEONSt16remove_referenceIT_E4typeEOSD_, symObjAddr: 0x20D8C, symBinAddr: 0x100022CD0, symSize: 0x14 }
  - { offsetInCU: 0x522FC, offset: 0x522FC, size: 0x8, addend: 0x0, symName: __ZSt14__relocate_a_1IPSt6vectorIiSaIiEES3_SaIS2_EET0_T_S6_S5_RT1_, symObjAddr: 0x20D08, symBinAddr: 0x100022C4C, symSize: 0x84 }
  - { offsetInCU: 0x52389, offset: 0x52389, size: 0x8, addend: 0x0, symName: __ZNK8nlohmann16json_abi_v3_11_310basic_jsonISt3mapSt6vectorNSt7__cxx1112basic_stringIcSt11char_traitsIcESaIcEEEbxydSaNS0_14adl_serializerES3_IhSaIhEEvE7get_ptrIPKS9_Li0EEEDTcldtclL_ZSt7declvalIRKSD_EDTcl9__declvalIT_ELi0EEEvEE12get_impl_ptrcl7declvalISK_EEEEv, symObjAddr: 0x20CE8, symBinAddr: 0x100022C2C, symSize: 0x20 }
  - { offsetInCU: 0x523BC, offset: 0x523BC, size: 0x8, addend: 0x0, symName: __ZNKSt8_Rb_treeINSt7__cxx1112basic_stringIcSt11char_traitsIcESaIcEEESt4pairIKS5_N8nlohmann16json_abi_v3_11_310basic_jsonISt3mapSt6vectorS5_bxydSaNS9_14adl_serializerESC_IhSaIhEEvEEESt10_Select1stISH_ESt4lessIvESaISH_EE9_M_mbeginEv, symObjAddr: 0x20CD0, symBinAddr: 0x100022C14, symSize: 0x18 }
  - { offsetInCU: 0x523E2, offset: 0x523E2, size: 0x8, addend: 0x0, symName: __ZSt14__relocate_a_1IPN8nlohmann16json_abi_v3_11_310basic_jsonISt3mapSt6vectorNSt7__cxx1112basic_stringIcSt11char_traitsIcESaIcEEEbxydSaNS1_14adl_serializerES4_IhSaIhEEvEESF_SaISE_EET0_T_SI_SH_RT1_, symObjAddr: 0x20C4C, symBinAddr: 0x100022B90, symSize: 0x84 }
  - { offsetInCU: 0x5246B, offset: 0x5246B, size: 0x8, addend: 0x0, symName: __ZSt12__niter_baseIPN8nlohmann16json_abi_v3_11_310basic_jsonISt3mapSt6vectorNSt7__cxx1112basic_stringIcSt11char_traitsIcESaIcEEEbxydSaNS1_14adl_serializerES4_IhSaIhEEvEEET_SG_, symObjAddr: 0x20C38, symBinAddr: 0x100022B7C, symSize: 0x14 }
  - { offsetInCU: 0x524A2, offset: 0x524A2, size: 0x8, addend: 0x0, symName: __ZNSt15__new_allocatorIN8nlohmann16json_abi_v3_11_310basic_jsonISt3mapSt6vectorNSt7__cxx1112basic_stringIcSt11char_traitsIcESaIcEEEbxydSaNS1_14adl_serializerES4_IhSaIhEEvEEE8allocateEmPKv, symObjAddr: 0x20BBC, symBinAddr: 0x100022B00, symSize: 0x7C }
  - { offsetInCU: 0x52597, offset: 0x52597, size: 0x8, addend: 0x0, symName: __ZN8nlohmann16json_abi_v3_11_327byte_container_with_subtypeISt6vectorIhSaIhEEEC1Ev, symObjAddr: 0x20B80, symBinAddr: 0x100022AC4, symSize: 0x3C }
  - { offsetInCU: 0x5259D, offset: 0x5259D, size: 0x8, addend: 0x0, symName: __ZNSt6vectorIhSaIhEEC2Ev, symObjAddr: 0x20B60, symBinAddr: 0x100022AA4, symSize: 0x20 }
  - { offsetInCU: 0x525E4, offset: 0x525E4, size: 0x8, addend: 0x0, symName: __ZNSt12_Vector_baseIhSaIhEEC2Ev, symObjAddr: 0x20B40, symBinAddr: 0x100022A84, symSize: 0x20 }
  - { offsetInCU: 0x5263F, offset: 0x5263F, size: 0x8, addend: 0x0, symName: __ZNSt12_Vector_baseIhSaIhEE12_Vector_implD1Ev, symObjAddr: 0x20B14, symBinAddr: 0x100022A58, symSize: 0x2C }
  - { offsetInCU: 0x52660, offset: 0x52660, size: 0x8, addend: 0x0, symName: __ZSt3getILm0EJPN8nlohmann16json_abi_v3_11_327byte_container_with_subtypeISt6vectorIhSaIhEEEEZNS1_10basic_jsonISt3mapS3_NSt7__cxx1112basic_stringIcSt11char_traitsIcESaIcEEEbxydSaNS1_14adl_serializerES5_vE6createIS6_JEEEPT_DpOT0_EUlS7_E_EERKNSt13tuple_elementIXT_ESt5tupleIJDpSL_EEE4typeERKSS_, symObjAddr: 0x20AF8, symBinAddr: 0x100022A3C, symSize: 0x1C }
  - { offsetInCU: 0x526A8, offset: 0x526A8, size: 0x8, addend: 0x0, symName: __ZNSt15__uniq_ptr_implIN8nlohmann16json_abi_v3_11_327byte_container_with_subtypeISt6vectorIhSaIhEEEEZNS1_10basic_jsonISt3mapS3_NSt7__cxx1112basic_stringIcSt11char_traitsIcESaIcEEEbxydSaNS1_14adl_serializerES5_vE6createIS6_JEEEPT_DpOT0_EUlPS6_E_E10_M_deleterEv, symObjAddr: 0x20ADC, symBinAddr: 0x100022A20, symSize: 0x1C }
  - { offsetInCU: 0x526D4, offset: 0x526D4, size: 0x8, addend: 0x0, symName: __ZSt3getILm0EJPN8nlohmann16json_abi_v3_11_327byte_container_with_subtypeISt6vectorIhSaIhEEEEZNS1_10basic_jsonISt3mapS3_NSt7__cxx1112basic_stringIcSt11char_traitsIcESaIcEEEbxydSaNS1_14adl_serializerES5_vE6createIS6_JEEEPT_DpOT0_EUlS7_E_EERNSt13tuple_elementIXT_ESt5tupleIJDpSL_EEE4typeERSS_, symObjAddr: 0x20AC0, symBinAddr: 0x100022A04, symSize: 0x1C }
  - { offsetInCU: 0x52867, offset: 0x52867, size: 0x8, addend: 0x0, symName: __ZNSt5tupleIJPN8nlohmann16json_abi_v3_11_327byte_container_with_subtypeISt6vectorIhSaIhEEEEZNS1_10basic_jsonISt3mapS3_NSt7__cxx1112basic_stringIcSt11char_traitsIcESaIcEEEbxydSaNS1_14adl_serializerES5_vE6createIS6_JEEEPT_DpOT0_EUlS7_E_EEC1IRS7_RKSO_Lb1EEEOSJ_OT0_, symObjAddr: 0x20A70, symBinAddr: 0x1000229B4, symSize: 0x50 }
  - { offsetInCU: 0x527B0, offset: 0x527B0, size: 0x8, addend: 0x0, symName: __ZSt7forwardIRKZN8nlohmann16json_abi_v3_11_310basic_jsonISt3mapSt6vectorNSt7__cxx1112basic_stringIcSt11char_traitsIcESaIcEEEbxydSaNS1_14adl_serializerES4_IhSaIhEEvE6createINS1_27byte_container_with_subtypeISD_EEJEEEPT_DpOT0_EUlPSH_E_EOSI_RNSt16remove_referenceISI_E4typeE, symObjAddr: 0x20A5C, symBinAddr: 0x1000229A0, symSize: 0x14 }
  - { offsetInCU: 0x527E8, offset: 0x527E8, size: 0x8, addend: 0x0, symName: __ZSt3getILm0EJPNSt7__cxx1112basic_stringIcSt11char_traitsIcESaIcEEEZN8nlohmann16json_abi_v3_11_310basic_jsonISt3mapSt6vectorS5_bxydSaNS8_14adl_serializerESB_IhSaIhEEvE6createIS5_JRA1_KcEEEPT_DpOT0_EUlS6_E_EERKNSt13tuple_elementIXT_ESt5tupleIJDpSM_EEE4typeERKST_, symObjAddr: 0x20A40, symBinAddr: 0x100022984, symSize: 0x1C }
  - { offsetInCU: 0x52830, offset: 0x52830, size: 0x8, addend: 0x0, symName: __ZNSt15__uniq_ptr_implINSt7__cxx1112basic_stringIcSt11char_traitsIcESaIcEEEZN8nlohmann16json_abi_v3_11_310basic_jsonISt3mapSt6vectorS5_bxydSaNS7_14adl_serializerESA_IhSaIhEEvE6createIS5_JRA1_KcEEEPT_DpOT0_EUlPS5_E_E10_M_deleterEv, symObjAddr: 0x20A24, symBinAddr: 0x100022968, symSize: 0x1C }
  - { offsetInCU: 0x5285C, offset: 0x5285C, size: 0x8, addend: 0x0, symName: __ZSt3getILm0EJPNSt7__cxx1112basic_stringIcSt11char_traitsIcESaIcEEEZN8nlohmann16json_abi_v3_11_310basic_jsonISt3mapSt6vectorS5_bxydSaNS8_14adl_serializerESB_IhSaIhEEvE6createIS5_JRA1_KcEEEPT_DpOT0_EUlS6_E_EERNSt13tuple_elementIXT_ESt5tupleIJDpSM_EEE4typeERST_, symObjAddr: 0x20A08, symBinAddr: 0x10002294C, symSize: 0x1C }
  - { offsetInCU: 0x529D1, offset: 0x529D1, size: 0x8, addend: 0x0, symName: __ZNSt5tupleIJPNSt7__cxx1112basic_stringIcSt11char_traitsIcESaIcEEEZN8nlohmann16json_abi_v3_11_310basic_jsonISt3mapSt6vectorS5_bxydSaNS8_14adl_serializerESB_IhSaIhEEvE6createIS5_JRA1_KcEEEPT_DpOT0_EUlS6_E_EEC1IRS6_RKSP_Lb1EEEOSK_OT0_, symObjAddr: 0x209B8, symBinAddr: 0x1000228FC, symSize: 0x50 }
  - { offsetInCU: 0x52938, offset: 0x52938, size: 0x8, addend: 0x0, symName: __ZSt7forwardIRKZN8nlohmann16json_abi_v3_11_310basic_jsonISt3mapSt6vectorNSt7__cxx1112basic_stringIcSt11char_traitsIcESaIcEEEbxydSaNS1_14adl_serializerES4_IhSaIhEEvE6createISA_JRA1_KcEEEPT_DpOT0_EUlPSA_E_EOSJ_RNSt16remove_referenceISJ_E4typeE, symObjAddr: 0x209A4, symBinAddr: 0x1000228E8, symSize: 0x14 }
  - { offsetInCU: 0x52970, offset: 0x52970, size: 0x8, addend: 0x0, symName: __ZSt3getILm0EJPSt6vectorIN8nlohmann16json_abi_v3_11_310basic_jsonISt3mapS0_NSt7__cxx1112basic_stringIcSt11char_traitsIcESaIcEEEbxydSaNS2_14adl_serializerES0_IhSaIhEEvEESaISE_EEZNSE_6createISG_JEEEPT_DpOT0_EUlSH_E_EERKNSt13tuple_elementIXT_ESt5tupleIJDpSL_EEE4typeERKSS_, symObjAddr: 0x20988, symBinAddr: 0x1000228CC, symSize: 0x1C }
  - { offsetInCU: 0x529B8, offset: 0x529B8, size: 0x8, addend: 0x0, symName: __ZNSt15__uniq_ptr_implISt6vectorIN8nlohmann16json_abi_v3_11_310basic_jsonISt3mapS0_NSt7__cxx1112basic_stringIcSt11char_traitsIcESaIcEEEbxydSaNS2_14adl_serializerES0_IhSaIhEEvEESaISE_EEZNSE_6createISG_JEEEPT_DpOT0_EUlPSG_E_E10_M_deleterEv, symObjAddr: 0x2096C, symBinAddr: 0x1000228B0, symSize: 0x1C }
  - { offsetInCU: 0x529E4, offset: 0x529E4, size: 0x8, addend: 0x0, symName: __ZSt3getILm0EJPSt6vectorIN8nlohmann16json_abi_v3_11_310basic_jsonISt3mapS0_NSt7__cxx1112basic_stringIcSt11char_traitsIcESaIcEEEbxydSaNS2_14adl_serializerES0_IhSaIhEEvEESaISE_EEZNSE_6createISG_JEEEPT_DpOT0_EUlSH_E_EERNSt13tuple_elementIXT_ESt5tupleIJDpSL_EEE4typeERSS_, symObjAddr: 0x20950, symBinAddr: 0x100022894, symSize: 0x1C }
  - { offsetInCU: 0x52B61, offset: 0x52B61, size: 0x8, addend: 0x0, symName: __ZNSt5tupleIJPSt6vectorIN8nlohmann16json_abi_v3_11_310basic_jsonISt3mapS0_NSt7__cxx1112basic_stringIcSt11char_traitsIcESaIcEEEbxydSaNS2_14adl_serializerES0_IhSaIhEEvEESaISE_EEZNSE_6createISG_JEEEPT_DpOT0_EUlSH_E_EEC1IRSH_RKSO_Lb1EEEOSJ_OT0_, symObjAddr: 0x20900, symBinAddr: 0x100022844, symSize: 0x50 }
  - { offsetInCU: 0x52AC0, offset: 0x52AC0, size: 0x8, addend: 0x0, symName: __ZSt7forwardIRKZN8nlohmann16json_abi_v3_11_310basic_jsonISt3mapSt6vectorNSt7__cxx1112basic_stringIcSt11char_traitsIcESaIcEEEbxydSaNS1_14adl_serializerES4_IhSaIhEEvE6createIS4_ISE_SaISE_EEJEEEPT_DpOT0_EUlPSH_E_EOSI_RNSt16remove_referenceISI_E4typeE, symObjAddr: 0x208EC, symBinAddr: 0x100022830, symSize: 0x14 }
  - { offsetInCU: 0x52AF2, offset: 0x52AF2, size: 0x8, addend: 0x0, symName: __ZN8nlohmann16json_abi_v3_11_36detail11concat_intoINSt7__cxx1112basic_stringIcSt11char_traitsIcESaIcEEERKS8_JELi0EEEvRT_OT0_DpOT1_, symObjAddr: 0x208B4, symBinAddr: 0x1000227F8, symSize: 0x38 }
  - { offsetInCU: 0x52B4E, offset: 0x52B4E, size: 0x8, addend: 0x0, symName: __ZNSt8_Rb_treeINSt7__cxx1112basic_stringIcSt11char_traitsIcESaIcEEESt4pairIKS5_N8nlohmann16json_abi_v3_11_310basic_jsonISt3mapSt6vectorS5_bxydSaNS9_14adl_serializerESC_IhSaIhEEvEEESt10_Select1stISH_ESt4lessIvESaISH_EE14_M_create_nodeIJS5_DnEEEPSt13_Rb_tree_nodeISH_EDpOT_, symObjAddr: 0x20858, symBinAddr: 0x10002279C, symSize: 0x5C }
  - { offsetInCU: 0x52CDE, offset: 0x52CDE, size: 0x8, addend: 0x0, symName: __ZNSt8_Rb_treeINSt7__cxx1112basic_stringIcSt11char_traitsIcESaIcEEESt4pairIKS5_N8nlohmann16json_abi_v3_11_310basic_jsonISt3mapSt6vectorS5_bxydSaNS9_14adl_serializerESC_IhSaIhEEvEEESt10_Select1stISH_ESt4lessIvESaISH_EE13_Rb_tree_implISL_Lb1EEC1Ev, symObjAddr: 0x20814, symBinAddr: 0x100022758, symSize: 0x44 }
  - { offsetInCU: 0x52C5B, offset: 0x52C5B, size: 0x8, addend: 0x0, symName: __ZSt3getILm0EJPSt3mapINSt7__cxx1112basic_stringIcSt11char_traitsIcESaIcEEEN8nlohmann16json_abi_v3_11_310basic_jsonIS0_St6vectorS6_bxydSaNS8_14adl_serializerESA_IhSaIhEEvEESt4lessIvESaISt4pairIKS6_SE_EEEZNSE_6createISL_JEEEPT_DpOT0_EUlSM_E_EERKNSt13tuple_elementIXT_ESt5tupleIJDpSQ_EEE4typeERKSX_, symObjAddr: 0x207F8, symBinAddr: 0x10002273C, symSize: 0x1C }
  - { offsetInCU: 0x52CA3, offset: 0x52CA3, size: 0x8, addend: 0x0, symName: __ZNSt15__uniq_ptr_implISt3mapINSt7__cxx1112basic_stringIcSt11char_traitsIcESaIcEEEN8nlohmann16json_abi_v3_11_310basic_jsonIS0_St6vectorS6_bxydSaNS8_14adl_serializerESA_IhSaIhEEvEESt4lessIvESaISt4pairIKS6_SE_EEEZNSE_6createISL_JEEEPT_DpOT0_EUlPSL_E_E10_M_deleterEv, symObjAddr: 0x207DC, symBinAddr: 0x100022720, symSize: 0x1C }
  - { offsetInCU: 0x52CCF, offset: 0x52CCF, size: 0x8, addend: 0x0, symName: __ZSt3getILm0EJPSt3mapINSt7__cxx1112basic_stringIcSt11char_traitsIcESaIcEEEN8nlohmann16json_abi_v3_11_310basic_jsonIS0_St6vectorS6_bxydSaNS8_14adl_serializerESA_IhSaIhEEvEESt4lessIvESaISt4pairIKS6_SE_EEEZNSE_6createISL_JEEEPT_DpOT0_EUlSM_E_EERNSt13tuple_elementIXT_ESt5tupleIJDpSQ_EEE4typeERSX_, symObjAddr: 0x207C0, symBinAddr: 0x100022704, symSize: 0x1C }
  - { offsetInCU: 0x52E66, offset: 0x52E66, size: 0x8, addend: 0x0, symName: __ZNSt5tupleIJPSt3mapINSt7__cxx1112basic_stringIcSt11char_traitsIcESaIcEEEN8nlohmann16json_abi_v3_11_310basic_jsonIS0_St6vectorS6_bxydSaNS8_14adl_serializerESA_IhSaIhEEvEESt4lessIvESaISt4pairIKS6_SE_EEEZNSE_6createISL_JEEEPT_DpOT0_EUlSM_E_EEC1IRSM_RKST_Lb1EEEOSO_OT0_, symObjAddr: 0x20770, symBinAddr: 0x1000226B4, symSize: 0x50 }
  - { offsetInCU: 0x52DAB, offset: 0x52DAB, size: 0x8, addend: 0x0, symName: __ZSt7forwardIRKZN8nlohmann16json_abi_v3_11_310basic_jsonISt3mapSt6vectorNSt7__cxx1112basic_stringIcSt11char_traitsIcESaIcEEEbxydSaNS1_14adl_serializerES4_IhSaIhEEvE6createIS3_ISA_SE_St4lessIvESaISt4pairIKSA_SE_EEEJEEEPT_DpOT0_EUlPSM_E_EOSN_RNSt16remove_referenceISN_E4typeE, symObjAddr: 0x2075C, symBinAddr: 0x1000226A0, symSize: 0x14 }
  - { offsetInCU: 0x52DDD, offset: 0x52DDD, size: 0x8, addend: 0x0, symName: __ZSt10_ConstructISt6vectorIiSaIiEEJRS2_EEvPT_DpOT0_, symObjAddr: 0x206E0, symBinAddr: 0x100022624, symSize: 0x7C }
  - { offsetInCU: 0x52E29, offset: 0x52E29, size: 0x8, addend: 0x0, symName: __ZNSt11__copy_moveILb0ELb0ESt26random_access_iterator_tagE8__copy_mIPSt6vectorIiSaIiEES6_EET0_T_S8_S7_, symObjAddr: 0x20660, symBinAddr: 0x1000225A4, symSize: 0x80 }
  - { offsetInCU: 0x52EB8, offset: 0x52EB8, size: 0x8, addend: 0x0, symName: __ZNSt11__copy_moveILb0ELb0ESt26random_access_iterator_tagE8__copy_mIPKSt6vectorIiSaIiEEPS5_EET0_T_SA_S9_, symObjAddr: 0x205E0, symBinAddr: 0x100022524, symSize: 0x80 }
  - { offsetInCU: 0x52F47, offset: 0x52F47, size: 0x8, addend: 0x0, symName: __ZSt16__do_uninit_copyIN9__gnu_cxx17__normal_iteratorIPKSt6vectorIiSaIiEES2_IS4_SaIS4_EEEEPS4_ET0_T_SC_SB_, symObjAddr: 0x20538, symBinAddr: 0x10002247C, symSize: 0xA8 }
  - { offsetInCU: 0x52FB6, offset: 0x52FB6, size: 0x8, addend: 0x0, symName: __ZNK9__gnu_cxx16__aligned_membufISt4pairIKiSt6vectorIS3_IiSaIiEESaIS5_EEEE6_M_ptrEv, symObjAddr: 0x2051C, symBinAddr: 0x100022460, symSize: 0x1C }
  - { offsetInCU: 0x52FE8, offset: 0x52FE8, size: 0x8, addend: 0x0, symName: __ZSt7forwardIRPSt13_Rb_tree_nodeISt4pairIKiSt6vectorIS3_IiSaIiEESaIS5_EEEEEOT_RNSt16remove_referenceISC_E4typeE, symObjAddr: 0x20508, symBinAddr: 0x10002244C, symSize: 0x14 }
  - { offsetInCU: 0x53096, offset: 0x53096, size: 0x8, addend: 0x0, symName: __ZSt18__do_uninit_fill_nIPSt6vectorIiSaIiEEmS2_ET_S4_T0_RKT1_, symObjAddr: 0x20478, symBinAddr: 0x1000223BC, symSize: 0x90 }
  - { offsetInCU: 0x5310E, offset: 0x5310E, size: 0x8, addend: 0x0, symName: __ZSt6fill_nIPimiET_S1_T0_RKT1_, symObjAddr: 0x20430, symBinAddr: 0x100022374, symSize: 0x48 }
  - { offsetInCU: 0x53196, offset: 0x53196, size: 0x8, addend: 0x0, symName: __ZSt10_ConstructIiJEEvPT_DpOT0_, symObjAddr: 0x20404, symBinAddr: 0x100022348, symSize: 0x2C }
  - { offsetInCU: 0x531D2, offset: 0x531D2, size: 0x8, addend: 0x0, symName: __ZSt11__addressofIiEPT_RS0_, symObjAddr: 0x203F0, symBinAddr: 0x100022334, symSize: 0x14 }
  - { offsetInCU: 0x53208, offset: 0x53208, size: 0x8, addend: 0x0, symName: __ZNSt15__new_allocatorISt13_Rb_tree_nodeISt4pairIKiSt6vectorIS3_IiSaIiEESaIS5_EEEEE10deallocateEPS9_m, symObjAddr: 0x203C0, symBinAddr: 0x100022304, symSize: 0x30 }
  - { offsetInCU: 0x532D2, offset: 0x532D2, size: 0x8, addend: 0x0, symName: __ZNSt4pairIKiSt6vectorIS1_IiSaIiEESaIS3_EEED1Ev, symObjAddr: 0x2039C, symBinAddr: 0x1000222E0, symSize: 0x24 }
  - { offsetInCU: 0x533E4, offset: 0x533E4, size: 0x8, addend: 0x0, symName: __ZNSt6vectorIN8nlohmann16json_abi_v3_11_310basic_jsonISt3mapS_NSt7__cxx1112basic_stringIcSt11char_traitsIcESaIcEEEbxydSaNS1_14adl_serializerES_IhSaIhEEvEESaISD_EEC1IPKNS1_6detail8json_refISD_EEvEET_SM_RKSE_, symObjAddr: 0x20334, symBinAddr: 0x100022278, symSize: 0x68 }
  - { offsetInCU: 0x53386, offset: 0x53386, size: 0x8, addend: 0x0, symName: __ZSt3getILm0EJPSt6vectorIN8nlohmann16json_abi_v3_11_310basic_jsonISt3mapS0_NSt7__cxx1112basic_stringIcSt11char_traitsIcESaIcEEEbxydSaNS2_14adl_serializerES0_IhSaIhEEvEESaISE_EEZNSE_6createISG_JPKNS2_6detail8json_refISE_EESN_EEEPT_DpOT0_EUlSH_E_EERKNSt13tuple_elementIXT_ESt5tupleIJDpSQ_EEE4typeERKSX_, symObjAddr: 0x20318, symBinAddr: 0x10002225C, symSize: 0x1C }
  - { offsetInCU: 0x533CE, offset: 0x533CE, size: 0x8, addend: 0x0, symName: __ZNSt15__uniq_ptr_implISt6vectorIN8nlohmann16json_abi_v3_11_310basic_jsonISt3mapS0_NSt7__cxx1112basic_stringIcSt11char_traitsIcESaIcEEEbxydSaNS2_14adl_serializerES0_IhSaIhEEvEESaISE_EEZNSE_6createISG_JPKNS2_6detail8json_refISE_EESM_EEEPT_DpOT0_EUlPSG_E_E10_M_deleterEv, symObjAddr: 0x202FC, symBinAddr: 0x100022240, symSize: 0x1C }
  - { offsetInCU: 0x533FA, offset: 0x533FA, size: 0x8, addend: 0x0, symName: __ZSt3getILm0EJPSt6vectorIN8nlohmann16json_abi_v3_11_310basic_jsonISt3mapS0_NSt7__cxx1112basic_stringIcSt11char_traitsIcESaIcEEEbxydSaNS2_14adl_serializerES0_IhSaIhEEvEESaISE_EEZNSE_6createISG_JPKNS2_6detail8json_refISE_EESN_EEEPT_DpOT0_EUlSH_E_EERNSt13tuple_elementIXT_ESt5tupleIJDpSQ_EEE4typeERSX_, symObjAddr: 0x202E0, symBinAddr: 0x100022224, symSize: 0x1C }
  - { offsetInCU: 0x53596, offset: 0x53596, size: 0x8, addend: 0x0, symName: __ZNSt5tupleIJPSt6vectorIN8nlohmann16json_abi_v3_11_310basic_jsonISt3mapS0_NSt7__cxx1112basic_stringIcSt11char_traitsIcESaIcEEEbxydSaNS2_14adl_serializerES0_IhSaIhEEvEESaISE_EEZNSE_6createISG_JPKNS2_6detail8json_refISE_EESN_EEEPT_DpOT0_EUlSH_E_EEC1IRSH_RKST_Lb1EEEOSO_OT0_, symObjAddr: 0x20290, symBinAddr: 0x1000221D4, symSize: 0x50 }
  - { offsetInCU: 0x534D6, offset: 0x534D6, size: 0x8, addend: 0x0, symName: __ZSt7forwardIRKZN8nlohmann16json_abi_v3_11_310basic_jsonISt3mapSt6vectorNSt7__cxx1112basic_stringIcSt11char_traitsIcESaIcEEEbxydSaNS1_14adl_serializerES4_IhSaIhEEvE6createIS4_ISE_SaISE_EEJPKNS1_6detail8json_refISE_EESM_EEEPT_DpOT0_EUlPSH_E_EOSN_RNSt16remove_referenceISN_E4typeE, symObjAddr: 0x2027C, symBinAddr: 0x1000221C0, symSize: 0x14 }
  - { offsetInCU: 0x5350C, offset: 0x5350C, size: 0x8, addend: 0x0, symName: __ZNSt8_Rb_treeINSt7__cxx1112basic_stringIcSt11char_traitsIcESaIcEEESt4pairIKS5_N8nlohmann16json_abi_v3_11_310basic_jsonISt3mapSt6vectorS5_bxydSaNS9_14adl_serializerESC_IhSaIhEEvEEESt10_Select1stISH_ESt4lessIvESaISH_EE14_M_insert_nodeEPSt18_Rb_tree_node_baseSP_PSt13_Rb_tree_nodeISH_E, symObjAddr: 0x201AC, symBinAddr: 0x1000220F0, symSize: 0xD0 }
  - { offsetInCU: 0x536AB, offset: 0x536AB, size: 0x8, addend: 0x0, symName: __ZNSt4pairIPSt18_Rb_tree_node_baseS1_EC1IRPSt13_Rb_tree_nodeIS_IKNSt7__cxx1112basic_stringIcSt11char_traitsIcESaIcEEEN8nlohmann16json_abi_v3_11_310basic_jsonISt3mapSt6vectorSA_bxydSaNSD_14adl_serializerESG_IhSaIhEEvEEEERS1_Lb1EEEOT_OT0_, symObjAddr: 0x20164, symBinAddr: 0x1000220A8, symSize: 0x48 }
  - { offsetInCU: 0x53608, offset: 0x53608, size: 0x8, addend: 0x0, symName: __ZNSt8_Rb_treeINSt7__cxx1112basic_stringIcSt11char_traitsIcESaIcEEESt4pairIKS5_N8nlohmann16json_abi_v3_11_310basic_jsonISt3mapSt6vectorS5_bxydSaNS9_14adl_serializerESC_IhSaIhEEvEEESt10_Select1stISH_ESt4lessIvESaISH_EE8_S_rightEPSt18_Rb_tree_node_base, symObjAddr: 0x2014C, symBinAddr: 0x100022090, symSize: 0x18 }
  - { offsetInCU: 0x53632, offset: 0x53632, size: 0x8, addend: 0x0, symName: __ZNSt8_Rb_treeINSt7__cxx1112basic_stringIcSt11char_traitsIcESaIcEEESt4pairIKS5_N8nlohmann16json_abi_v3_11_310basic_jsonISt3mapSt6vectorS5_bxydSaNS9_14adl_serializerESC_IhSaIhEEvEEESt10_Select1stISH_ESt4lessIvESaISH_EE7_S_leftEPSt18_Rb_tree_node_base, symObjAddr: 0x20134, symBinAddr: 0x100022078, symSize: 0x18 }
  - { offsetInCU: 0x5365C, offset: 0x5365C, size: 0x8, addend: 0x0, symName: __ZNSt8_Rb_treeINSt7__cxx1112basic_stringIcSt11char_traitsIcESaIcEEESt4pairIKS5_N8nlohmann16json_abi_v3_11_310basic_jsonISt3mapSt6vectorS5_bxydSaNS9_14adl_serializerESC_IhSaIhEEvEEESt10_Select1stISH_ESt4lessIvESaISH_EE6_S_keyEPKSt13_Rb_tree_nodeISH_E, symObjAddr: 0x2010C, symBinAddr: 0x100022050, symSize: 0x28 }
  - { offsetInCU: 0x5368A, offset: 0x5368A, size: 0x8, addend: 0x0, symName: __ZNSt8_Rb_treeINSt7__cxx1112basic_stringIcSt11char_traitsIcESaIcEEESt4pairIKS5_N8nlohmann16json_abi_v3_11_310basic_jsonISt3mapSt6vectorS5_bxydSaNS9_14adl_serializerESC_IhSaIhEEvEEESt10_Select1stISH_ESt4lessIvESaISH_EE12_M_drop_nodeEPSt13_Rb_tree_nodeISH_E, symObjAddr: 0x200D8, symBinAddr: 0x10002201C, symSize: 0x34 }
  - { offsetInCU: 0x536C5, offset: 0x536C5, size: 0x8, addend: 0x0, symName: __ZNSt8_Rb_treeINSt7__cxx1112basic_stringIcSt11char_traitsIcESaIcEEESt4pairIKS5_N8nlohmann16json_abi_v3_11_310basic_jsonISt3mapSt6vectorS5_bxydSaNS9_14adl_serializerESC_IhSaIhEEvEEESt10_Select1stISH_ESt4lessIvESaISH_EE14_M_create_nodeIJS5_SG_EEEPSt13_Rb_tree_nodeISH_EDpOT_, symObjAddr: 0x2007C, symBinAddr: 0x100021FC0, symSize: 0x5C }
  - { offsetInCU: 0x53729, offset: 0x53729, size: 0x8, addend: 0x0, symName: __ZNSt8_Rb_treeINSt7__cxx1112basic_stringIcSt11char_traitsIcESaIcEEESt4pairIKS5_N8nlohmann16json_abi_v3_11_310basic_jsonISt3mapSt6vectorS5_bxydSaNS9_14adl_serializerESC_IhSaIhEEvEEESt10_Select1stISH_ESt4lessIvESaISH_EE29_M_get_insert_hint_unique_posESt23_Rb_tree_const_iteratorISH_ERS7_, symObjAddr: 0x1FD58, symBinAddr: 0x100021C9C, symSize: 0x324 }
  - { offsetInCU: 0x537D0, offset: 0x537D0, size: 0x8, addend: 0x0, symName: __ZN8nlohmann16json_abi_v3_11_310basic_jsonISt3mapSt6vectorNSt7__cxx1112basic_stringIcSt11char_traitsIcESaIcEEEbxydSaNS0_14adl_serializerES3_IhSaIhEEvE6createINS0_27byte_container_with_subtypeISC_EEJRKSG_EEEPT_DpOT0_, symObjAddr: 0x1FBBC, symBinAddr: 0x100021B00, symSize: 0x19C }
  - { offsetInCU: 0x539A8, offset: 0x539A8, size: 0x8, addend: 0x0, symName: __ZZN8nlohmann16json_abi_v3_11_310basic_jsonISt3mapSt6vectorNSt7__cxx1112basic_stringIcSt11char_traitsIcESaIcEEEbxydSaNS0_14adl_serializerES3_IhSaIhEEvE6createINS0_27byte_container_with_subtypeISC_EEJRKSG_EEEPT_DpOT0_ENKUlPSG_E_clESO_, symObjAddr: 0x1FB70, symBinAddr: 0x100021AB4, symSize: 0x4C }
  - { offsetInCU: 0x53A66, offset: 0x53A66, size: 0x8, addend: 0x0, symName: __ZN8nlohmann16json_abi_v3_11_310basic_jsonISt3mapSt6vectorNSt7__cxx1112basic_stringIcSt11char_traitsIcESaIcEEEbxydSaNS0_14adl_serializerES3_IhSaIhEEvE6createIS9_JRKS9_EEEPT_DpOT0_, symObjAddr: 0x1F9D4, symBinAddr: 0x100021918, symSize: 0x19C }
  - { offsetInCU: 0x53C1A, offset: 0x53C1A, size: 0x8, addend: 0x0, symName: __ZZN8nlohmann16json_abi_v3_11_310basic_jsonISt3mapSt6vectorNSt7__cxx1112basic_stringIcSt11char_traitsIcESaIcEEEbxydSaNS0_14adl_serializerES3_IhSaIhEEvE6createIS9_JRKS9_EEEPT_DpOT0_ENKUlPS9_E_clESM_, symObjAddr: 0x1F988, symBinAddr: 0x1000218CC, symSize: 0x4C }
  - { offsetInCU: 0x53CFC, offset: 0x53CFC, size: 0x8, addend: 0x0, symName: __ZN8nlohmann16json_abi_v3_11_310basic_jsonISt3mapSt6vectorNSt7__cxx1112basic_stringIcSt11char_traitsIcESaIcEEEbxydSaNS0_14adl_serializerES3_IhSaIhEEvE6createIS3_ISD_SaISD_EEJRKSG_EEEPT_DpOT0_, symObjAddr: 0x1F7EC, symBinAddr: 0x100021730, symSize: 0x19C }
  - { offsetInCU: 0x53EBC, offset: 0x53EBC, size: 0x8, addend: 0x0, symName: __ZZN8nlohmann16json_abi_v3_11_310basic_jsonISt3mapSt6vectorNSt7__cxx1112basic_stringIcSt11char_traitsIcESaIcEEEbxydSaNS0_14adl_serializerES3_IhSaIhEEvE6createIS3_ISD_SaISD_EEJRKSG_EEEPT_DpOT0_ENKUlPSG_E_clESO_, symObjAddr: 0x1F7A0, symBinAddr: 0x1000216E4, symSize: 0x4C }
  - { offsetInCU: 0x53F92, offset: 0x53F92, size: 0x8, addend: 0x0, symName: __ZN8nlohmann16json_abi_v3_11_310basic_jsonISt3mapSt6vectorNSt7__cxx1112basic_stringIcSt11char_traitsIcESaIcEEEbxydSaNS0_14adl_serializerES3_IhSaIhEEvE6createIS2_IS9_SD_St4lessIvESaISt4pairIKS9_SD_EEEJRKSL_EEEPT_DpOT0_, symObjAddr: 0x1F604, symBinAddr: 0x100021548, symSize: 0x19C }
  - { offsetInCU: 0x5416C, offset: 0x5416C, size: 0x8, addend: 0x0, symName: __ZZN8nlohmann16json_abi_v3_11_310basic_jsonISt3mapSt6vectorNSt7__cxx1112basic_stringIcSt11char_traitsIcESaIcEEEbxydSaNS0_14adl_serializerES3_IhSaIhEEvE6createIS2_IS9_SD_St4lessIvESaISt4pairIKS9_SD_EEEJRKSL_EEEPT_DpOT0_ENKUlPSL_E_clEST_, symObjAddr: 0x1F5B8, symBinAddr: 0x1000214FC, symSize: 0x4C }
  - { offsetInCU: 0x54228, offset: 0x54228, size: 0x8, addend: 0x0, symName: __ZSt9__find_ifIPKN8nlohmann16json_abi_v3_11_36detail8json_refINS1_10basic_jsonISt3mapSt6vectorNSt7__cxx1112basic_stringIcSt11char_traitsIcESaIcEEEbxydSaNS1_14adl_serializerES6_IhSaIhEEvEEEEN9__gnu_cxx5__ops12_Iter_negateIZNSG_C4ESt16initializer_listISH_EbNS2_7value_tEEUlRSI_E_EEET_ST_ST_T0_St26random_access_iterator_tag, symObjAddr: 0x1F3E0, symBinAddr: 0x100021324, symSize: 0x1D8 }
  - { offsetInCU: 0x542BC, offset: 0x542BC, size: 0x8, addend: 0x0, symName: __ZN9__gnu_cxx5__ops8__negateIZN8nlohmann16json_abi_v3_11_310basic_jsonISt3mapSt6vectorNSt7__cxx1112basic_stringIcSt11char_traitsIcESaIcEEEbxydSaNS3_14adl_serializerES6_IhSaIhEEvEC4ESt16initializer_listINS3_6detail8json_refISG_EEEbNSI_7value_tEEUlRKSK_E_EENS0_12_Iter_negateIT_EENS0_10_Iter_predISR_EE, symObjAddr: 0x1F3A8, symBinAddr: 0x1000212EC, symSize: 0x38 }
  - { offsetInCU: 0x5441F, offset: 0x5441F, size: 0x8, addend: 0x0, symName: __ZN9__gnu_cxx5__ops10_Iter_predIZN8nlohmann16json_abi_v3_11_310basic_jsonISt3mapSt6vectorNSt7__cxx1112basic_stringIcSt11char_traitsIcESaIcEEEbxydSaNS3_14adl_serializerES6_IhSaIhEEvEC4ESt16initializer_listINS3_6detail8json_refISG_EEEbNSI_7value_tEEUlRKSK_E_EC1ESP_, symObjAddr: 0x1F384, symBinAddr: 0x1000212C8, symSize: 0x24 }
  - { offsetInCU: 0x5434D, offset: 0x5434D, size: 0x8, addend: 0x0, symName: __ZSt4moveIRZN8nlohmann16json_abi_v3_11_310basic_jsonISt3mapSt6vectorNSt7__cxx1112basic_stringIcSt11char_traitsIcESaIcEEEbxydSaNS1_14adl_serializerES4_IhSaIhEEvEC4ESt16initializer_listINS1_6detail8json_refISE_EEEbNSG_7value_tEEUlRKSI_E_EONSt16remove_referenceIT_E4typeEOSQ_, symObjAddr: 0x1F370, symBinAddr: 0x1000212B4, symSize: 0x14 }
  - { offsetInCU: 0x5437F, offset: 0x5437F, size: 0x8, addend: 0x0, symName: __ZSt4copyIPKiPiET0_T_S4_S3_, symObjAddr: 0x1F328, symBinAddr: 0x10002126C, symSize: 0x48 }
  - { offsetInCU: 0x5441A, offset: 0x5441A, size: 0x8, addend: 0x0, symName: __ZNSt6vectorIhSaIhEED2Ev, symObjAddr: 0x1F2CC, symBinAddr: 0x100021210, symSize: 0x5C }
  - { offsetInCU: 0x5455F, offset: 0x5455F, size: 0x8, addend: 0x0, symName: __ZNSt8_Rb_treeINSt7__cxx1112basic_stringIcSt11char_traitsIcESaIcEEESt4pairIKS5_N8nlohmann16json_abi_v3_11_310basic_jsonISt3mapSt6vectorS5_bxydSaNS9_14adl_serializerESC_IhSaIhEEvEEESt10_Select1stISH_ESt4lessIvESaISH_EED1Ev, symObjAddr: 0x1F298, symBinAddr: 0x1000211DC, symSize: 0x34 }
  - { offsetInCU: 0x544AB, offset: 0x544AB, size: 0x8, addend: 0x0, symName: __ZNSt8_Rb_treeINSt7__cxx1112basic_stringIcSt11char_traitsIcESaIcEEESt4pairIKS5_N8nlohmann16json_abi_v3_11_310basic_jsonISt3mapSt6vectorS5_bxydSaNS9_14adl_serializerESC_IhSaIhEEvEEESt10_Select1stISH_ESt4lessIvESaISH_EE8_M_eraseEPSt13_Rb_tree_nodeISH_E, symObjAddr: 0x1F234, symBinAddr: 0x100021178, symSize: 0x64 }
  - { offsetInCU: 0x54536, offset: 0x54536, size: 0x8, addend: 0x0, symName: __ZNK9__gnu_cxx17__normal_iteratorIPKN8nlohmann16json_abi_v3_11_310basic_jsonISt3mapSt6vectorNSt7__cxx1112basic_stringIcSt11char_traitsIcESaIcEEEbxydSaNS2_14adl_serializerES5_IhSaIhEEvEES5_ISF_SaISF_EEE4baseEv, symObjAddr: 0x1F220, symBinAddr: 0x100021164, symSize: 0x14 }
  - { offsetInCU: 0x54655, offset: 0x54655, size: 0x8, addend: 0x0, symName: __ZN9__gnu_cxx17__normal_iteratorIPKN8nlohmann16json_abi_v3_11_310basic_jsonISt3mapSt6vectorNSt7__cxx1112basic_stringIcSt11char_traitsIcESaIcEEEbxydSaNS2_14adl_serializerES5_IhSaIhEEvEES5_ISF_SaISF_EEEC1ERKSH_, symObjAddr: 0x1F1F8, symBinAddr: 0x10002113C, symSize: 0x28 }
  - { offsetInCU: 0x545B7, offset: 0x545B7, size: 0x8, addend: 0x0, symName: __ZNSt6vectorIN8nlohmann16json_abi_v3_11_310basic_jsonISt3mapS_NSt7__cxx1112basic_stringIcSt11char_traitsIcESaIcEEEbxydSaNS1_14adl_serializerES_IhSaIhEEvEESaISD_EE17_M_realloc_appendIJSD_EEEvDpOT_, symObjAddr: 0x1F038, symBinAddr: 0x100020F7C, symSize: 0x1C0 }
  - { offsetInCU: 0x54812, offset: 0x54812, size: 0x8, addend: 0x0, symName: __ZZNSt6vectorIN8nlohmann16json_abi_v3_11_310basic_jsonISt3mapS_NSt7__cxx1112basic_stringIcSt11char_traitsIcESaIcEEEbxydSaNS1_14adl_serializerES_IhSaIhEEvEESaISD_EE17_M_realloc_appendIJSD_EEEvDpOT_EN6_GuardC1EPSD_mRSE_, symObjAddr: 0x1EF94, symBinAddr: 0x100020ED8, symSize: 0x44 }
  - { offsetInCU: 0x5484F, offset: 0x5484F, size: 0x8, addend: 0x0, symName: __ZZNSt6vectorIN8nlohmann16json_abi_v3_11_310basic_jsonISt3mapS_NSt7__cxx1112basic_stringIcSt11char_traitsIcESaIcEEEbxydSaNS1_14adl_serializerES_IhSaIhEEvEESaISD_EE17_M_realloc_appendIJSD_EEEvDpOT_EN6_GuardD1Ev, symObjAddr: 0x1EFD8, symBinAddr: 0x100020F1C, symSize: 0x60 }
  - { offsetInCU: 0x548B4, offset: 0x548B4, size: 0x8, addend: 0x0, symName: __ZSt12__niter_wrapISt20back_insert_iteratorISt6vectorIN8nlohmann16json_abi_v3_11_310basic_jsonISt3mapS1_NSt7__cxx1112basic_stringIcSt11char_traitsIcESaIcEEEbxydSaNS3_14adl_serializerES1_IhSaIhEEvEESaISF_EEEET_RKSJ_SJ_, symObjAddr: 0x1EF7C, symBinAddr: 0x100020EC0, symSize: 0x18 }
  - { offsetInCU: 0x548F0, offset: 0x548F0, size: 0x8, addend: 0x0, symName: __ZSt14__copy_move_a1ILb1EPN8nlohmann16json_abi_v3_11_310basic_jsonISt3mapSt6vectorNSt7__cxx1112basic_stringIcSt11char_traitsIcESaIcEEEbxydSaNS1_14adl_serializerES4_IhSaIhEEvEESt20back_insert_iteratorIS4_ISE_SaISE_EEEET1_T0_SL_SK_, symObjAddr: 0x1EF50, symBinAddr: 0x100020E94, symSize: 0x2C }
  - { offsetInCU: 0x54958, offset: 0x54958, size: 0x8, addend: 0x0, symName: __ZSt12__niter_baseISt20back_insert_iteratorISt6vectorIN8nlohmann16json_abi_v3_11_310basic_jsonISt3mapS1_NSt7__cxx1112basic_stringIcSt11char_traitsIcESaIcEEEbxydSaNS3_14adl_serializerES1_IhSaIhEEvEESaISF_EEEET_SJ_, symObjAddr: 0x1EF3C, symBinAddr: 0x100020E80, symSize: 0x14 }
  - { offsetInCU: 0x5498B, offset: 0x5498B, size: 0x8, addend: 0x0, symName: __ZSt12__niter_baseIPN8nlohmann16json_abi_v3_11_310basic_jsonISt3mapSt6vectorNSt7__cxx1112basic_stringIcSt11char_traitsIcESaIcEEEbxydSaNS1_14adl_serializerES4_IhSaIhEEvEES4_ISE_SaISE_EEET_N9__gnu_cxx17__normal_iteratorISI_T0_EE, symObjAddr: 0x1EF1C, symBinAddr: 0x100020E60, symSize: 0x20 }
  - { offsetInCU: 0x549C7, offset: 0x549C7, size: 0x8, addend: 0x0, symName: __ZSt11__addressofISt6vectorIN8nlohmann16json_abi_v3_11_310basic_jsonISt3mapS0_NSt7__cxx1112basic_stringIcSt11char_traitsIcESaIcEEEbxydSaNS2_14adl_serializerES0_IhSaIhEEvEESaISE_EEEPT_RSH_, symObjAddr: 0x1EF08, symBinAddr: 0x100020E4C, symSize: 0x14 }
  - { offsetInCU: 0x549FD, offset: 0x549FD, size: 0x8, addend: 0x0, symName: __ZNKSt12_Vector_baseIN8nlohmann16json_abi_v3_11_310basic_jsonISt3mapSt6vectorNSt7__cxx1112basic_stringIcSt11char_traitsIcESaIcEEEbxydSaNS1_14adl_serializerES4_IhSaIhEEvEESaISE_EE19_M_get_Tp_allocatorEv, symObjAddr: 0x1EEF4, symBinAddr: 0x100020E38, symSize: 0x14 }
  - { offsetInCU: 0x54A23, offset: 0x54A23, size: 0x8, addend: 0x0, symName: __ZNSt6vectorIN8nlohmann16json_abi_v3_11_310basic_jsonISt3mapS_NSt7__cxx1112basic_stringIcSt11char_traitsIcESaIcEEEbxydSaNS1_14adl_serializerES_IhSaIhEEvEESaISD_EE11_S_max_sizeERKSE_, symObjAddr: 0x1EEA0, symBinAddr: 0x100020DE4, symSize: 0x54 }
  - { offsetInCU: 0x54ADA, offset: 0x54ADA, size: 0x8, addend: 0x0, symName: __ZSt8_DestroyIPN8nlohmann16json_abi_v3_11_310basic_jsonISt3mapSt6vectorNSt7__cxx1112basic_stringIcSt11char_traitsIcESaIcEEEbxydSaNS1_14adl_serializerES4_IhSaIhEEvEEEvT_SG_, symObjAddr: 0x1EE78, symBinAddr: 0x100020DBC, symSize: 0x28 }
  - { offsetInCU: 0x54B20, offset: 0x54B20, size: 0x8, addend: 0x0, symName: __ZNSt6vectorIN8nlohmann16json_abi_v3_11_310basic_jsonISt3mapS_NSt7__cxx1112basic_stringIcSt11char_traitsIcESaIcEEEbxydSaNS1_14adl_serializerES_IhSaIhEEvEESaISD_EE12emplace_backIJRyEEERSD_DpOT_, symObjAddr: 0x1ED9C, symBinAddr: 0x100020CE0, symSize: 0xDC }
  - { offsetInCU: 0x54BCF, offset: 0x54BCF, size: 0x8, addend: 0x0, symName: __ZNSt6vectorIN8nlohmann16json_abi_v3_11_310basic_jsonISt3mapS_NSt7__cxx1112basic_stringIcSt11char_traitsIcESaIcEEEbxydSaNS1_14adl_serializerES_IhSaIhEEvEESaISD_EE12emplace_backIJRS9_EEERSD_DpOT_, symObjAddr: 0x1EC90, symBinAddr: 0x100020BD4, symSize: 0x10C }
  - { offsetInCU: 0x54C76, offset: 0x54C76, size: 0x8, addend: 0x0, symName: __ZNSt6vectorIN8nlohmann16json_abi_v3_11_310basic_jsonISt3mapS_NSt7__cxx1112basic_stringIcSt11char_traitsIcESaIcEEEbxydSaNS1_14adl_serializerES_IhSaIhEEvEESaISD_EE12emplace_backIJRxEEERSD_DpOT_, symObjAddr: 0x1EBB4, symBinAddr: 0x100020AF8, symSize: 0xDC }
  - { offsetInCU: 0x54D25, offset: 0x54D25, size: 0x8, addend: 0x0, symName: __ZNSt6vectorIN8nlohmann16json_abi_v3_11_310basic_jsonISt3mapS_NSt7__cxx1112basic_stringIcSt11char_traitsIcESaIcEEEbxydSaNS1_14adl_serializerES_IhSaIhEEvEESaISD_EE12emplace_backIJDnEEERSD_DpOT_, symObjAddr: 0x1EAD4, symBinAddr: 0x100020A18, symSize: 0xE0 }
  - { offsetInCU: 0x54DD4, offset: 0x54DD4, size: 0x8, addend: 0x0, symName: __ZNSt6vectorIN8nlohmann16json_abi_v3_11_310basic_jsonISt3mapS_NSt7__cxx1112basic_stringIcSt11char_traitsIcESaIcEEEbxydSaNS1_14adl_serializerES_IhSaIhEEvEESaISD_EE12emplace_backIJRbEEERSD_DpOT_, symObjAddr: 0x1E9F8, symBinAddr: 0x10002093C, symSize: 0xDC }
  - { offsetInCU: 0x54E83, offset: 0x54E83, size: 0x8, addend: 0x0, symName: __ZNSt6vectorIN8nlohmann16json_abi_v3_11_310basic_jsonISt3mapS_NSt7__cxx1112basic_stringIcSt11char_traitsIcESaIcEEEbxydSaNS1_14adl_serializerES_IhSaIhEEvEESaISD_EE12emplace_backIJRdEEERSD_DpOT_, symObjAddr: 0x1E91C, symBinAddr: 0x100020860, symSize: 0xDC }
  - { offsetInCU: 0x54F32, offset: 0x54F32, size: 0x8, addend: 0x0, symName: __ZNSt6vectorIPN8nlohmann16json_abi_v3_11_310basic_jsonISt3mapS_NSt7__cxx1112basic_stringIcSt11char_traitsIcESaIcEEEbxydSaNS1_14adl_serializerES_IhSaIhEEvEESaISE_EE12emplace_backIJSE_EEERSE_DpOT_, symObjAddr: 0x1E844, symBinAddr: 0x100020788, symSize: 0xD8 }
  - { offsetInCU: 0x54FE4, offset: 0x54FE4, size: 0x8, addend: 0x0, symName: __ZSt4moveIRPN8nlohmann16json_abi_v3_11_310basic_jsonISt3mapSt6vectorNSt7__cxx1112basic_stringIcSt11char_traitsIcESaIcEEEbxydSaNS1_14adl_serializerES4_IhSaIhEEvEEEONSt16remove_referenceIT_E4typeEOSI_, symObjAddr: 0x1E830, symBinAddr: 0x100020774, symSize: 0x14 }
  - { offsetInCU: 0x5501A, offset: 0x5501A, size: 0x8, addend: 0x0, symName: __ZNSt6vectorIN8nlohmann16json_abi_v3_11_310basic_jsonISt3mapS_NSt7__cxx1112basic_stringIcSt11char_traitsIcESaIcEEEbxydSaNS1_14adl_serializerES_IhSaIhEEvEESaISD_EE12emplace_backIJNS1_6detail7value_tEEEERSD_DpOT_, symObjAddr: 0x1E720, symBinAddr: 0x100020664, symSize: 0x110 }
  - { offsetInCU: 0x550C3, offset: 0x550C3, size: 0x8, addend: 0x0, symName: __ZN8nlohmann16json_abi_v3_11_36detail11concat_intoINSt7__cxx1112basic_stringIcSt11char_traitsIcESaIcEEERA12_KcJS8_RA3_S9_S8_RKS8_ELi0EEEvRT_OT0_DpOT1_, symObjAddr: 0x1E68C, symBinAddr: 0x1000205D0, symSize: 0x94 }
  - { offsetInCU: 0x55155, offset: 0x55155, size: 0x8, addend: 0x0, symName: __ZN8nlohmann16json_abi_v3_11_36detail13concat_lengthIJNSt7__cxx1112basic_stringIcSt11char_traitsIcESaIcEEEA3_cS8_S8_EEEmPKcDpRKT_, symObjAddr: 0x1E63C, symBinAddr: 0x100020580, symSize: 0x50 }
  - { offsetInCU: 0x551CA, offset: 0x551CA, size: 0x8, addend: 0x0, symName: __ZN8nlohmann16json_abi_v3_11_36detail11concat_intoINSt7__cxx1112basic_stringIcSt11char_traitsIcESaIcEEERA15_KcJS8_cELi0EEEvRT_OT0_DpOT1_, symObjAddr: 0x1E5D8, symBinAddr: 0x10002051C, symSize: 0x64 }
  - { offsetInCU: 0x55240, offset: 0x55240, size: 0x8, addend: 0x0, symName: __ZN8nlohmann16json_abi_v3_11_36detail11concat_intoINSt7__cxx1112basic_stringIcSt11char_traitsIcESaIcEEERKS8_JcELi0EEEvRT_OT0_DpOT1_, symObjAddr: 0x1E590, symBinAddr: 0x1000204D4, symSize: 0x48 }
  - { offsetInCU: 0x55388, offset: 0x55388, size: 0x8, addend: 0x0, symName: __ZN8nlohmann16json_abi_v3_11_310basic_jsonISt3mapSt6vectorNSt7__cxx1112basic_stringIcSt11char_traitsIcESaIcEEEbxydSaNS0_14adl_serializerES3_IhSaIhEEvEC1IRyyLi0EEEOT_, symObjAddr: 0x1E534, symBinAddr: 0x100020478, symSize: 0x5C }
  - { offsetInCU: 0x55329, offset: 0x55329, size: 0x8, addend: 0x0, symName: __ZSt7forwardIRyEOT_RNSt16remove_referenceIS1_E4typeE, symObjAddr: 0x1E520, symBinAddr: 0x100020464, symSize: 0x14 }
  - { offsetInCU: 0x5543B, offset: 0x5543B, size: 0x8, addend: 0x0, symName: __ZN8nlohmann16json_abi_v3_11_310basic_jsonISt3mapSt6vectorNSt7__cxx1112basic_stringIcSt11char_traitsIcESaIcEEEbxydSaNS0_14adl_serializerES3_IhSaIhEEvEC1IRxxLi0EEEOT_, symObjAddr: 0x1E4C4, symBinAddr: 0x100020408, symSize: 0x5C }
  - { offsetInCU: 0x553DC, offset: 0x553DC, size: 0x8, addend: 0x0, symName: __ZSt7forwardIRxEOT_RNSt16remove_referenceIS1_E4typeE, symObjAddr: 0x1E4B0, symBinAddr: 0x1000203F4, symSize: 0x14 }
  - { offsetInCU: 0x554EE, offset: 0x554EE, size: 0x8, addend: 0x0, symName: __ZN8nlohmann16json_abi_v3_11_310basic_jsonISt3mapSt6vectorNSt7__cxx1112basic_stringIcSt11char_traitsIcESaIcEEEbxydSaNS0_14adl_serializerES3_IhSaIhEEvEC1IRbbLi0EEEOT_, symObjAddr: 0x1E454, symBinAddr: 0x100020398, symSize: 0x5C }
  - { offsetInCU: 0x5548F, offset: 0x5548F, size: 0x8, addend: 0x0, symName: __ZSt7forwardIRbEOT_RNSt16remove_referenceIS1_E4typeE, symObjAddr: 0x1E440, symBinAddr: 0x100020384, symSize: 0x14 }
  - { offsetInCU: 0x555A1, offset: 0x555A1, size: 0x8, addend: 0x0, symName: __ZN8nlohmann16json_abi_v3_11_310basic_jsonISt3mapSt6vectorNSt7__cxx1112basic_stringIcSt11char_traitsIcESaIcEEEbxydSaNS0_14adl_serializerES3_IhSaIhEEvEC1IRddLi0EEEOT_, symObjAddr: 0x1E3E4, symBinAddr: 0x100020328, symSize: 0x5C }
  - { offsetInCU: 0x55542, offset: 0x55542, size: 0x8, addend: 0x0, symName: __ZSt7forwardIRdEOT_RNSt16remove_referenceIS1_E4typeE, symObjAddr: 0x1E3D0, symBinAddr: 0x100020314, symSize: 0x14 }
  - { offsetInCU: 0x55574, offset: 0x55574, size: 0x8, addend: 0x0, symName: __ZN8nlohmann16json_abi_v3_11_36detail11concat_intoINSt7__cxx1112basic_stringIcSt11char_traitsIcESaIcEEES8_JcELi0EEEvRT_OT0_DpOT1_, symObjAddr: 0x1E388, symBinAddr: 0x1000202CC, symSize: 0x48 }
  - { offsetInCU: 0x555DC, offset: 0x555DC, size: 0x8, addend: 0x0, symName: __ZN8nlohmann16json_abi_v3_11_36detail13concat_lengthINSt7__cxx1112basic_stringIcSt11char_traitsIcESaIcEEEJcEEEmRKT_DpRKT0_, symObjAddr: 0x1E34C, symBinAddr: 0x100020290, symSize: 0x3C }
  - { offsetInCU: 0x55630, offset: 0x55630, size: 0x8, addend: 0x0, symName: __ZN8nlohmann16json_abi_v3_11_36detail11concat_intoINSt7__cxx1112basic_stringIcSt11char_traitsIcESaIcEEERA23_KcJS8_ELi0EEEvRT_OT0_DpOT1_, symObjAddr: 0x1E304, symBinAddr: 0x100020248, symSize: 0x48 }
  - { offsetInCU: 0x5569E, offset: 0x5569E, size: 0x8, addend: 0x0, symName: __ZSt7forwardIRA23_KcEOT_RNSt16remove_referenceIS3_E4typeE, symObjAddr: 0x1E2F0, symBinAddr: 0x100020234, symSize: 0x14 }
  - { offsetInCU: 0x556D4, offset: 0x556D4, size: 0x8, addend: 0x0, symName: __ZNSt8_Rb_treeINSt7__cxx1112basic_stringIcSt11char_traitsIcESaIcEEESt4pairIKS5_N8nlohmann16json_abi_v3_11_310basic_jsonISt3mapSt6vectorS5_bxydSaNS9_14adl_serializerESC_IhSaIhEEvEEESt10_Select1stISH_ESt4lessIvESaISH_EE22_M_emplace_hint_uniqueIJRKSt21piecewise_construct_tSt5tupleIJRS7_EESS_IJEEEEESt17_Rb_tree_iteratorISH_ESt23_Rb_tree_const_iteratorISH_EDpOT_, symObjAddr: 0x1E218, symBinAddr: 0x10002015C, symSize: 0xD8 }
  - { offsetInCU: 0x557EF, offset: 0x557EF, size: 0x8, addend: 0x0, symName: __ZNSt5tupleIJRKNSt7__cxx1112basic_stringIcSt11char_traitsIcESaIcEEEEEC1ILb1ELb1EEES7_, symObjAddr: 0x1E1F0, symBinAddr: 0x100020134, symSize: 0x28 }
  - { offsetInCU: 0x557D2, offset: 0x557D2, size: 0x8, addend: 0x0, symName: __ZN8nlohmann16json_abi_v3_11_314adl_serializerINSt7__cxx1112basic_stringIcSt11char_traitsIcESaIcEEEvE7to_jsonINS0_10basic_jsonISt3mapSt6vectorS7_bxydSaS1_SC_IhSaIhEEvEERS7_EEDTcmclL_ZNS0_7to_jsonEEfp_cl7forwardIT0_Efp0_EEcvv_EERT_OSH_, symObjAddr: 0x1E1AC, symBinAddr: 0x1000200F0, symSize: 0x44 }
  - { offsetInCU: 0x5581F, offset: 0x5581F, size: 0x8, addend: 0x0, symName: __ZN8nlohmann16json_abi_v3_11_36detail6concatINSt7__cxx1112basic_stringIcSt11char_traitsIcESaIcEEEJRA25_KcPS9_EEET_DpOT0_, symObjAddr: 0x1E128, symBinAddr: 0x10002006C, symSize: 0x84 }
  - { offsetInCU: 0x55880, offset: 0x55880, size: 0x8, addend: 0x0, symName: __ZNSt6vectorIN8nlohmann16json_abi_v3_11_310basic_jsonISt3mapS_NSt7__cxx1112basic_stringIcSt11char_traitsIcESaIcEEEbxydSaNS1_14adl_serializerES_IhSaIhEEvEESaISD_EE5eraseEN9__gnu_cxx17__normal_iteratorIPKSD_SF_EE, symObjAddr: 0x1E0D4, symBinAddr: 0x100020018, symSize: 0x54 }
  - { offsetInCU: 0x559CF, offset: 0x559CF, size: 0x8, addend: 0x0, symName: __ZN9__gnu_cxx17__normal_iteratorIPKN8nlohmann16json_abi_v3_11_310basic_jsonISt3mapSt6vectorNSt7__cxx1112basic_stringIcSt11char_traitsIcESaIcEEEbxydSaNS2_14adl_serializerES5_IhSaIhEEvEES5_ISF_SaISF_EEEC1IPSF_vEERKNS0_IT_SJ_EE, symObjAddr: 0x1E0A4, symBinAddr: 0x10001FFE8, symSize: 0x30 }
  - { offsetInCU: 0x5592A, offset: 0x5592A, size: 0x8, addend: 0x0, symName: __ZNSt3mapINSt7__cxx1112basic_stringIcSt11char_traitsIcESaIcEEEN8nlohmann16json_abi_v3_11_310basic_jsonIS_St6vectorS5_bxydSaNS7_14adl_serializerES9_IhSaIhEEvEESt4lessIvESaISt4pairIKS5_SD_EEE5eraseB5cxx11ESt17_Rb_tree_iteratorISI_E, symObjAddr: 0x1E080, symBinAddr: 0x10001FFC4, symSize: 0x24 }
  - { offsetInCU: 0x55961, offset: 0x55961, size: 0x8, addend: 0x0, symName: __ZN8nlohmann16json_abi_v3_11_36detail16invalid_iterator6createIPNS0_10basic_jsonISt3mapSt6vectorNSt7__cxx1112basic_stringIcSt11char_traitsIcESaIcEEEbxydSaNS0_14adl_serializerES6_IhSaIhEEvEELi0EEES2_iRKSC_T_, symObjAddr: 0x1DF40, symBinAddr: 0x10001FE84, symSize: 0x140 }
  - { offsetInCU: 0x55A55, offset: 0x55A55, size: 0x8, addend: 0x0, symName: __ZNK8nlohmann16json_abi_v3_11_36detail9iter_implINS0_10basic_jsonISt3mapSt6vectorNSt7__cxx1112basic_stringIcSt11char_traitsIcESaIcEEEbxydSaNS0_14adl_serializerES5_IhSaIhEEvEEEeqISG_LDnEEEbRKT_, symObjAddr: 0x1DD88, symBinAddr: 0x10001FCCC, symSize: 0x1B8 }
  - { offsetInCU: 0x55B46, offset: 0x55B46, size: 0x8, addend: 0x0, symName: __ZN8nlohmann16json_abi_v3_11_36detail9iter_implINS0_10basic_jsonISt3mapSt6vectorNSt7__cxx1112basic_stringIcSt11char_traitsIcESaIcEEEbxydSaNS0_14adl_serializerES5_IhSaIhEEvEEE7set_endEv, symObjAddr: 0x1DCC0, symBinAddr: 0x10001FC04, symSize: 0xC8 }
  - { offsetInCU: 0x55B97, offset: 0x55B97, size: 0x8, addend: 0x0, symName: __ZN8nlohmann16json_abi_v3_11_36detail9iter_implINS0_10basic_jsonISt3mapSt6vectorNSt7__cxx1112basic_stringIcSt11char_traitsIcESaIcEEEbxydSaNS0_14adl_serializerES5_IhSaIhEEvEEE9set_beginEv, symObjAddr: 0x1DBDC, symBinAddr: 0x10001FB20, symSize: 0xE4 }
  - { offsetInCU: 0x55CB9, offset: 0x55CB9, size: 0x8, addend: 0x0, symName: __ZN8nlohmann16json_abi_v3_11_36detail9iter_implINS0_10basic_jsonISt3mapSt6vectorNSt7__cxx1112basic_stringIcSt11char_traitsIcESaIcEEEbxydSaNS0_14adl_serializerES5_IhSaIhEEvEEEC1EPSF_, symObjAddr: 0x1DADC, symBinAddr: 0x10001FA20, symSize: 0x100 }
  - { offsetInCU: 0x55C79, offset: 0x55C79, size: 0x8, addend: 0x0, symName: __ZN9__gnu_cxxeqIPKPN8nlohmann16json_abi_v3_11_310basic_jsonISt3mapSt6vectorNSt7__cxx1112basic_stringIcSt11char_traitsIcESaIcEEEbxydSaNS2_14adl_serializerES5_IhSaIhEEvEES5_ISG_SaISG_EEEEbRKNS_17__normal_iteratorIT_T0_EESQ_, symObjAddr: 0x1DA98, symBinAddr: 0x10001F9DC, symSize: 0x44 }
  - { offsetInCU: 0x55CCA, offset: 0x55CCA, size: 0x8, addend: 0x0, symName: __ZNKSt6vectorIPN8nlohmann16json_abi_v3_11_310basic_jsonISt3mapS_NSt7__cxx1112basic_stringIcSt11char_traitsIcESaIcEEEbxydSaNS1_14adl_serializerES_IhSaIhEEvEESaISE_EE3endEv, symObjAddr: 0x1DA70, symBinAddr: 0x10001F9B4, symSize: 0x28 }
  - { offsetInCU: 0x55CF4, offset: 0x55CF4, size: 0x8, addend: 0x0, symName: __ZNKSt6vectorIPN8nlohmann16json_abi_v3_11_310basic_jsonISt3mapS_NSt7__cxx1112basic_stringIcSt11char_traitsIcESaIcEEEbxydSaNS1_14adl_serializerES_IhSaIhEEvEESaISE_EE5beginEv, symObjAddr: 0x1DA4C, symBinAddr: 0x10001F990, symSize: 0x24 }
  - { offsetInCU: 0x55D20, offset: 0x55D20, size: 0x8, addend: 0x0, symName: __ZN8nlohmann16json_abi_v3_11_36detail11concat_intoINSt7__cxx1112basic_stringIcSt11char_traitsIcESaIcEEERA24_KcJS8_ELi0EEEvRT_OT0_DpOT1_, symObjAddr: 0x1DA04, symBinAddr: 0x10001F948, symSize: 0x48 }
  - { offsetInCU: 0x55D8E, offset: 0x55D8E, size: 0x8, addend: 0x0, symName: __ZSt7forwardIRA24_KcEOT_RNSt16remove_referenceIS3_E4typeE, symObjAddr: 0x1D9F0, symBinAddr: 0x10001F934, symSize: 0x14 }
  - { offsetInCU: 0x55DC4, offset: 0x55DC4, size: 0x8, addend: 0x0, symName: __ZNKSt3mapINSt7__cxx1112basic_stringIcSt11char_traitsIcESaIcEEEN8nlohmann16json_abi_v3_11_310basic_jsonIS_St6vectorS5_bxydSaNS7_14adl_serializerES9_IhSaIhEEvEESt4lessIvESaISt4pairIKS5_SD_EEE8max_sizeEv, symObjAddr: 0x1D9D4, symBinAddr: 0x10001F918, symSize: 0x1C }
  - { offsetInCU: 0x55DEE, offset: 0x55DEE, size: 0x8, addend: 0x0, symName: __ZNK9__gnu_cxx17__normal_iteratorIPPN8nlohmann16json_abi_v3_11_310basic_jsonISt3mapSt6vectorNSt7__cxx1112basic_stringIcSt11char_traitsIcESaIcEEEbxydSaNS2_14adl_serializerES5_IhSaIhEEvEES5_ISG_SaISG_EEEdeEv, symObjAddr: 0x1D9BC, symBinAddr: 0x10001F900, symSize: 0x18 }
  - { offsetInCU: 0x55E18, offset: 0x55E18, size: 0x8, addend: 0x0, symName: __ZNK9__gnu_cxx17__normal_iteratorIPPN8nlohmann16json_abi_v3_11_310basic_jsonISt3mapSt6vectorNSt7__cxx1112basic_stringIcSt11char_traitsIcESaIcEEEbxydSaNS2_14adl_serializerES5_IhSaIhEEvEES5_ISG_SaISG_EEEmiEl, symObjAddr: 0x1D978, symBinAddr: 0x10001F8BC, symSize: 0x44 }
  - { offsetInCU: 0x55E53, offset: 0x55E53, size: 0x8, addend: 0x0, symName: __ZNSt6vectorIPN8nlohmann16json_abi_v3_11_310basic_jsonISt3mapS_NSt7__cxx1112basic_stringIcSt11char_traitsIcESaIcEEEbxydSaNS1_14adl_serializerES_IhSaIhEEvEESaISE_EE3endEv, symObjAddr: 0x1D950, symBinAddr: 0x10001F894, symSize: 0x28 }
  - { offsetInCU: 0x55E7D, offset: 0x55E7D, size: 0x8, addend: 0x0, symName: __ZNSt6vectorIPN8nlohmann16json_abi_v3_11_310basic_jsonISt3mapS_NSt7__cxx1112basic_stringIcSt11char_traitsIcESaIcEEEbxydSaNS1_14adl_serializerES_IhSaIhEEvEESaISE_EE17_M_realloc_appendIJRKSE_EEEvDpOT_, symObjAddr: 0x1D794, symBinAddr: 0x10001F6D8, symSize: 0x1BC }
  - { offsetInCU: 0x560DB, offset: 0x560DB, size: 0x8, addend: 0x0, symName: __ZZNSt6vectorIPN8nlohmann16json_abi_v3_11_310basic_jsonISt3mapS_NSt7__cxx1112basic_stringIcSt11char_traitsIcESaIcEEEbxydSaNS1_14adl_serializerES_IhSaIhEEvEESaISE_EE17_M_realloc_appendIJRKSE_EEEvDpOT_EN6_GuardC1EPSE_mRSF_, symObjAddr: 0x1D6F0, symBinAddr: 0x10001F634, symSize: 0x44 }
  - { offsetInCU: 0x56118, offset: 0x56118, size: 0x8, addend: 0x0, symName: __ZZNSt6vectorIPN8nlohmann16json_abi_v3_11_310basic_jsonISt3mapS_NSt7__cxx1112basic_stringIcSt11char_traitsIcESaIcEEEbxydSaNS1_14adl_serializerES_IhSaIhEEvEESaISE_EE17_M_realloc_appendIJRKSE_EEEvDpOT_EN6_GuardD1Ev, symObjAddr: 0x1D734, symBinAddr: 0x10001F678, symSize: 0x60 }
  - { offsetInCU: 0x5627B, offset: 0x5627B, size: 0x8, addend: 0x0, symName: __ZNSt4pairIbPN8nlohmann16json_abi_v3_11_310basic_jsonISt3mapSt6vectorNSt7__cxx1112basic_stringIcSt11char_traitsIcESaIcEEEbxydSaNS1_14adl_serializerES4_IhSaIhEEvEEEC1IbRSF_Lb1EEEOT_OT0_, symObjAddr: 0x1D6A8, symBinAddr: 0x10001F5EC, symSize: 0x48 }
  - { offsetInCU: 0x5630C, offset: 0x5630C, size: 0x8, addend: 0x0, symName: __ZNSt4pairIbPN8nlohmann16json_abi_v3_11_310basic_jsonISt3mapSt6vectorNSt7__cxx1112basic_stringIcSt11char_traitsIcESaIcEEEbxydSaNS1_14adl_serializerES4_IhSaIhEEvEEEC1IbSF_Lb1EEEOT_OT0_, symObjAddr: 0x1D660, symBinAddr: 0x10001F5A4, symSize: 0x48 }
  - { offsetInCU: 0x562A4, offset: 0x562A4, size: 0x8, addend: 0x0, symName: __ZSt7forwardIN8nlohmann16json_abi_v3_11_36detail7value_tEEOT_RNSt16remove_referenceIS4_E4typeE, symObjAddr: 0x1D64C, symBinAddr: 0x10001F590, symSize: 0x14 }
  - { offsetInCU: 0x563D5, offset: 0x563D5, size: 0x8, addend: 0x0, symName: __ZNSt4pairIbPN8nlohmann16json_abi_v3_11_310basic_jsonISt3mapSt6vectorNSt7__cxx1112basic_stringIcSt11char_traitsIcESaIcEEEbxydSaNS1_14adl_serializerES4_IhSaIhEEvEEEC1IbDnLb1EEEOT_OT0_, symObjAddr: 0x1D608, symBinAddr: 0x10001F54C, symSize: 0x44 }
  - { offsetInCU: 0x5636E, offset: 0x5636E, size: 0x8, addend: 0x0, symName: __ZSt7forwardIN8nlohmann16json_abi_v3_11_36detail13parse_event_tEEOT_RNSt16remove_referenceIS4_E4typeE, symObjAddr: 0x1D5F4, symBinAddr: 0x10001F538, symSize: 0x14 }
  - { offsetInCU: 0x563A0, offset: 0x563A0, size: 0x8, addend: 0x0, symName: __ZNSt12_Destroy_auxILb1EE9__destroyIPPN8nlohmann16json_abi_v3_11_310basic_jsonISt3mapSt6vectorNSt7__cxx1112basic_stringIcSt11char_traitsIcESaIcEEEbxydSaNS3_14adl_serializerES6_IhSaIhEEvEEEEvT_SJ_, symObjAddr: 0x1D5DC, symBinAddr: 0x10001F520, symSize: 0x18 }
  - { offsetInCU: 0x563D4, offset: 0x563D4, size: 0x8, addend: 0x0, symName: __ZNSt13_Bvector_baseISaIbEE8_S_nwordEm, symObjAddr: 0x1D5C0, symBinAddr: 0x10001F504, symSize: 0x1C }
  - { offsetInCU: 0x563FE, offset: 0x563FE, size: 0x8, addend: 0x0, symName: __ZSt4copyISt13_Bit_iteratorS0_ET0_T_S2_S1_, symObjAddr: 0x1D520, symBinAddr: 0x10001F464, symSize: 0xA0 }
  - { offsetInCU: 0x56462, offset: 0x56462, size: 0x8, addend: 0x0, symName: __ZNSt6vectorIbSaIbEE5beginEv, symObjAddr: 0x1D4D0, symBinAddr: 0x10001F414, symSize: 0x50 }
  - { offsetInCU: 0x5648C, offset: 0x5648C, size: 0x8, addend: 0x0, symName: __ZNSt6vectorIbSaIbEE15_M_copy_alignedESt19_Bit_const_iteratorS2_St13_Bit_iterator, symObjAddr: 0x1D41C, symBinAddr: 0x10001F360, symSize: 0xB4 }
  - { offsetInCU: 0x564FE, offset: 0x564FE, size: 0x8, addend: 0x0, symName: __ZNSt13_Bvector_baseISaIbEE11_M_allocateEm, symObjAddr: 0x1D3CC, symBinAddr: 0x10001F310, symSize: 0x50 }
  - { offsetInCU: 0x56577, offset: 0x56577, size: 0x8, addend: 0x0, symName: __ZNKSt6vectorIbSaIbEE12_M_check_lenEmPKc, symObjAddr: 0x1D2FC, symBinAddr: 0x10001F240, symSize: 0xD0 }
  - { offsetInCU: 0x565D0, offset: 0x565D0, size: 0x8, addend: 0x0, symName: __ZSt13copy_backwardISt13_Bit_iteratorS0_ET0_T_S2_S1_, symObjAddr: 0x1D25C, symBinAddr: 0x10001F1A0, symSize: 0xA0 }
  - { offsetInCU: 0x56630, offset: 0x56630, size: 0x8, addend: 0x0, symName: __ZSt11__addressofImEPT_RS0_, symObjAddr: 0x1D248, symBinAddr: 0x10001F18C, symSize: 0x14 }
  - { offsetInCU: 0x56666, offset: 0x56666, size: 0x8, addend: 0x0, symName: __ZNSt13_Bvector_baseISaIbEE18_Bvector_impl_data8_M_resetEv, symObjAddr: 0x1D208, symBinAddr: 0x10001F14C, symSize: 0x40 }
  - { offsetInCU: 0x56721, offset: 0x56721, size: 0x8, addend: 0x0, symName: __ZNSt12_Vector_baseIcSaIcEE17_Vector_impl_dataC2Ev, symObjAddr: 0x1D1DC, symBinAddr: 0x10001F120, symSize: 0x2C }
  - { offsetInCU: 0x56714, offset: 0x56714, size: 0x8, addend: 0x0, symName: __ZN8nlohmann16json_abi_v3_11_36detail11concat_intoINSt7__cxx1112basic_stringIcSt11char_traitsIcESaIcEEERA3_KcJELi0EEEvRT_OT0_DpOT1_, symObjAddr: 0x1D1A4, symBinAddr: 0x10001F0E8, symSize: 0x38 }
  - { offsetInCU: 0x56782, offset: 0x56782, size: 0x8, addend: 0x0, symName: __ZN8nlohmann16json_abi_v3_11_36detail9from_jsonINS0_10basic_jsonISt3mapSt6vectorNSt7__cxx1112basic_stringIcSt11char_traitsIcESaIcEEEbxydSaNS0_14adl_serializerES5_IhSaIhEEvEEiLi0EEEvRKT_RT0_, symObjAddr: 0x1D044, symBinAddr: 0x10001EF88, symSize: 0x160 }
  - { offsetInCU: 0x567D3, offset: 0x567D3, size: 0x8, addend: 0x0, symName: __ZN8nlohmann16json_abi_v3_11_36detail5lexerINS0_10basic_jsonISt3mapSt6vectorNSt7__cxx1112basic_stringIcSt11char_traitsIcESaIcEEEbxydSaNS0_14adl_serializerES5_IhSaIhEEvEENS1_22iterator_input_adapterIN9__gnu_cxx17__normal_iteratorIPKcSB_EEEEE11scan_numberEv, symObjAddr: 0x1CA18, symBinAddr: 0x10001E95C, symSize: 0x62C }
  - { offsetInCU: 0x5691D, offset: 0x5691D, size: 0x8, addend: 0x0, symName: __ZN8nlohmann16json_abi_v3_11_36detail5lexerINS0_10basic_jsonISt3mapSt6vectorNSt7__cxx1112basic_stringIcSt11char_traitsIcESaIcEEEbxydSaNS0_14adl_serializerES5_IhSaIhEEvEENS1_22iterator_input_adapterIN9__gnu_cxx17__normal_iteratorIPKcSB_EEEEE11scan_stringEv, symObjAddr: 0x1BC48, symBinAddr: 0x10001DB8C, symSize: 0xDD0 }
  - { offsetInCU: 0x569A8, offset: 0x569A8, size: 0x8, addend: 0x0, symName: __ZN8nlohmann16json_abi_v3_11_36detail5lexerINS0_10basic_jsonISt3mapSt6vectorNSt7__cxx1112basic_stringIcSt11char_traitsIcESaIcEEEbxydSaNS0_14adl_serializerES5_IhSaIhEEvEENS1_22iterator_input_adapterIN9__gnu_cxx17__normal_iteratorIPKcSB_EEEEE12scan_literalESK_mNS1_10lexer_baseISF_E10token_typeE, symObjAddr: 0x1BB44, symBinAddr: 0x10001DA88, symSize: 0x104 }
  - { offsetInCU: 0x56A50, offset: 0x56A50, size: 0x8, addend: 0x0, symName: __ZN8nlohmann16json_abi_v3_11_36detail5lexerINS0_10basic_jsonISt3mapSt6vectorNSt7__cxx1112basic_stringIcSt11char_traitsIcESaIcEEEbxydSaNS0_14adl_serializerES5_IhSaIhEEvEENS1_22iterator_input_adapterIN9__gnu_cxx17__normal_iteratorIPKcSB_EEEEE12scan_commentEv, symObjAddr: 0x1BA44, symBinAddr: 0x10001D988, symSize: 0x100 }
  - { offsetInCU: 0x56A7A, offset: 0x56A7A, size: 0x8, addend: 0x0, symName: __ZN8nlohmann16json_abi_v3_11_36detail5lexerINS0_10basic_jsonISt3mapSt6vectorNSt7__cxx1112basic_stringIcSt11char_traitsIcESaIcEEEbxydSaNS0_14adl_serializerES5_IhSaIhEEvEENS1_22iterator_input_adapterIN9__gnu_cxx17__normal_iteratorIPKcSB_EEEEE15skip_whitespaceEv, symObjAddr: 0x1B9E0, symBinAddr: 0x10001D924, symSize: 0x64 }
  - { offsetInCU: 0x56AA4, offset: 0x56AA4, size: 0x8, addend: 0x0, symName: __ZN8nlohmann16json_abi_v3_11_36detail5lexerINS0_10basic_jsonISt3mapSt6vectorNSt7__cxx1112basic_stringIcSt11char_traitsIcESaIcEEEbxydSaNS0_14adl_serializerES5_IhSaIhEEvEENS1_22iterator_input_adapterIN9__gnu_cxx17__normal_iteratorIPKcSB_EEEEE8skip_bomEv, symObjAddr: 0x1B970, symBinAddr: 0x10001D8B4, symSize: 0x70 }
  - { offsetInCU: 0x56ACA, offset: 0x56ACA, size: 0x8, addend: 0x0, symName: __ZN8nlohmann16json_abi_v3_11_36detail5lexerINS0_10basic_jsonISt3mapSt6vectorNSt7__cxx1112basic_stringIcSt11char_traitsIcESaIcEEEbxydSaNS0_14adl_serializerES5_IhSaIhEEvEENS1_22iterator_input_adapterIN9__gnu_cxx17__normal_iteratorIPKcSB_EEEEE17get_decimal_pointEv, symObjAddr: 0x1B8F8, symBinAddr: 0x10001D83C, symSize: 0x78 }
  - { offsetInCU: 0x56B22, offset: 0x56B22, size: 0x8, addend: 0x0, symName: __ZN8nlohmann16json_abi_v3_11_36detail30iterator_input_adapter_factoryIN9__gnu_cxx17__normal_iteratorIPKcNSt7__cxx1112basic_stringIcSt11char_traitsIcESaIcEEEEEvE6createESD_SD_, symObjAddr: 0x1B8AC, symBinAddr: 0x10001D7F0, symSize: 0x4C }
  - { offsetInCU: 0x56B64, offset: 0x56B64, size: 0x8, addend: 0x0, symName: __ZNSt19istreambuf_iteratorIcSt11char_traitsIcEE9_S_is_eofEi, symObjAddr: 0x1B884, symBinAddr: 0x10001D7C8, symSize: 0x28 }
  - { offsetInCU: 0x56BA1, offset: 0x56BA1, size: 0x8, addend: 0x0, symName: __ZNKSt19istreambuf_iteratorIcSt11char_traitsIcEE9_M_at_eofEv, symObjAddr: 0x1B864, symBinAddr: 0x10001D7A8, symSize: 0x20 }
  - { offsetInCU: 0x56BC7, offset: 0x56BC7, size: 0x8, addend: 0x0, symName: __ZSt12__relocate_aIPSt6vectorIiSaIiEES3_SaIS2_EET0_T_S6_S5_RT1_, symObjAddr: 0x1B808, symBinAddr: 0x10001D74C, symSize: 0x5C }
  - { offsetInCU: 0x56C43, offset: 0x56C43, size: 0x8, addend: 0x0, symName: __ZNKSt6vectorIS_IiSaIiEESaIS1_EE8max_sizeEv, symObjAddr: 0x1B7E8, symBinAddr: 0x10001D72C, symSize: 0x20 }
  - { offsetInCU: 0x56C69, offset: 0x56C69, size: 0x8, addend: 0x0, symName: __ZN8nlohmann16json_abi_v3_11_36detail9from_jsonINS0_10basic_jsonISt3mapSt6vectorNSt7__cxx1112basic_stringIcSt11char_traitsIcESaIcEEEbxydSaNS0_14adl_serializerES5_IhSaIhEEvEEEEvRKT_RNSG_8string_tE, symObjAddr: 0x1B6F4, symBinAddr: 0x10001D638, symSize: 0xF4 }
  - { offsetInCU: 0x56CB6, offset: 0x56CB6, size: 0x8, addend: 0x0, symName: __ZN9__gnu_cxx16__aligned_membufISt4pairIKNSt7__cxx1112basic_stringIcSt11char_traitsIcESaIcEEEN8nlohmann16json_abi_v3_11_310basic_jsonISt3mapSt6vectorS7_bxydSaNSA_14adl_serializerESD_IhSaIhEEvEEEE7_M_addrEv, symObjAddr: 0x1B6E0, symBinAddr: 0x10001D624, symSize: 0x14 }
  - { offsetInCU: 0x56CDB, offset: 0x56CDB, size: 0x8, addend: 0x0, symName: __ZNSt8_Rb_treeINSt7__cxx1112basic_stringIcSt11char_traitsIcESaIcEEESt4pairIKS5_N8nlohmann16json_abi_v3_11_310basic_jsonISt3mapSt6vectorS5_bxydSaNS9_14adl_serializerESC_IhSaIhEEvEEESt10_Select1stISH_ESt4lessIvESaISH_EE6_S_keyEPKSt18_Rb_tree_node_base, symObjAddr: 0x1B6C4, symBinAddr: 0x10001D608, symSize: 0x1C }
  - { offsetInCU: 0x56D09, offset: 0x56D09, size: 0x8, addend: 0x0, symName: __ZNSt8_Rb_treeINSt7__cxx1112basic_stringIcSt11char_traitsIcESaIcEEESt4pairIKS5_N8nlohmann16json_abi_v3_11_310basic_jsonISt3mapSt6vectorS5_bxydSaNS9_14adl_serializerESC_IhSaIhEEvEEESt10_Select1stISH_ESt4lessIvESaISH_EE14_M_lower_boundEPSt13_Rb_tree_nodeISH_EPSt18_Rb_tree_node_baseRS7_, symObjAddr: 0x1B628, symBinAddr: 0x10001D56C, symSize: 0x9C }
  - { offsetInCU: 0x56D66, offset: 0x56D66, size: 0x8, addend: 0x0, symName: __ZNSt8_Rb_treeINSt7__cxx1112basic_stringIcSt11char_traitsIcESaIcEEESt4pairIKS5_N8nlohmann16json_abi_v3_11_310basic_jsonISt3mapSt6vectorS5_bxydSaNS9_14adl_serializerESC_IhSaIhEEvEEESt10_Select1stISH_ESt4lessIvESaISH_EE6_M_endEv, symObjAddr: 0x1B610, symBinAddr: 0x10001D554, symSize: 0x18 }
  - { offsetInCU: 0x56D90, offset: 0x56D90, size: 0x8, addend: 0x0, symName: __ZNSt8_Rb_treeINSt7__cxx1112basic_stringIcSt11char_traitsIcESaIcEEESt4pairIKS5_N8nlohmann16json_abi_v3_11_310basic_jsonISt3mapSt6vectorS5_bxydSaNS9_14adl_serializerESC_IhSaIhEEvEEESt10_Select1stISH_ESt4lessIvESaISH_EE8_M_beginEv, symObjAddr: 0x1B5F4, symBinAddr: 0x10001D538, symSize: 0x1C }
  - { offsetInCU: 0x56DB6, offset: 0x56DB6, size: 0x8, addend: 0x0, symName: __ZSt12__relocate_aIPN8nlohmann16json_abi_v3_11_310basic_jsonISt3mapSt6vectorNSt7__cxx1112basic_stringIcSt11char_traitsIcESaIcEEEbxydSaNS1_14adl_serializerES4_IhSaIhEEvEESF_SaISE_EET0_T_SI_SH_RT1_, symObjAddr: 0x1B598, symBinAddr: 0x10001D4DC, symSize: 0x5C }
  - { offsetInCU: 0x56E32, offset: 0x56E32, size: 0x8, addend: 0x0, symName: __ZNSt15__new_allocatorIN8nlohmann16json_abi_v3_11_310basic_jsonISt3mapSt6vectorNSt7__cxx1112basic_stringIcSt11char_traitsIcESaIcEEEbxydSaNS1_14adl_serializerES4_IhSaIhEEvEEE10deallocateEPSE_m, symObjAddr: 0x1B568, symBinAddr: 0x10001D4AC, symSize: 0x30 }
  - { offsetInCU: 0x56EA0, offset: 0x56EA0, size: 0x8, addend: 0x0, symName: __ZNSt15__uniq_ptr_implIN8nlohmann16json_abi_v3_11_327byte_container_with_subtypeISt6vectorIhSaIhEEEEZNS1_10basic_jsonISt3mapS3_NSt7__cxx1112basic_stringIcSt11char_traitsIcESaIcEEEbxydSaNS1_14adl_serializerES5_vE6createIS6_JEEEPT_DpOT0_EUlPS6_E_E7releaseEv, symObjAddr: 0x1B534, symBinAddr: 0x10001D478, symSize: 0x34 }
  - { offsetInCU: 0x56EDA, offset: 0x56EDA, size: 0x8, addend: 0x0, symName: __ZNKSt10unique_ptrIN8nlohmann16json_abi_v3_11_327byte_container_with_subtypeISt6vectorIhSaIhEEEEZNS1_10basic_jsonISt3mapS3_NSt7__cxx1112basic_stringIcSt11char_traitsIcESaIcEEEbxydSaNS1_14adl_serializerES5_vE6createIS6_JEEEPT_DpOT0_EUlPS6_E_EcvbEv, symObjAddr: 0x1B50C, symBinAddr: 0x10001D450, symSize: 0x28 }
  - { offsetInCU: 0x56F3A, offset: 0x56F3A, size: 0x8, addend: 0x0, symName: __ZNKSt15__uniq_ptr_implIN8nlohmann16json_abi_v3_11_327byte_container_with_subtypeISt6vectorIhSaIhEEEEZNS1_10basic_jsonISt3mapS3_NSt7__cxx1112basic_stringIcSt11char_traitsIcESaIcEEEbxydSaNS1_14adl_serializerES5_vE6createIS6_JEEEPT_DpOT0_EUlPS6_E_E6_M_ptrEv, symObjAddr: 0x1B4EC, symBinAddr: 0x10001D430, symSize: 0x20 }
  - { offsetInCU: 0x56F67, offset: 0x56F67, size: 0x8, addend: 0x0, symName: __ZSt4moveIRPN8nlohmann16json_abi_v3_11_327byte_container_with_subtypeISt6vectorIhSaIhEEEEEONSt16remove_referenceIT_E4typeEOSA_, symObjAddr: 0x1B4D8, symBinAddr: 0x10001D41C, symSize: 0x14 }
  - { offsetInCU: 0x56F9D, offset: 0x56F9D, size: 0x8, addend: 0x0, symName: __ZNSt10unique_ptrIN8nlohmann16json_abi_v3_11_327byte_container_with_subtypeISt6vectorIhSaIhEEEEZNS1_10basic_jsonISt3mapS3_NSt7__cxx1112basic_stringIcSt11char_traitsIcESaIcEEEbxydSaNS1_14adl_serializerES5_vE6createIS6_JEEEPT_DpOT0_EUlPS6_E_E11get_deleterEv, symObjAddr: 0x1B4BC, symBinAddr: 0x10001D400, symSize: 0x1C }
  - { offsetInCU: 0x56FC7, offset: 0x56FC7, size: 0x8, addend: 0x0, symName: __ZNSt15__uniq_ptr_implIN8nlohmann16json_abi_v3_11_327byte_container_with_subtypeISt6vectorIhSaIhEEEEZNS1_10basic_jsonISt3mapS3_NSt7__cxx1112basic_stringIcSt11char_traitsIcESaIcEEEbxydSaNS1_14adl_serializerES5_vE6createIS6_JEEEPT_DpOT0_EUlPS6_E_E6_M_ptrEv, symObjAddr: 0x1B4A0, symBinAddr: 0x10001D3E4, symSize: 0x1C }
  - { offsetInCU: 0x57131, offset: 0x57131, size: 0x8, addend: 0x0, symName: __ZNSt15__uniq_ptr_implIN8nlohmann16json_abi_v3_11_327byte_container_with_subtypeISt6vectorIhSaIhEEEEZNS1_10basic_jsonISt3mapS3_NSt7__cxx1112basic_stringIcSt11char_traitsIcESaIcEEEbxydSaNS1_14adl_serializerES5_vE6createIS6_JEEEPT_DpOT0_EUlPS6_E_EC2IRKSO_EESN_OSI_, symObjAddr: 0x1B454, symBinAddr: 0x10001D398, symSize: 0x4C }
  - { offsetInCU: 0x5706F, offset: 0x5706F, size: 0x8, addend: 0x0, symName: __ZNSt15__new_allocatorIN8nlohmann16json_abi_v3_11_327byte_container_with_subtypeISt6vectorIhSaIhEEEEE8allocateEmPKv, symObjAddr: 0x1B3C4, symBinAddr: 0x10001D308, symSize: 0x90 }
  - { offsetInCU: 0x570FB, offset: 0x570FB, size: 0x8, addend: 0x0, symName: __ZNSt15__uniq_ptr_implINSt7__cxx1112basic_stringIcSt11char_traitsIcESaIcEEEZN8nlohmann16json_abi_v3_11_310basic_jsonISt3mapSt6vectorS5_bxydSaNS7_14adl_serializerESA_IhSaIhEEvE6createIS5_JRA1_KcEEEPT_DpOT0_EUlPS5_E_E7releaseEv, symObjAddr: 0x1B390, symBinAddr: 0x10001D2D4, symSize: 0x34 }
  - { offsetInCU: 0x57135, offset: 0x57135, size: 0x8, addend: 0x0, symName: __ZNKSt10unique_ptrINSt7__cxx1112basic_stringIcSt11char_traitsIcESaIcEEEZN8nlohmann16json_abi_v3_11_310basic_jsonISt3mapSt6vectorS5_bxydSaNS7_14adl_serializerESA_IhSaIhEEvE6createIS5_JRA1_KcEEEPT_DpOT0_EUlPS5_E_EcvbEv, symObjAddr: 0x1B368, symBinAddr: 0x10001D2AC, symSize: 0x28 }
  - { offsetInCU: 0x571A7, offset: 0x571A7, size: 0x8, addend: 0x0, symName: __ZNKSt15__uniq_ptr_implINSt7__cxx1112basic_stringIcSt11char_traitsIcESaIcEEEZN8nlohmann16json_abi_v3_11_310basic_jsonISt3mapSt6vectorS5_bxydSaNS7_14adl_serializerESA_IhSaIhEEvE6createIS5_JRA1_KcEEEPT_DpOT0_EUlPS5_E_E6_M_ptrEv, symObjAddr: 0x1B348, symBinAddr: 0x10001D28C, symSize: 0x20 }
  - { offsetInCU: 0x571D4, offset: 0x571D4, size: 0x8, addend: 0x0, symName: __ZSt4moveIRPNSt7__cxx1112basic_stringIcSt11char_traitsIcESaIcEEEEONSt16remove_referenceIT_E4typeEOS9_, symObjAddr: 0x1B334, symBinAddr: 0x10001D278, symSize: 0x14 }
  - { offsetInCU: 0x5720A, offset: 0x5720A, size: 0x8, addend: 0x0, symName: __ZNSt10unique_ptrINSt7__cxx1112basic_stringIcSt11char_traitsIcESaIcEEEZN8nlohmann16json_abi_v3_11_310basic_jsonISt3mapSt6vectorS5_bxydSaNS7_14adl_serializerESA_IhSaIhEEvE6createIS5_JRA1_KcEEEPT_DpOT0_EUlPS5_E_E11get_deleterEv, symObjAddr: 0x1B318, symBinAddr: 0x10001D25C, symSize: 0x1C }
  - { offsetInCU: 0x57234, offset: 0x57234, size: 0x8, addend: 0x0, symName: __ZNSt15__uniq_ptr_implINSt7__cxx1112basic_stringIcSt11char_traitsIcESaIcEEEZN8nlohmann16json_abi_v3_11_310basic_jsonISt3mapSt6vectorS5_bxydSaNS7_14adl_serializerESA_IhSaIhEEvE6createIS5_JRA1_KcEEEPT_DpOT0_EUlPS5_E_E6_M_ptrEv, symObjAddr: 0x1B2FC, symBinAddr: 0x10001D240, symSize: 0x1C }
  - { offsetInCU: 0x57380, offset: 0x57380, size: 0x8, addend: 0x0, symName: __ZNSt15__uniq_ptr_implINSt7__cxx1112basic_stringIcSt11char_traitsIcESaIcEEEZN8nlohmann16json_abi_v3_11_310basic_jsonISt3mapSt6vectorS5_bxydSaNS7_14adl_serializerESA_IhSaIhEEvE6createIS5_JRA1_KcEEEPT_DpOT0_EUlPS5_E_EC2IRKSP_EESO_OSJ_, symObjAddr: 0x1B2B0, symBinAddr: 0x10001D1F4, symSize: 0x4C }
  - { offsetInCU: 0x572DC, offset: 0x572DC, size: 0x8, addend: 0x0, symName: __ZNSt15__new_allocatorINSt7__cxx1112basic_stringIcSt11char_traitsIcESaIcEEEE8allocateEmPKv, symObjAddr: 0x1B234, symBinAddr: 0x10001D178, symSize: 0x7C }
  - { offsetInCU: 0x57368, offset: 0x57368, size: 0x8, addend: 0x0, symName: __ZNSt15__uniq_ptr_implISt6vectorIN8nlohmann16json_abi_v3_11_310basic_jsonISt3mapS0_NSt7__cxx1112basic_stringIcSt11char_traitsIcESaIcEEEbxydSaNS2_14adl_serializerES0_IhSaIhEEvEESaISE_EEZNSE_6createISG_JEEEPT_DpOT0_EUlPSG_E_E7releaseEv, symObjAddr: 0x1B200, symBinAddr: 0x10001D144, symSize: 0x34 }
  - { offsetInCU: 0x573A2, offset: 0x573A2, size: 0x8, addend: 0x0, symName: __ZNKSt10unique_ptrISt6vectorIN8nlohmann16json_abi_v3_11_310basic_jsonISt3mapS0_NSt7__cxx1112basic_stringIcSt11char_traitsIcESaIcEEEbxydSaNS2_14adl_serializerES0_IhSaIhEEvEESaISE_EEZNSE_6createISG_JEEEPT_DpOT0_EUlPSG_E_EcvbEv, symObjAddr: 0x1B1D8, symBinAddr: 0x10001D11C, symSize: 0x28 }
  - { offsetInCU: 0x57402, offset: 0x57402, size: 0x8, addend: 0x0, symName: __ZNKSt15__uniq_ptr_implISt6vectorIN8nlohmann16json_abi_v3_11_310basic_jsonISt3mapS0_NSt7__cxx1112basic_stringIcSt11char_traitsIcESaIcEEEbxydSaNS2_14adl_serializerES0_IhSaIhEEvEESaISE_EEZNSE_6createISG_JEEEPT_DpOT0_EUlPSG_E_E6_M_ptrEv, symObjAddr: 0x1B1B8, symBinAddr: 0x10001D0FC, symSize: 0x20 }
  - { offsetInCU: 0x5742C, offset: 0x5742C, size: 0x8, addend: 0x0, symName: __ZNSt10unique_ptrISt6vectorIN8nlohmann16json_abi_v3_11_310basic_jsonISt3mapS0_NSt7__cxx1112basic_stringIcSt11char_traitsIcESaIcEEEbxydSaNS2_14adl_serializerES0_IhSaIhEEvEESaISE_EEZNSE_6createISG_JEEEPT_DpOT0_EUlPSG_E_E11get_deleterEv, symObjAddr: 0x1B19C, symBinAddr: 0x10001D0E0, symSize: 0x1C }
  - { offsetInCU: 0x57456, offset: 0x57456, size: 0x8, addend: 0x0, symName: __ZNSt15__uniq_ptr_implISt6vectorIN8nlohmann16json_abi_v3_11_310basic_jsonISt3mapS0_NSt7__cxx1112basic_stringIcSt11char_traitsIcESaIcEEEbxydSaNS2_14adl_serializerES0_IhSaIhEEvEESaISE_EEZNSE_6createISG_JEEEPT_DpOT0_EUlPSG_E_E6_M_ptrEv, symObjAddr: 0x1B180, symBinAddr: 0x10001D0C4, symSize: 0x1C }
  - { offsetInCU: 0x575AA, offset: 0x575AA, size: 0x8, addend: 0x0, symName: __ZNSt15__uniq_ptr_implISt6vectorIN8nlohmann16json_abi_v3_11_310basic_jsonISt3mapS0_NSt7__cxx1112basic_stringIcSt11char_traitsIcESaIcEEEbxydSaNS2_14adl_serializerES0_IhSaIhEEvEESaISE_EEZNSE_6createISG_JEEEPT_DpOT0_EUlPSG_E_EC2IRKSO_EESN_OSI_, symObjAddr: 0x1B134, symBinAddr: 0x10001D078, symSize: 0x4C }
  - { offsetInCU: 0x574FA, offset: 0x574FA, size: 0x8, addend: 0x0, symName: __ZN8nlohmann16json_abi_v3_11_36detail11concat_intoINSt7__cxx1112basic_stringIcSt11char_traitsIcESaIcEEES8_JRKS8_ELi0EEEvRT_OT0_DpOT1_, symObjAddr: 0x1B0EC, symBinAddr: 0x10001D030, symSize: 0x48 }
  - { offsetInCU: 0x57562, offset: 0x57562, size: 0x8, addend: 0x0, symName: __ZN8nlohmann16json_abi_v3_11_36detail13concat_lengthINSt7__cxx1112basic_stringIcSt11char_traitsIcESaIcEEEJS8_EEEmRKT_DpRKT0_, symObjAddr: 0x1B0B4, symBinAddr: 0x10001CFF8, symSize: 0x38 }
  - { offsetInCU: 0x575B0, offset: 0x575B0, size: 0x8, addend: 0x0, symName: __ZN8nlohmann16json_abi_v3_11_36detail11concat_intoINSt7__cxx1112basic_stringIcSt11char_traitsIcESaIcEEEEEvRT_, symObjAddr: 0x1B0A0, symBinAddr: 0x10001CFE4, symSize: 0x14 }
  - { offsetInCU: 0x575DB, offset: 0x575DB, size: 0x8, addend: 0x0, symName: __ZN8nlohmann16json_abi_v3_11_36detail20external_constructorILNS1_7value_tE5EE9constructINS0_10basic_jsonISt3mapSt6vectorNSt7__cxx1112basic_stringIcSt11char_traitsIcESaIcEEEbxydSaNS0_14adl_serializerES8_IhSaIhEEvEEEEvRT_NSJ_16number_integer_tE, symObjAddr: 0x1B038, symBinAddr: 0x10001CF7C, symSize: 0x68 }
  - { offsetInCU: 0x57763, offset: 0x57763, size: 0x8, addend: 0x0, symName: __ZNSt8_Rb_treeINSt7__cxx1112basic_stringIcSt11char_traitsIcESaIcEEESt4pairIKS5_N8nlohmann16json_abi_v3_11_310basic_jsonISt3mapSt6vectorS5_bxydSaNS9_14adl_serializerESC_IhSaIhEEvEEESt10_Select1stISH_ESt4lessIvESaISH_EE10_Auto_nodeC1IJS5_DnEEERSN_DpOT_, symObjAddr: 0x1AFD0, symBinAddr: 0x10001CF14, symSize: 0x68 }
  - { offsetInCU: 0x576C4, offset: 0x576C4, size: 0x8, addend: 0x0, symName: __ZNSt8_Rb_treeINSt7__cxx1112basic_stringIcSt11char_traitsIcESaIcEEESt4pairIKS5_N8nlohmann16json_abi_v3_11_310basic_jsonISt3mapSt6vectorS5_bxydSaNS9_14adl_serializerESC_IhSaIhEEvEEESt10_Select1stISH_ESt4lessIvESaISH_EE22_M_emplace_hint_uniqueIJS5_DnEEESt17_Rb_tree_iteratorISH_ESt23_Rb_tree_const_iteratorISH_EDpOT_, symObjAddr: 0x1AF0C, symBinAddr: 0x10001CE50, symSize: 0xC4 }
  - { offsetInCU: 0x5774C, offset: 0x5774C, size: 0x8, addend: 0x0, symName: __ZNSt15__uniq_ptr_implISt3mapINSt7__cxx1112basic_stringIcSt11char_traitsIcESaIcEEEN8nlohmann16json_abi_v3_11_310basic_jsonIS0_St6vectorS6_bxydSaNS8_14adl_serializerESA_IhSaIhEEvEESt4lessIvESaISt4pairIKS6_SE_EEEZNSE_6createISL_JEEEPT_DpOT0_EUlPSL_E_E7releaseEv, symObjAddr: 0x1AED8, symBinAddr: 0x10001CE1C, symSize: 0x34 }
  - { offsetInCU: 0x57786, offset: 0x57786, size: 0x8, addend: 0x0, symName: __ZNKSt10unique_ptrISt3mapINSt7__cxx1112basic_stringIcSt11char_traitsIcESaIcEEEN8nlohmann16json_abi_v3_11_310basic_jsonIS0_St6vectorS6_bxydSaNS8_14adl_serializerESA_IhSaIhEEvEESt4lessIvESaISt4pairIKS6_SE_EEEZNSE_6createISL_JEEEPT_DpOT0_EUlPSL_E_EcvbEv, symObjAddr: 0x1AEB0, symBinAddr: 0x10001CDF4, symSize: 0x28 }
  - { offsetInCU: 0x578BE, offset: 0x578BE, size: 0x8, addend: 0x0, symName: __ZNSt3mapINSt7__cxx1112basic_stringIcSt11char_traitsIcESaIcEEEN8nlohmann16json_abi_v3_11_310basic_jsonIS_St6vectorS5_bxydSaNS7_14adl_serializerES9_IhSaIhEEvEESt4lessIvESaISt4pairIKS5_SD_EEEC1Ev, symObjAddr: 0x1AE90, symBinAddr: 0x10001CDD4, symSize: 0x20 }
  - { offsetInCU: 0x5791A, offset: 0x5791A, size: 0x8, addend: 0x0, symName: __ZNSt8_Rb_treeINSt7__cxx1112basic_stringIcSt11char_traitsIcESaIcEEESt4pairIKS5_N8nlohmann16json_abi_v3_11_310basic_jsonISt3mapSt6vectorS5_bxydSaNS9_14adl_serializerESC_IhSaIhEEvEEESt10_Select1stISH_ESt4lessIvESaISH_EEC1Ev, symObjAddr: 0x1AE70, symBinAddr: 0x10001CDB4, symSize: 0x20 }
  - { offsetInCU: 0x57980, offset: 0x57980, size: 0x8, addend: 0x0, symName: __ZNSt8_Rb_treeINSt7__cxx1112basic_stringIcSt11char_traitsIcESaIcEEESt4pairIKS5_N8nlohmann16json_abi_v3_11_310basic_jsonISt3mapSt6vectorS5_bxydSaNS9_14adl_serializerESC_IhSaIhEEvEEESt10_Select1stISH_ESt4lessIvESaISH_EE13_Rb_tree_implISL_Lb1EED1Ev, symObjAddr: 0x1AE44, symBinAddr: 0x10001CD88, symSize: 0x2C }
  - { offsetInCU: 0x578D8, offset: 0x578D8, size: 0x8, addend: 0x0, symName: __ZNKSt15__uniq_ptr_implISt3mapINSt7__cxx1112basic_stringIcSt11char_traitsIcESaIcEEEN8nlohmann16json_abi_v3_11_310basic_jsonIS0_St6vectorS6_bxydSaNS8_14adl_serializerESA_IhSaIhEEvEESt4lessIvESaISt4pairIKS6_SE_EEEZNSE_6createISL_JEEEPT_DpOT0_EUlPSL_E_E6_M_ptrEv, symObjAddr: 0x1AE24, symBinAddr: 0x10001CD68, symSize: 0x20 }
  - { offsetInCU: 0x57905, offset: 0x57905, size: 0x8, addend: 0x0, symName: __ZSt4moveIRPSt3mapINSt7__cxx1112basic_stringIcSt11char_traitsIcESaIcEEEN8nlohmann16json_abi_v3_11_310basic_jsonIS0_St6vectorS6_bxydSaNS8_14adl_serializerESA_IhSaIhEEvEESt4lessIvESaISt4pairIKS6_SE_EEEEONSt16remove_referenceIT_E4typeEOSP_, symObjAddr: 0x1AE10, symBinAddr: 0x10001CD54, symSize: 0x14 }
  - { offsetInCU: 0x5793B, offset: 0x5793B, size: 0x8, addend: 0x0, symName: __ZNSt10unique_ptrISt3mapINSt7__cxx1112basic_stringIcSt11char_traitsIcESaIcEEEN8nlohmann16json_abi_v3_11_310basic_jsonIS0_St6vectorS6_bxydSaNS8_14adl_serializerESA_IhSaIhEEvEESt4lessIvESaISt4pairIKS6_SE_EEEZNSE_6createISL_JEEEPT_DpOT0_EUlPSL_E_E11get_deleterEv, symObjAddr: 0x1ADF4, symBinAddr: 0x10001CD38, symSize: 0x1C }
  - { offsetInCU: 0x57965, offset: 0x57965, size: 0x8, addend: 0x0, symName: __ZNSt15__uniq_ptr_implISt3mapINSt7__cxx1112basic_stringIcSt11char_traitsIcESaIcEEEN8nlohmann16json_abi_v3_11_310basic_jsonIS0_St6vectorS6_bxydSaNS8_14adl_serializerESA_IhSaIhEEvEESt4lessIvESaISt4pairIKS6_SE_EEEZNSE_6createISL_JEEEPT_DpOT0_EUlPSL_E_E6_M_ptrEv, symObjAddr: 0x1ADD8, symBinAddr: 0x10001CD1C, symSize: 0x1C }
  - { offsetInCU: 0x57AD3, offset: 0x57AD3, size: 0x8, addend: 0x0, symName: __ZNSt15__uniq_ptr_implISt3mapINSt7__cxx1112basic_stringIcSt11char_traitsIcESaIcEEEN8nlohmann16json_abi_v3_11_310basic_jsonIS0_St6vectorS6_bxydSaNS8_14adl_serializerESA_IhSaIhEEvEESt4lessIvESaISt4pairIKS6_SE_EEEZNSE_6createISL_JEEEPT_DpOT0_EUlPSL_E_EC2IRKST_EESS_OSN_, symObjAddr: 0x1AD8C, symBinAddr: 0x10001CCD0, symSize: 0x4C }
  - { offsetInCU: 0x57A0D, offset: 0x57A0D, size: 0x8, addend: 0x0, symName: __ZNSt15__new_allocatorISt3mapINSt7__cxx1112basic_stringIcSt11char_traitsIcESaIcEEEN8nlohmann16json_abi_v3_11_310basic_jsonIS0_St6vectorS6_bxydSaNS8_14adl_serializerESA_IhSaIhEEvEESt4lessIvESaISt4pairIKS6_SE_EEEE8allocateEmPKv, symObjAddr: 0x1ACFC, symBinAddr: 0x10001CC40, symSize: 0x90 }
  - { offsetInCU: 0x57A95, offset: 0x57A95, size: 0x8, addend: 0x0, symName: __ZSt14__relocate_a_1IiiENSt9enable_ifIXsrSt24__is_bitwise_relocatableIT_vE5valueEPS2_E4typeES4_S4_S4_RSaIT0_E, symObjAddr: 0x1AC98, symBinAddr: 0x10001CBDC, symSize: 0x64 }
  - { offsetInCU: 0x57B15, offset: 0x57B15, size: 0x8, addend: 0x0, symName: __ZSt12__niter_baseIPiET_S1_, symObjAddr: 0x1AC84, symBinAddr: 0x10001CBC8, symSize: 0x14 }
  - { offsetInCU: 0x57B4C, offset: 0x57B4C, size: 0x8, addend: 0x0, symName: __ZNKSt12_Vector_baseIiSaIiEE19_M_get_Tp_allocatorEv, symObjAddr: 0x1AC70, symBinAddr: 0x10001CBB4, symSize: 0x14 }
  - { offsetInCU: 0x57B72, offset: 0x57B72, size: 0x8, addend: 0x0, symName: __ZSt16__do_uninit_copyIPSt6vectorIiSaIiEES3_ET0_T_S5_S4_, symObjAddr: 0x1ABDC, symBinAddr: 0x10001CB20, symSize: 0x94 }
  - { offsetInCU: 0x57BDD, offset: 0x57BDD, size: 0x8, addend: 0x0, symName: __ZSt14__copy_move_a2ILb0EPSt6vectorIiSaIiEES3_ET1_T0_S5_S4_, symObjAddr: 0x1ABB0, symBinAddr: 0x10001CAF4, symSize: 0x2C }
  - { offsetInCU: 0x57C49, offset: 0x57C49, size: 0x8, addend: 0x0, symName: __ZN9__gnu_cxx17__normal_iteratorIPSt6vectorIiSaIiEES1_IS3_SaIS3_EEEppEv, symObjAddr: 0x1AB88, symBinAddr: 0x10001CACC, symSize: 0x28 }
  - { offsetInCU: 0x57C75, offset: 0x57C75, size: 0x8, addend: 0x0, symName: __ZN9__gnu_cxxneIPSt6vectorIiSaIiEES1_IS3_SaIS3_EEEEbRKNS_17__normal_iteratorIT_T0_EESC_, symObjAddr: 0x1AB44, symBinAddr: 0x10001CA88, symSize: 0x44 }
  - { offsetInCU: 0x57CC6, offset: 0x57CC6, size: 0x8, addend: 0x0, symName: __ZNK9__gnu_cxx17__normal_iteratorIPSt6vectorIiSaIiEES1_IS3_SaIS3_EEEplEl, symObjAddr: 0x1AAF8, symBinAddr: 0x10001CA3C, symSize: 0x4C }
  - { offsetInCU: 0x57CFD, offset: 0x57CFD, size: 0x8, addend: 0x0, symName: __ZSt14__copy_move_a2ILb0EPKSt6vectorIiSaIiEEPS2_ET1_T0_S7_S6_, symObjAddr: 0x1AACC, symBinAddr: 0x10001CA10, symSize: 0x2C }
  - { offsetInCU: 0x57D69, offset: 0x57D69, size: 0x8, addend: 0x0, symName: __ZNK9__gnu_cxx17__normal_iteratorIPSt6vectorIiSaIiEES1_IS3_SaIS3_EEE4baseEv, symObjAddr: 0x1AAB8, symBinAddr: 0x10001C9FC, symSize: 0x14 }
  - { offsetInCU: 0x57D93, offset: 0x57D93, size: 0x8, addend: 0x0, symName: __ZNK9__gnu_cxx17__normal_iteratorIPKSt6vectorIiSaIiEES1_IS3_SaIS3_EEE4baseEv, symObjAddr: 0x1AAA4, symBinAddr: 0x10001C9E8, symSize: 0x14 }
  - { offsetInCU: 0x57DB9, offset: 0x57DB9, size: 0x8, addend: 0x0, symName: __ZNSt20__uninitialized_copyILb0EE13__uninit_copyIN9__gnu_cxx17__normal_iteratorIPKSt6vectorIiSaIiEES4_IS6_SaIS6_EEEEPS6_EET0_T_SE_SD_, symObjAddr: 0x1AA78, symBinAddr: 0x10001C9BC, symSize: 0x2C }
  - { offsetInCU: 0x57E18, offset: 0x57E18, size: 0x8, addend: 0x0, symName: __ZNSt15__new_allocatorISt6vectorIiSaIiEEE8allocateEmPKv, symObjAddr: 0x1A9E8, symBinAddr: 0x10001C92C, symSize: 0x90 }
  - { offsetInCU: 0x57EA4, offset: 0x57EA4, size: 0x8, addend: 0x0, symName: __ZNKSt10_Select1stISt4pairIKiSt6vectorIS2_IiSaIiEESaIS4_EEEEclERKS7_, symObjAddr: 0x1A9D0, symBinAddr: 0x10001C914, symSize: 0x18 }
  - { offsetInCU: 0x57EDF, offset: 0x57EDF, size: 0x8, addend: 0x0, symName: __ZNKSt13_Rb_tree_nodeISt4pairIKiSt6vectorIS2_IiSaIiEESaIS4_EEEE9_M_valptrEv, symObjAddr: 0x1A9B0, symBinAddr: 0x10001C8F4, symSize: 0x20 }
  - { offsetInCU: 0x57F0B, offset: 0x57F0B, size: 0x8, addend: 0x0, symName: __ZSt7forwardIRPSt18_Rb_tree_node_baseEOT_RNSt16remove_referenceIS3_E4typeE, symObjAddr: 0x1A99C, symBinAddr: 0x10001C8E0, symSize: 0x14 }
  - { offsetInCU: 0x57FF8, offset: 0x57FF8, size: 0x8, addend: 0x0, symName: __ZNSt4pairIPSt18_Rb_tree_node_baseS1_EC1IRPSt13_Rb_tree_nodeIS_IKiSt6vectorIS6_IiSaIiEESaIS8_EEEERS1_Lb1EEEOT_OT0_, symObjAddr: 0x1A954, symBinAddr: 0x10001C898, symSize: 0x48 }
  - { offsetInCU: 0x57FD3, offset: 0x57FD3, size: 0x8, addend: 0x0, symName: __ZNSt8_Rb_treeIiSt4pairIKiSt6vectorIS2_IiSaIiEESaIS4_EEESt10_Select1stIS7_ESt4lessIiESaIS7_EE5beginEv, symObjAddr: 0x1A92C, symBinAddr: 0x10001C870, symSize: 0x28 }
  - { offsetInCU: 0x57FFD, offset: 0x57FFD, size: 0x8, addend: 0x0, symName: __ZNSt8_Rb_treeIiSt4pairIKiSt6vectorIS2_IiSaIiEESaIS4_EEESt10_Select1stIS7_ESt4lessIiESaIS7_EE17_M_construct_nodeIJRKSt21piecewise_construct_tSt5tupleIJRS1_EESI_IJEEEEEvPSt13_Rb_tree_nodeIS7_EDpOT_, symObjAddr: 0x1A7B0, symBinAddr: 0x10001C6F4, symSize: 0x17C }
  - { offsetInCU: 0x580FE, offset: 0x580FE, size: 0x8, addend: 0x0, symName: __ZNSt8_Rb_treeIiSt4pairIKiSt6vectorIS2_IiSaIiEESaIS4_EEESt10_Select1stIS7_ESt4lessIiESaIS7_EE11_M_get_nodeEv, symObjAddr: 0x1A774, symBinAddr: 0x10001C6B8, symSize: 0x3C }
  - { offsetInCU: 0x5815A, offset: 0x5815A, size: 0x8, addend: 0x0, symName: __ZN9__gnu_cxx16__aligned_membufISt4pairIKiSt6vectorIS3_IiSaIiEESaIS5_EEEE7_M_addrEv, symObjAddr: 0x1A760, symBinAddr: 0x10001C6A4, symSize: 0x14 }
  - { offsetInCU: 0x5817F, offset: 0x5817F, size: 0x8, addend: 0x0, symName: __ZSt8_DestroyISt6vectorIiSaIiEEEvPT_, symObjAddr: 0x1A740, symBinAddr: 0x10001C684, symSize: 0x20 }
  - { offsetInCU: 0x581B1, offset: 0x581B1, size: 0x8, addend: 0x0, symName: __ZSt11__addressofISt6vectorIiSaIiEEEPT_RS3_, symObjAddr: 0x1A72C, symBinAddr: 0x10001C670, symSize: 0x14 }
  - { offsetInCU: 0x581E3, offset: 0x581E3, size: 0x8, addend: 0x0, symName: __ZNSt22__uninitialized_fill_nILb0EE15__uninit_fill_nIPSt6vectorIiSaIiEEmS4_EET_S6_T0_RKT1_, symObjAddr: 0x1A700, symBinAddr: 0x10001C644, symSize: 0x2C }
  - { offsetInCU: 0x58260, offset: 0x58260, size: 0x8, addend: 0x0, symName: __ZNSt27__uninitialized_default_n_1ILb1EE18__uninit_default_nIPimEET_S3_T0_, symObjAddr: 0x1A69C, symBinAddr: 0x10001C5E0, symSize: 0x64 }
  - { offsetInCU: 0x58351, offset: 0x58351, size: 0x8, addend: 0x0, symName: __ZNSt8_Rb_treeIiSt4pairIKiSt6vectorIS2_IiSaIiEESaIS4_EEESt10_Select1stIS7_ESt4lessIiESaIS7_EE21_M_get_Node_allocatorEv, symObjAddr: 0x1A688, symBinAddr: 0x10001C5CC, symSize: 0x14 }
  - { offsetInCU: 0x5837B, offset: 0x5837B, size: 0x8, addend: 0x0, symName: __ZNSt15__uniq_ptr_implISt6vectorIN8nlohmann16json_abi_v3_11_310basic_jsonISt3mapS0_NSt7__cxx1112basic_stringIcSt11char_traitsIcESaIcEEEbxydSaNS2_14adl_serializerES0_IhSaIhEEvEESaISE_EEZNSE_6createISG_JPKNS2_6detail8json_refISE_EESM_EEEPT_DpOT0_EUlPSG_E_E7releaseEv, symObjAddr: 0x1A654, symBinAddr: 0x10001C598, symSize: 0x34 }
  - { offsetInCU: 0x583B5, offset: 0x583B5, size: 0x8, addend: 0x0, symName: __ZNKSt10unique_ptrISt6vectorIN8nlohmann16json_abi_v3_11_310basic_jsonISt3mapS0_NSt7__cxx1112basic_stringIcSt11char_traitsIcESaIcEEEbxydSaNS2_14adl_serializerES0_IhSaIhEEvEESaISE_EEZNSE_6createISG_JPKNS2_6detail8json_refISE_EESM_EEEPT_DpOT0_EUlPSG_E_EcvbEv, symObjAddr: 0x1A62C, symBinAddr: 0x10001C570, symSize: 0x28 }
  - { offsetInCU: 0x58448, offset: 0x58448, size: 0x8, addend: 0x0, symName: __ZNKSt15__uniq_ptr_implISt6vectorIN8nlohmann16json_abi_v3_11_310basic_jsonISt3mapS0_NSt7__cxx1112basic_stringIcSt11char_traitsIcESaIcEEEbxydSaNS2_14adl_serializerES0_IhSaIhEEvEESaISE_EEZNSE_6createISG_JPKNS2_6detail8json_refISE_EESM_EEEPT_DpOT0_EUlPSG_E_E6_M_ptrEv, symObjAddr: 0x1A60C, symBinAddr: 0x10001C550, symSize: 0x20 }
  - { offsetInCU: 0x58475, offset: 0x58475, size: 0x8, addend: 0x0, symName: __ZSt4moveIRPSt6vectorIN8nlohmann16json_abi_v3_11_310basic_jsonISt3mapS0_NSt7__cxx1112basic_stringIcSt11char_traitsIcESaIcEEEbxydSaNS2_14adl_serializerES0_IhSaIhEEvEESaISE_EEEONSt16remove_referenceIT_E4typeEOSK_, symObjAddr: 0x1A5F8, symBinAddr: 0x10001C53C, symSize: 0x14 }
  - { offsetInCU: 0x584AB, offset: 0x584AB, size: 0x8, addend: 0x0, symName: __ZNSt10unique_ptrISt6vectorIN8nlohmann16json_abi_v3_11_310basic_jsonISt3mapS0_NSt7__cxx1112basic_stringIcSt11char_traitsIcESaIcEEEbxydSaNS2_14adl_serializerES0_IhSaIhEEvEESaISE_EEZNSE_6createISG_JPKNS2_6detail8json_refISE_EESM_EEEPT_DpOT0_EUlPSG_E_E11get_deleterEv, symObjAddr: 0x1A5DC, symBinAddr: 0x10001C520, symSize: 0x1C }
  - { offsetInCU: 0x584D5, offset: 0x584D5, size: 0x8, addend: 0x0, symName: __ZNSt15__uniq_ptr_implISt6vectorIN8nlohmann16json_abi_v3_11_310basic_jsonISt3mapS0_NSt7__cxx1112basic_stringIcSt11char_traitsIcESaIcEEEbxydSaNS2_14adl_serializerES0_IhSaIhEEvEESaISE_EEZNSE_6createISG_JPKNS2_6detail8json_refISE_EESM_EEEPT_DpOT0_EUlPSG_E_E6_M_ptrEv, symObjAddr: 0x1A5C0, symBinAddr: 0x10001C504, symSize: 0x1C }
  - { offsetInCU: 0x58648, offset: 0x58648, size: 0x8, addend: 0x0, symName: __ZNSt15__uniq_ptr_implISt6vectorIN8nlohmann16json_abi_v3_11_310basic_jsonISt3mapS0_NSt7__cxx1112basic_stringIcSt11char_traitsIcESaIcEEEbxydSaNS2_14adl_serializerES0_IhSaIhEEvEESaISE_EEZNSE_6createISG_JPKNS2_6detail8json_refISE_EESM_EEEPT_DpOT0_EUlPSG_E_EC2IRKST_EESS_OSN_, symObjAddr: 0x1A574, symBinAddr: 0x10001C4B8, symSize: 0x4C }
  - { offsetInCU: 0x5857D, offset: 0x5857D, size: 0x8, addend: 0x0, symName: __ZNSt15__new_allocatorISt6vectorIN8nlohmann16json_abi_v3_11_310basic_jsonISt3mapS0_NSt7__cxx1112basic_stringIcSt11char_traitsIcESaIcEEEbxydSaNS2_14adl_serializerES0_IhSaIhEEvEESaISE_EEE8allocateEmPKv, symObjAddr: 0x1A4E4, symBinAddr: 0x10001C428, symSize: 0x90 }
  - { offsetInCU: 0x58609, offset: 0x58609, size: 0x8, addend: 0x0, symName: __ZNSt8_Rb_treeINSt7__cxx1112basic_stringIcSt11char_traitsIcESaIcEEESt4pairIKS5_N8nlohmann16json_abi_v3_11_310basic_jsonISt3mapSt6vectorS5_bxydSaNS9_14adl_serializerESC_IhSaIhEEvEEESt10_Select1stISH_ESt4lessIvESaISH_EE10_Auto_node9_M_insertES6_IPSt18_Rb_tree_node_baseSQ_E, symObjAddr: 0x1A498, symBinAddr: 0x10001C3DC, symSize: 0x4C }
  - { offsetInCU: 0x58655, offset: 0x58655, size: 0x8, addend: 0x0, symName: __ZNKSt8_Rb_treeINSt7__cxx1112basic_stringIcSt11char_traitsIcESaIcEEESt4pairIKS5_N8nlohmann16json_abi_v3_11_310basic_jsonISt3mapSt6vectorS5_bxydSaNS9_14adl_serializerESC_IhSaIhEEvEEESt10_Select1stISH_ESt4lessIvESaISH_EE10_Auto_node6_M_keyEv, symObjAddr: 0x1A478, symBinAddr: 0x10001C3BC, symSize: 0x20 }
  - { offsetInCU: 0x5867F, offset: 0x5867F, size: 0x8, addend: 0x0, symName: __ZNSt8_Rb_treeINSt7__cxx1112basic_stringIcSt11char_traitsIcESaIcEEESt4pairIKS5_N8nlohmann16json_abi_v3_11_310basic_jsonISt3mapSt6vectorS5_bxydSaNS9_14adl_serializerESC_IhSaIhEEvEEESt10_Select1stISH_ESt4lessIvESaISH_EE24_M_get_insert_unique_posERS7_, symObjAddr: 0x1A320, symBinAddr: 0x10001C264, symSize: 0x158 }
  - { offsetInCU: 0x5880D, offset: 0x5880D, size: 0x8, addend: 0x0, symName: __ZNSt8_Rb_treeINSt7__cxx1112basic_stringIcSt11char_traitsIcESaIcEEESt4pairIKS5_N8nlohmann16json_abi_v3_11_310basic_jsonISt3mapSt6vectorS5_bxydSaNS9_14adl_serializerESC_IhSaIhEEvEEESt10_Select1stISH_ESt4lessIvESaISH_EE10_Auto_nodeD1Ev, symObjAddr: 0x1A2DC, symBinAddr: 0x10001C220, symSize: 0x44 }
  - { offsetInCU: 0x5888E, offset: 0x5888E, size: 0x8, addend: 0x0, symName: __ZNSt8_Rb_treeINSt7__cxx1112basic_stringIcSt11char_traitsIcESaIcEEESt4pairIKS5_N8nlohmann16json_abi_v3_11_310basic_jsonISt3mapSt6vectorS5_bxydSaNS9_14adl_serializerESC_IhSaIhEEvEEESt10_Select1stISH_ESt4lessIvESaISH_EE10_Auto_nodeC1IJS5_SG_EEERSN_DpOT_, symObjAddr: 0x1A274, symBinAddr: 0x10001C1B8, symSize: 0x68 }
  - { offsetInCU: 0x587F0, offset: 0x587F0, size: 0x8, addend: 0x0, symName: __ZSt7forwardIRSt17_Rb_tree_iteratorISt4pairIKNSt7__cxx1112basic_stringIcSt11char_traitsIcESaIcEEEN8nlohmann16json_abi_v3_11_310basic_jsonISt3mapSt6vectorS7_bxydSaNSA_14adl_serializerESD_IhSaIhEEvEEEEEOT_RNSt16remove_referenceISL_E4typeE, symObjAddr: 0x1A260, symBinAddr: 0x10001C1A4, symSize: 0x14 }
  - { offsetInCU: 0x58826, offset: 0x58826, size: 0x8, addend: 0x0, symName: __ZNSt8_Rb_treeINSt7__cxx1112basic_stringIcSt11char_traitsIcESaIcEEESt4pairIKS5_N8nlohmann16json_abi_v3_11_310basic_jsonISt3mapSt6vectorS5_bxydSaNS9_14adl_serializerESC_IhSaIhEEvEEESt10_Select1stISH_ESt4lessIvESaISH_EE22_M_emplace_hint_uniqueIJS5_SG_EEESt17_Rb_tree_iteratorISH_ESt23_Rb_tree_const_iteratorISH_EDpOT_, symObjAddr: 0x1A19C, symBinAddr: 0x10001C0E0, symSize: 0xC4 }
  - { offsetInCU: 0x588AA, offset: 0x588AA, size: 0x8, addend: 0x0, symName: __ZStltIcSt11char_traitsIcESaIcEEbRKNSt7__cxx1112basic_stringIT_T0_T1_EESA_, symObjAddr: 0x1A170, symBinAddr: 0x10001C0B4, symSize: 0x2C }
  - { offsetInCU: 0x58904, offset: 0x58904, size: 0x8, addend: 0x0, symName: __ZNKSt8_Rb_treeINSt7__cxx1112basic_stringIcSt11char_traitsIcESaIcEEESt4pairIKS5_N8nlohmann16json_abi_v3_11_310basic_jsonISt3mapSt6vectorS5_bxydSaNS9_14adl_serializerESC_IhSaIhEEvEEESt10_Select1stISH_ESt4lessIvESaISH_EE8key_compEv, symObjAddr: 0x1A158, symBinAddr: 0x10001C09C, symSize: 0x18 }
  - { offsetInCU: 0x5892E, offset: 0x5892E, size: 0x8, addend: 0x0, symName: __ZNSt8_Rb_treeINSt7__cxx1112basic_stringIcSt11char_traitsIcESaIcEEESt4pairIKS5_N8nlohmann16json_abi_v3_11_310basic_jsonISt3mapSt6vectorS5_bxydSaNS9_14adl_serializerESC_IhSaIhEEvEEESt10_Select1stISH_ESt4lessIvESaISH_EE11lower_boundERS7_, symObjAddr: 0x1A110, symBinAddr: 0x10001C054, symSize: 0x48 }
  - { offsetInCU: 0x58A5C, offset: 0x58A5C, size: 0x8, addend: 0x0, symName: __ZN8nlohmann16json_abi_v3_11_310basic_jsonISt3mapSt6vectorNSt7__cxx1112basic_stringIcSt11char_traitsIcESaIcEEEbxydSaNS0_14adl_serializerES3_IhSaIhEEvE10json_valueC1ERKNS0_27byte_container_with_subtypeISC_EE, symObjAddr: 0x1A0E0, symBinAddr: 0x10001C024, symSize: 0x30 }
  - { offsetInCU: 0x58A8B, offset: 0x58A8B, size: 0x8, addend: 0x0, symName: __ZN8nlohmann16json_abi_v3_11_310basic_jsonISt3mapSt6vectorNSt7__cxx1112basic_stringIcSt11char_traitsIcESaIcEEEbxydSaNS0_14adl_serializerES3_IhSaIhEEvE10json_valueC1Ed, symObjAddr: 0x1A0BC, symBinAddr: 0x10001C000, symSize: 0x24 }
  - { offsetInCU: 0x58AE2, offset: 0x58AE2, size: 0x8, addend: 0x0, symName: __ZN8nlohmann16json_abi_v3_11_310basic_jsonISt3mapSt6vectorNSt7__cxx1112basic_stringIcSt11char_traitsIcESaIcEEEbxydSaNS0_14adl_serializerES3_IhSaIhEEvE10json_valueC1Ey, symObjAddr: 0x1A098, symBinAddr: 0x10001BFDC, symSize: 0x24 }
  - { offsetInCU: 0x58B39, offset: 0x58B39, size: 0x8, addend: 0x0, symName: __ZN8nlohmann16json_abi_v3_11_310basic_jsonISt3mapSt6vectorNSt7__cxx1112basic_stringIcSt11char_traitsIcESaIcEEEbxydSaNS0_14adl_serializerES3_IhSaIhEEvE10json_valueC1Ex, symObjAddr: 0x1A074, symBinAddr: 0x10001BFB8, symSize: 0x24 }
  - { offsetInCU: 0x58B90, offset: 0x58B90, size: 0x8, addend: 0x0, symName: __ZN8nlohmann16json_abi_v3_11_310basic_jsonISt3mapSt6vectorNSt7__cxx1112basic_stringIcSt11char_traitsIcESaIcEEEbxydSaNS0_14adl_serializerES3_IhSaIhEEvE10json_valueC1Eb, symObjAddr: 0x1A04C, symBinAddr: 0x10001BF90, symSize: 0x28 }
  - { offsetInCU: 0x58BEB, offset: 0x58BEB, size: 0x8, addend: 0x0, symName: __ZN8nlohmann16json_abi_v3_11_310basic_jsonISt3mapSt6vectorNSt7__cxx1112basic_stringIcSt11char_traitsIcESaIcEEEbxydSaNS0_14adl_serializerES3_IhSaIhEEvE10json_valueC1ERKS9_, symObjAddr: 0x1A01C, symBinAddr: 0x10001BF60, symSize: 0x30 }
  - { offsetInCU: 0x58C4E, offset: 0x58C4E, size: 0x8, addend: 0x0, symName: __ZN8nlohmann16json_abi_v3_11_310basic_jsonISt3mapSt6vectorNSt7__cxx1112basic_stringIcSt11char_traitsIcESaIcEEEbxydSaNS0_14adl_serializerES3_IhSaIhEEvE10json_valueC1ERKS3_ISD_SaISD_EE, symObjAddr: 0x19FEC, symBinAddr: 0x10001BF30, symSize: 0x30 }
  - { offsetInCU: 0x58CBF, offset: 0x58CBF, size: 0x8, addend: 0x0, symName: __ZN8nlohmann16json_abi_v3_11_310basic_jsonISt3mapSt6vectorNSt7__cxx1112basic_stringIcSt11char_traitsIcESaIcEEEbxydSaNS0_14adl_serializerES3_IhSaIhEEvE10json_valueC1ERKS2_IS9_SD_St4lessIvESaISt4pairIKS9_SD_EEE, symObjAddr: 0x19FBC, symBinAddr: 0x10001BF00, symSize: 0x30 }
  - { offsetInCU: 0x58C1D, offset: 0x58C1D, size: 0x8, addend: 0x0, symName: __ZSt13__find_if_notIPKN8nlohmann16json_abi_v3_11_36detail8json_refINS1_10basic_jsonISt3mapSt6vectorNSt7__cxx1112basic_stringIcSt11char_traitsIcESaIcEEEbxydSaNS1_14adl_serializerES6_IhSaIhEEvEEEEN9__gnu_cxx5__ops10_Iter_predIZNSG_C4ESt16initializer_listISH_EbNS2_7value_tEEUlRSI_E_EEET_ST_ST_T0_, symObjAddr: 0x19F6C, symBinAddr: 0x10001BEB0, symSize: 0x50 }
  - { offsetInCU: 0x58C98, offset: 0x58C98, size: 0x8, addend: 0x0, symName: __ZN9__gnu_cxx5__ops11__pred_iterIZN8nlohmann16json_abi_v3_11_310basic_jsonISt3mapSt6vectorNSt7__cxx1112basic_stringIcSt11char_traitsIcESaIcEEEbxydSaNS3_14adl_serializerES6_IhSaIhEEvEC4ESt16initializer_listINS3_6detail8json_refISG_EEEbNSI_7value_tEEUlRKSK_E_EENS0_10_Iter_predIT_EESR_, symObjAddr: 0x19F34, symBinAddr: 0x10001BE78, symSize: 0x38 }
  - { offsetInCU: 0x58CD1, offset: 0x58CD1, size: 0x8, addend: 0x0, symName: __ZN8nlohmann16json_abi_v3_11_36detail11concat_intoINSt7__cxx1112basic_stringIcSt11char_traitsIcESaIcEEERA52_KcJPS9_ELi0EEEvRT_OT0_DpOT1_, symObjAddr: 0x19EEC, symBinAddr: 0x10001BE30, symSize: 0x48 }
  - { offsetInCU: 0x58D3F, offset: 0x58D3F, size: 0x8, addend: 0x0, symName: __ZSt7forwardIRA52_KcEOT_RNSt16remove_referenceIS3_E4typeE, symObjAddr: 0x19ED8, symBinAddr: 0x10001BE1C, symSize: 0x14 }
  - { offsetInCU: 0x58D71, offset: 0x58D71, size: 0x8, addend: 0x0, symName: __ZNSt20__uninitialized_copyILb1EE13__uninit_copyIPKiPiEET0_T_S6_S5_, symObjAddr: 0x19EAC, symBinAddr: 0x10001BDF0, symSize: 0x2C }
  - { offsetInCU: 0x58DD0, offset: 0x58DD0, size: 0x8, addend: 0x0, symName: __ZNSt15__new_allocatorIiE8allocateEmPKv, symObjAddr: 0x19E30, symBinAddr: 0x10001BD74, symSize: 0x7C }
  - { offsetInCU: 0x58E9E, offset: 0x58E9E, size: 0x8, addend: 0x0, symName: __ZNSt15__new_allocatorIN8nlohmann16json_abi_v3_11_327byte_container_with_subtypeISt6vectorIhSaIhEEEEE10deallocateEPS6_m, symObjAddr: 0x19DF4, symBinAddr: 0x10001BD38, symSize: 0x3C }
  - { offsetInCU: 0x58F8B, offset: 0x58F8B, size: 0x8, addend: 0x0, symName: __ZN8nlohmann16json_abi_v3_11_327byte_container_with_subtypeISt6vectorIhSaIhEEED1Ev, symObjAddr: 0x19DD4, symBinAddr: 0x10001BD18, symSize: 0x20 }
  - { offsetInCU: 0x58FEC, offset: 0x58FEC, size: 0x8, addend: 0x0, symName: __ZNSt15__new_allocatorIN8nlohmann16json_abi_v3_11_327byte_container_with_subtypeISt6vectorIhSaIhEEEEED2Ev, symObjAddr: 0x19DC0, symBinAddr: 0x10001BD04, symSize: 0x14 }
  - { offsetInCU: 0x58FC2, offset: 0x58FC2, size: 0x8, addend: 0x0, symName: __ZNSt15__new_allocatorINSt7__cxx1112basic_stringIcSt11char_traitsIcESaIcEEEE10deallocateEPS5_m, symObjAddr: 0x19D90, symBinAddr: 0x10001BCD4, symSize: 0x30 }
  - { offsetInCU: 0x5904E, offset: 0x5904E, size: 0x8, addend: 0x0, symName: __ZNSt15__new_allocatorISt6vectorIN8nlohmann16json_abi_v3_11_310basic_jsonISt3mapS0_NSt7__cxx1112basic_stringIcSt11char_traitsIcESaIcEEEbxydSaNS2_14adl_serializerES0_IhSaIhEEvEESaISE_EEE10deallocateEPSG_m, symObjAddr: 0x19D54, symBinAddr: 0x10001BC98, symSize: 0x3C }
  - { offsetInCU: 0x591A2, offset: 0x591A2, size: 0x8, addend: 0x0, symName: __ZNSt15__new_allocatorISt6vectorIN8nlohmann16json_abi_v3_11_310basic_jsonISt3mapS0_NSt7__cxx1112basic_stringIcSt11char_traitsIcESaIcEEEbxydSaNS2_14adl_serializerES0_IhSaIhEEvEESaISE_EEED2Ev, symObjAddr: 0x19D40, symBinAddr: 0x10001BC84, symSize: 0x14 }
  - { offsetInCU: 0x59124, offset: 0x59124, size: 0x8, addend: 0x0, symName: __ZNSt15__new_allocatorISt3mapINSt7__cxx1112basic_stringIcSt11char_traitsIcESaIcEEEN8nlohmann16json_abi_v3_11_310basic_jsonIS0_St6vectorS6_bxydSaNS8_14adl_serializerESA_IhSaIhEEvEESt4lessIvESaISt4pairIKS6_SE_EEEE10deallocateEPSL_m, symObjAddr: 0x19D04, symBinAddr: 0x10001BC48, symSize: 0x3C }
  - { offsetInCU: 0x5927C, offset: 0x5927C, size: 0x8, addend: 0x0, symName: __ZNSt3mapINSt7__cxx1112basic_stringIcSt11char_traitsIcESaIcEEEN8nlohmann16json_abi_v3_11_310basic_jsonIS_St6vectorS5_bxydSaNS7_14adl_serializerES9_IhSaIhEEvEESt4lessIvESaISt4pairIKS5_SD_EEED1Ev, symObjAddr: 0x19CE4, symBinAddr: 0x10001BC28, symSize: 0x20 }
  - { offsetInCU: 0x592DC, offset: 0x592DC, size: 0x8, addend: 0x0, symName: __ZNSt15__new_allocatorISt3mapINSt7__cxx1112basic_stringIcSt11char_traitsIcESaIcEEEN8nlohmann16json_abi_v3_11_310basic_jsonIS0_St6vectorS6_bxydSaNS8_14adl_serializerESA_IhSaIhEEvEESt4lessIvESaISt4pairIKS6_SE_EEEED2Ev, symObjAddr: 0x19CD0, symBinAddr: 0x10001BC14, symSize: 0x14 }
  - { offsetInCU: 0x59244, offset: 0x59244, size: 0x8, addend: 0x0, symName: __ZNSt8_Rb_treeINSt7__cxx1112basic_stringIcSt11char_traitsIcESaIcEEESt4pairIKS5_N8nlohmann16json_abi_v3_11_310basic_jsonISt3mapSt6vectorS5_bxydSaNS9_14adl_serializerESC_IhSaIhEEvEEESt10_Select1stISH_ESt4lessIvESaISH_EE5clearEv, symObjAddr: 0x19C98, symBinAddr: 0x10001BBDC, symSize: 0x38 }
  - { offsetInCU: 0x5926E, offset: 0x5926E, size: 0x8, addend: 0x0, symName: __ZNSt6vectorIN8nlohmann16json_abi_v3_11_310basic_jsonISt3mapS_NSt7__cxx1112basic_stringIcSt11char_traitsIcESaIcEEEbxydSaNS1_14adl_serializerES_IhSaIhEEvEESaISD_EE15_M_erase_at_endEPSD_, symObjAddr: 0x19C10, symBinAddr: 0x10001BB54, symSize: 0x88 }
  - { offsetInCU: 0x5932C, offset: 0x5932C, size: 0x8, addend: 0x0, symName: __ZN9__gnu_cxxeqIPKN8nlohmann16json_abi_v3_11_310basic_jsonISt3mapSt6vectorNSt7__cxx1112basic_stringIcSt11char_traitsIcESaIcEEEbxydSaNS2_14adl_serializerES5_IhSaIhEEvEES5_ISF_SaISF_EEEEbRKNS_17__normal_iteratorIT_T0_EESP_, symObjAddr: 0x19BCC, symBinAddr: 0x10001BB10, symSize: 0x44 }
  - { offsetInCU: 0x5937D, offset: 0x5937D, size: 0x8, addend: 0x0, symName: __ZNKSt6vectorIN8nlohmann16json_abi_v3_11_310basic_jsonISt3mapS_NSt7__cxx1112basic_stringIcSt11char_traitsIcESaIcEEEbxydSaNS1_14adl_serializerES_IhSaIhEEvEESaISD_EE3endEv, symObjAddr: 0x19BA4, symBinAddr: 0x10001BAE8, symSize: 0x28 }
  - { offsetInCU: 0x593A7, offset: 0x593A7, size: 0x8, addend: 0x0, symName: __ZNKSt6vectorIN8nlohmann16json_abi_v3_11_310basic_jsonISt3mapS_NSt7__cxx1112basic_stringIcSt11char_traitsIcESaIcEEEbxydSaNS1_14adl_serializerES_IhSaIhEEvEESaISD_EE5beginEv, symObjAddr: 0x19B80, symBinAddr: 0x10001BAC4, symSize: 0x24 }
  - { offsetInCU: 0x593D1, offset: 0x593D1, size: 0x8, addend: 0x0, symName: __ZNSt6vectorIN8nlohmann16json_abi_v3_11_310basic_jsonISt3mapS_NSt7__cxx1112basic_stringIcSt11char_traitsIcESaIcEEEbxydSaNS1_14adl_serializerES_IhSaIhEEvEESaISD_EE12emplace_backIJSD_EEERSD_DpOT_, symObjAddr: 0x19AA4, symBinAddr: 0x10001B9E8, symSize: 0xDC }
  - { offsetInCU: 0x59480, offset: 0x59480, size: 0x8, addend: 0x0, symName: __ZNSt8_Rb_treeINSt7__cxx1112basic_stringIcSt11char_traitsIcESaIcEEESt4pairIKS5_N8nlohmann16json_abi_v3_11_310basic_jsonISt3mapSt6vectorS5_bxydSaNS9_14adl_serializerESC_IhSaIhEEvEEESt10_Select1stISH_ESt4lessIvESaISH_EE5beginEv, symObjAddr: 0x19A7C, symBinAddr: 0x10001B9C0, symSize: 0x28 }
  - { offsetInCU: 0x594AA, offset: 0x594AA, size: 0x8, addend: 0x0, symName: __ZNKSt8_Rb_treeINSt7__cxx1112basic_stringIcSt11char_traitsIcESaIcEEESt4pairIKS5_N8nlohmann16json_abi_v3_11_310basic_jsonISt3mapSt6vectorS5_bxydSaNS9_14adl_serializerESC_IhSaIhEEvEEESt10_Select1stISH_ESt4lessIvESaISH_EE4sizeEv, symObjAddr: 0x19A64, symBinAddr: 0x10001B9A8, symSize: 0x18 }
  - { offsetInCU: 0x594D0, offset: 0x594D0, size: 0x8, addend: 0x0, symName: __ZSt13__copy_move_aILb1EN9__gnu_cxx17__normal_iteratorIPN8nlohmann16json_abi_v3_11_310basic_jsonISt3mapSt6vectorNSt7__cxx1112basic_stringIcSt11char_traitsIcESaIcEEEbxydSaNS3_14adl_serializerES6_IhSaIhEEvEES6_ISG_SaISG_EEEESt20back_insert_iteratorISJ_EET1_T0_SO_SN_, symObjAddr: 0x19A04, symBinAddr: 0x10001B948, symSize: 0x60 }
  - { offsetInCU: 0x59538, offset: 0x59538, size: 0x8, addend: 0x0, symName: __ZSt12__miter_baseIN9__gnu_cxx17__normal_iteratorIPN8nlohmann16json_abi_v3_11_310basic_jsonISt3mapSt6vectorNSt7__cxx1112basic_stringIcSt11char_traitsIcESaIcEEEbxydSaNS3_14adl_serializerES6_IhSaIhEEvEES6_ISG_SaISG_EEEEET_SL_, symObjAddr: 0x199F0, symBinAddr: 0x10001B934, symSize: 0x14 }
  - { offsetInCU: 0x59659, offset: 0x59659, size: 0x8, addend: 0x0, symName: __ZNSt20back_insert_iteratorISt6vectorIN8nlohmann16json_abi_v3_11_310basic_jsonISt3mapS0_NSt7__cxx1112basic_stringIcSt11char_traitsIcESaIcEEEbxydSaNS2_14adl_serializerES0_IhSaIhEEvEESaISE_EEEC1ERSG_, symObjAddr: 0x199C0, symBinAddr: 0x10001B904, symSize: 0x30 }
  - { offsetInCU: 0x595C6, offset: 0x595C6, size: 0x8, addend: 0x0, symName: __ZNKSt6vectorIN8nlohmann16json_abi_v3_11_310basic_jsonISt3mapS_NSt7__cxx1112basic_stringIcSt11char_traitsIcESaIcEEEbxydSaNS1_14adl_serializerES_IhSaIhEEvEESaISD_EE8max_sizeEv, symObjAddr: 0x199A0, symBinAddr: 0x10001B8E4, symSize: 0x20 }
  - { offsetInCU: 0x5962B, offset: 0x5962B, size: 0x8, addend: 0x0, symName: __ZNSt12_Vector_baseIN8nlohmann16json_abi_v3_11_310basic_jsonISt3mapSt6vectorNSt7__cxx1112basic_stringIcSt11char_traitsIcESaIcEEEbxydSaNS1_14adl_serializerES4_IhSaIhEEvEESaISE_EE13_M_deallocateEPSE_m, symObjAddr: 0x19948, symBinAddr: 0x10001B88C, symSize: 0x58 }
  - { offsetInCU: 0x5977F, offset: 0x5977F, size: 0x8, addend: 0x0, symName: __ZNSt15__new_allocatorIN8nlohmann16json_abi_v3_11_310basic_jsonISt3mapSt6vectorNSt7__cxx1112basic_stringIcSt11char_traitsIcESaIcEEEbxydSaNS1_14adl_serializerES4_IhSaIhEEvEEED2Ev, symObjAddr: 0x19934, symBinAddr: 0x10001B878, symSize: 0x14 }
  - { offsetInCU: 0x597D6, offset: 0x597D6, size: 0x8, addend: 0x0, symName: __ZNSt12_Vector_baseIN8nlohmann16json_abi_v3_11_310basic_jsonISt3mapSt6vectorNSt7__cxx1112basic_stringIcSt11char_traitsIcESaIcEEEbxydSaNS1_14adl_serializerES4_IhSaIhEEvEESaISE_EE17_Vector_impl_dataC2Ev, symObjAddr: 0x19908, symBinAddr: 0x10001B84C, symSize: 0x2C }
  - { offsetInCU: 0x59737, offset: 0x59737, size: 0x8, addend: 0x0, symName: __ZN8nlohmann16json_abi_v3_11_36detail19json_sax_dom_parserINS0_10basic_jsonISt3mapSt6vectorNSt7__cxx1112basic_stringIcSt11char_traitsIcESaIcEEEbxydSaNS0_14adl_serializerES5_IhSaIhEEvEEE12handle_valueIRyEEPSF_OT_, symObjAddr: 0x196F0, symBinAddr: 0x10001B634, symSize: 0x218 }
  - { offsetInCU: 0x5978F, offset: 0x5978F, size: 0x8, addend: 0x0, symName: __ZN8nlohmann16json_abi_v3_11_36detail19json_sax_dom_parserINS0_10basic_jsonISt3mapSt6vectorNSt7__cxx1112basic_stringIcSt11char_traitsIcESaIcEEEbxydSaNS0_14adl_serializerES5_IhSaIhEEvEEE12handle_valueIRSB_EEPSF_OT_, symObjAddr: 0x194D8, symBinAddr: 0x10001B41C, symSize: 0x218 }
  - { offsetInCU: 0x597E7, offset: 0x597E7, size: 0x8, addend: 0x0, symName: __ZN8nlohmann16json_abi_v3_11_36detail19json_sax_dom_parserINS0_10basic_jsonISt3mapSt6vectorNSt7__cxx1112basic_stringIcSt11char_traitsIcESaIcEEEbxydSaNS0_14adl_serializerES5_IhSaIhEEvEEE12handle_valueIRxEEPSF_OT_, symObjAddr: 0x192C0, symBinAddr: 0x10001B204, symSize: 0x218 }
  - { offsetInCU: 0x5983F, offset: 0x5983F, size: 0x8, addend: 0x0, symName: __ZN8nlohmann16json_abi_v3_11_36detail19json_sax_dom_parserINS0_10basic_jsonISt3mapSt6vectorNSt7__cxx1112basic_stringIcSt11char_traitsIcESaIcEEEbxydSaNS0_14adl_serializerES5_IhSaIhEEvEEE12handle_valueIDnEEPSF_OT_, symObjAddr: 0x190A8, symBinAddr: 0x10001AFEC, symSize: 0x218 }
  - { offsetInCU: 0x59897, offset: 0x59897, size: 0x8, addend: 0x0, symName: __ZN8nlohmann16json_abi_v3_11_36detail19json_sax_dom_parserINS0_10basic_jsonISt3mapSt6vectorNSt7__cxx1112basic_stringIcSt11char_traitsIcESaIcEEEbxydSaNS0_14adl_serializerES5_IhSaIhEEvEEE12handle_valueIRbEEPSF_OT_, symObjAddr: 0x18E90, symBinAddr: 0x10001ADD4, symSize: 0x218 }
  - { offsetInCU: 0x598EF, offset: 0x598EF, size: 0x8, addend: 0x0, symName: __ZN8nlohmann16json_abi_v3_11_36detail19json_sax_dom_parserINS0_10basic_jsonISt3mapSt6vectorNSt7__cxx1112basic_stringIcSt11char_traitsIcESaIcEEEbxydSaNS0_14adl_serializerES5_IhSaIhEEvEEE12handle_valueIRdEEPSF_OT_, symObjAddr: 0x18C78, symBinAddr: 0x10001ABBC, symSize: 0x218 }
  - { offsetInCU: 0x59947, offset: 0x59947, size: 0x8, addend: 0x0, symName: __ZNSt6vectorIPN8nlohmann16json_abi_v3_11_310basic_jsonISt3mapS_NSt7__cxx1112basic_stringIcSt11char_traitsIcESaIcEEEbxydSaNS1_14adl_serializerES_IhSaIhEEvEESaISE_EE9push_backEOSE_, symObjAddr: 0x18C48, symBinAddr: 0x10001AB8C, symSize: 0x30 }
  - { offsetInCU: 0x59982, offset: 0x59982, size: 0x8, addend: 0x0, symName: __ZN8nlohmann16json_abi_v3_11_36detail19json_sax_dom_parserINS0_10basic_jsonISt3mapSt6vectorNSt7__cxx1112basic_stringIcSt11char_traitsIcESaIcEEEbxydSaNS0_14adl_serializerES5_IhSaIhEEvEEE12handle_valueINS1_7value_tEEEPSF_OT_, symObjAddr: 0x18A30, symBinAddr: 0x10001A974, symSize: 0x218 }
  - { offsetInCU: 0x599D6, offset: 0x599D6, size: 0x8, addend: 0x0, symName: __ZN8nlohmann16json_abi_v3_11_36detail11concat_intoINSt7__cxx1112basic_stringIcSt11char_traitsIcESaIcEEES8_JRA12_KcS8_RA3_S9_S8_RKS8_ELi0EEEvRT_OT0_DpOT1_, symObjAddr: 0x18988, symBinAddr: 0x10001A8CC, symSize: 0xA8 }
  - { offsetInCU: 0x59A76, offset: 0x59A76, size: 0x8, addend: 0x0, symName: __ZN8nlohmann16json_abi_v3_11_36detail13concat_lengthINSt7__cxx1112basic_stringIcSt11char_traitsIcESaIcEEEJA12_cS8_A3_cS8_S8_EEEmRKT_DpRKT0_, symObjAddr: 0x18930, symBinAddr: 0x10001A874, symSize: 0x58 }
  - { offsetInCU: 0x59AFC, offset: 0x59AFC, size: 0x8, addend: 0x0, symName: __ZN8nlohmann16json_abi_v3_11_36detail11concat_intoINSt7__cxx1112basic_stringIcSt11char_traitsIcESaIcEEERA12_KcJPS9_ELi0EEEvRT_OT0_DpOT1_, symObjAddr: 0x188E8, symBinAddr: 0x10001A82C, symSize: 0x48 }
  - { offsetInCU: 0x59B6A, offset: 0x59B6A, size: 0x8, addend: 0x0, symName: __ZSt7forwardIRA12_KcEOT_RNSt16remove_referenceIS3_E4typeE, symObjAddr: 0x188D4, symBinAddr: 0x10001A818, symSize: 0x14 }
  - { offsetInCU: 0x59B9C, offset: 0x59B9C, size: 0x8, addend: 0x0, symName: __ZN8nlohmann16json_abi_v3_11_36detail11concat_intoINSt7__cxx1112basic_stringIcSt11char_traitsIcESaIcEEEPKcJRA15_S9_S8_cELi0EEEvRT_OT0_DpOT1_, symObjAddr: 0x18858, symBinAddr: 0x10001A79C, symSize: 0x7C }
  - { offsetInCU: 0x59C2E, offset: 0x59C2E, size: 0x8, addend: 0x0, symName: __ZN8nlohmann16json_abi_v3_11_36detail13concat_lengthIJA15_cNSt7__cxx1112basic_stringIcSt11char_traitsIcESaIcEEEcEEEmPKcDpRKT_, symObjAddr: 0x18810, symBinAddr: 0x10001A754, symSize: 0x48 }
  - { offsetInCU: 0x59C8F, offset: 0x59C8F, size: 0x8, addend: 0x0, symName: __ZN8nlohmann16json_abi_v3_11_36detail11concat_intoINSt7__cxx1112basic_stringIcSt11char_traitsIcESaIcEEERA15_KcJRKS8_cELi0EEEvRT_OT0_DpOT1_, symObjAddr: 0x187AC, symBinAddr: 0x10001A6F0, symSize: 0x64 }
  - { offsetInCU: 0x59D0B, offset: 0x59D0B, size: 0x8, addend: 0x0, symName: __ZSt7forwardIRA15_KcEOT_RNSt16remove_referenceIS3_E4typeE, symObjAddr: 0x18798, symBinAddr: 0x10001A6DC, symSize: 0x14 }
  - { offsetInCU: 0x59D41, offset: 0x59D41, size: 0x8, addend: 0x0, symName: __ZNK9__gnu_cxx17__normal_iteratorIPKcSt6vectorIcSaIcEEE4baseEv, symObjAddr: 0x18784, symBinAddr: 0x10001A6C8, symSize: 0x14 }
  - { offsetInCU: 0x59DCE, offset: 0x59DCE, size: 0x8, addend: 0x0, symName: __ZN9__gnu_cxx17__normal_iteratorIPKcSt6vectorIcSaIcEEEC1ERKS2_, symObjAddr: 0x1875C, symBinAddr: 0x10001A6A0, symSize: 0x28 }
  - { offsetInCU: 0x59DEE, offset: 0x59DEE, size: 0x8, addend: 0x0, symName: __ZNKSt6vectorIbSaIbEE3endEv, symObjAddr: 0x18710, symBinAddr: 0x10001A654, symSize: 0x4C }
  - { offsetInCU: 0x59E18, offset: 0x59E18, size: 0x8, addend: 0x0, symName: __ZNKSt6vectorIbSaIbEE5beginEv, symObjAddr: 0x186C0, symBinAddr: 0x10001A604, symSize: 0x50 }
  - { offsetInCU: 0x59E42, offset: 0x59E42, size: 0x8, addend: 0x0, symName: __ZN8nlohmann16json_abi_v3_11_36detail28json_sax_dom_callback_parserINS0_10basic_jsonISt3mapSt6vectorNSt7__cxx1112basic_stringIcSt11char_traitsIcESaIcEEEbxydSaNS0_14adl_serializerES5_IhSaIhEEvEEE12handle_valueIRyEESt4pairIbPSF_EOT_b, symObjAddr: 0x18200, symBinAddr: 0x10001A144, symSize: 0x4C0 }
  - { offsetInCU: 0x59EE2, offset: 0x59EE2, size: 0x8, addend: 0x0, symName: __ZN8nlohmann16json_abi_v3_11_36detail28json_sax_dom_callback_parserINS0_10basic_jsonISt3mapSt6vectorNSt7__cxx1112basic_stringIcSt11char_traitsIcESaIcEEEbxydSaNS0_14adl_serializerES5_IhSaIhEEvEEE12handle_valueIRSB_EESt4pairIbPSF_EOT_b, symObjAddr: 0x17D40, symBinAddr: 0x100019C84, symSize: 0x4C0 }
  - { offsetInCU: 0x59F82, offset: 0x59F82, size: 0x8, addend: 0x0, symName: __ZN8nlohmann16json_abi_v3_11_36detail28json_sax_dom_callback_parserINS0_10basic_jsonISt3mapSt6vectorNSt7__cxx1112basic_stringIcSt11char_traitsIcESaIcEEEbxydSaNS0_14adl_serializerES5_IhSaIhEEvEEE12handle_valueIRxEESt4pairIbPSF_EOT_b, symObjAddr: 0x17880, symBinAddr: 0x1000197C4, symSize: 0x4C0 }
  - { offsetInCU: 0x5A022, offset: 0x5A022, size: 0x8, addend: 0x0, symName: __ZN8nlohmann16json_abi_v3_11_36detail28json_sax_dom_callback_parserINS0_10basic_jsonISt3mapSt6vectorNSt7__cxx1112basic_stringIcSt11char_traitsIcESaIcEEEbxydSaNS0_14adl_serializerES5_IhSaIhEEvEEE12handle_valueIDnEESt4pairIbPSF_EOT_b, symObjAddr: 0x173C0, symBinAddr: 0x100019304, symSize: 0x4C0 }
  - { offsetInCU: 0x5A0C2, offset: 0x5A0C2, size: 0x8, addend: 0x0, symName: __ZN8nlohmann16json_abi_v3_11_36detail28json_sax_dom_callback_parserINS0_10basic_jsonISt3mapSt6vectorNSt7__cxx1112basic_stringIcSt11char_traitsIcESaIcEEEbxydSaNS0_14adl_serializerES5_IhSaIhEEvEEE12handle_valueIRbEESt4pairIbPSF_EOT_b, symObjAddr: 0x16F00, symBinAddr: 0x100018E44, symSize: 0x4C0 }
  - { offsetInCU: 0x5A162, offset: 0x5A162, size: 0x8, addend: 0x0, symName: __ZN8nlohmann16json_abi_v3_11_36detail28json_sax_dom_callback_parserINS0_10basic_jsonISt3mapSt6vectorNSt7__cxx1112basic_stringIcSt11char_traitsIcESaIcEEEbxydSaNS0_14adl_serializerES5_IhSaIhEEvEEE12handle_valueIRdEESt4pairIbPSF_EOT_b, symObjAddr: 0x16A40, symBinAddr: 0x100018984, symSize: 0x4C0 }
  - { offsetInCU: 0x5A204, offset: 0x5A204, size: 0x8, addend: 0x0, symName: __ZN8nlohmann16json_abi_v3_11_36detail11concat_intoINSt7__cxx1112basic_stringIcSt11char_traitsIcESaIcEEERA26_KcJS8_cELi0EEEvRT_OT0_DpOT1_, symObjAddr: 0x169DC, symBinAddr: 0x100018920, symSize: 0x64 }
  - { offsetInCU: 0x5A280, offset: 0x5A280, size: 0x8, addend: 0x0, symName: __ZSt7forwardIRA26_KcEOT_RNSt16remove_referenceIS3_E4typeE, symObjAddr: 0x169C8, symBinAddr: 0x10001890C, symSize: 0x14 }
  - { offsetInCU: 0x5A2B2, offset: 0x5A2B2, size: 0x8, addend: 0x0, symName: __ZN8nlohmann16json_abi_v3_11_36detail13concat_lengthIJNSt7__cxx1112basic_stringIcSt11char_traitsIcESaIcEEEcEEEmPKcDpRKT_, symObjAddr: 0x16988, symBinAddr: 0x1000188CC, symSize: 0x40 }
  - { offsetInCU: 0x5A305, offset: 0x5A305, size: 0x8, addend: 0x0, symName: __ZN8nlohmann16json_abi_v3_11_36detail6concatINSt7__cxx1112basic_stringIcSt11char_traitsIcESaIcEEEJRA23_KcS8_EEET_DpOT0_, symObjAddr: 0x16904, symBinAddr: 0x100018848, symSize: 0x84 }
  - { offsetInCU: 0x5A366, offset: 0x5A366, size: 0x8, addend: 0x0, symName: __ZNSt3mapINSt7__cxx1112basic_stringIcSt11char_traitsIcESaIcEEEN8nlohmann16json_abi_v3_11_310basic_jsonIS_St6vectorS5_bxydSaNS7_14adl_serializerES9_IhSaIhEEvEESt4lessIvESaISt4pairIKS5_SD_EEEixERSH_, symObjAddr: 0x16818, symBinAddr: 0x10001875C, symSize: 0xEC }
  - { offsetInCU: 0x5A492, offset: 0x5A492, size: 0x8, addend: 0x0, symName: __ZN8nlohmann16json_abi_v3_11_310basic_jsonISt3mapSt6vectorNSt7__cxx1112basic_stringIcSt11char_traitsIcESaIcEEEbxydSaNS0_14adl_serializerES3_IhSaIhEEvEC1IRS9_S9_Li0EEEOT_, symObjAddr: 0x167A0, symBinAddr: 0x1000186E4, symSize: 0x78 }
  - { offsetInCU: 0x5A42D, offset: 0x5A42D, size: 0x8, addend: 0x0, symName: __ZN8nlohmann16json_abi_v3_11_310basic_jsonISt3mapSt6vectorNSt7__cxx1112basic_stringIcSt11char_traitsIcESaIcEEEbxydSaNS0_14adl_serializerES3_IhSaIhEEvE5eraseINS0_6detail9iter_implISD_EELi0EEET_SI_, symObjAddr: 0x16384, symBinAddr: 0x1000182C8, symSize: 0x41C }
  - { offsetInCU: 0x5A7BF, offset: 0x5A7BF, size: 0x8, addend: 0x0, symName: __ZNK8nlohmann16json_abi_v3_11_310basic_jsonISt3mapSt6vectorNSt7__cxx1112basic_stringIcSt11char_traitsIcESaIcEEEbxydSaNS0_14adl_serializerES3_IhSaIhEEvE9is_binaryEv, symObjAddr: 0x16360, symBinAddr: 0x1000182A4, symSize: 0x24 }
  - { offsetInCU: 0x5A8C4, offset: 0x5A8C4, size: 0x8, addend: 0x0, symName: __ZN8nlohmann16json_abi_v3_11_36detail9iter_implINS0_10basic_jsonISt3mapSt6vectorNSt7__cxx1112basic_stringIcSt11char_traitsIcESaIcEEEbxydSaNS0_14adl_serializerES5_IhSaIhEEvEEEC1ERKSG_, symObjAddr: 0x16310, symBinAddr: 0x100018254, symSize: 0x50 }
  - { offsetInCU: 0x5A840, offset: 0x5A840, size: 0x8, addend: 0x0, symName: __ZNK8nlohmann16json_abi_v3_11_36detail9iter_implINS0_10basic_jsonISt3mapSt6vectorNSt7__cxx1112basic_stringIcSt11char_traitsIcESaIcEEEbxydSaNS0_14adl_serializerES5_IhSaIhEEvEEEptEv, symObjAddr: 0x160C8, symBinAddr: 0x10001800C, symSize: 0x248 }
  - { offsetInCU: 0x5A905, offset: 0x5A905, size: 0x8, addend: 0x0, symName: __ZN8nlohmann16json_abi_v3_11_36detail9iter_implINS0_10basic_jsonISt3mapSt6vectorNSt7__cxx1112basic_stringIcSt11char_traitsIcESaIcEEEbxydSaNS0_14adl_serializerES5_IhSaIhEEvEEEppEv, symObjAddr: 0x15FC4, symBinAddr: 0x100017F08, symSize: 0x104 }
  - { offsetInCU: 0x5A9F6, offset: 0x5A9F6, size: 0x8, addend: 0x0, symName: __ZNK8nlohmann16json_abi_v3_11_36detail9iter_implINS0_10basic_jsonISt3mapSt6vectorNSt7__cxx1112basic_stringIcSt11char_traitsIcESaIcEEEbxydSaNS0_14adl_serializerES5_IhSaIhEEvEEEneISG_LDnEEEbRKT_, symObjAddr: 0x15F98, symBinAddr: 0x100017EDC, symSize: 0x2C }
  - { offsetInCU: 0x5AA3A, offset: 0x5AA3A, size: 0x8, addend: 0x0, symName: __ZN8nlohmann16json_abi_v3_11_310basic_jsonISt3mapSt6vectorNSt7__cxx1112basic_stringIcSt11char_traitsIcESaIcEEEbxydSaNS0_14adl_serializerES3_IhSaIhEEvE3endEv, symObjAddr: 0x15F5C, symBinAddr: 0x100017EA0, symSize: 0x3C }
  - { offsetInCU: 0x5AA75, offset: 0x5AA75, size: 0x8, addend: 0x0, symName: __ZN8nlohmann16json_abi_v3_11_310basic_jsonISt3mapSt6vectorNSt7__cxx1112basic_stringIcSt11char_traitsIcESaIcEEEbxydSaNS0_14adl_serializerES3_IhSaIhEEvE5beginEv, symObjAddr: 0x15F20, symBinAddr: 0x100017E64, symSize: 0x3C }
  - { offsetInCU: 0x5AAB0, offset: 0x5AAB0, size: 0x8, addend: 0x0, symName: __ZNK8nlohmann16json_abi_v3_11_310basic_jsonISt3mapSt6vectorNSt7__cxx1112basic_stringIcSt11char_traitsIcESaIcEEEbxydSaNS0_14adl_serializerES3_IhSaIhEEvE13is_structuredEv, symObjAddr: 0x15ED8, symBinAddr: 0x100017E1C, symSize: 0x48 }
  - { offsetInCU: 0x5AADA, offset: 0x5AADA, size: 0x8, addend: 0x0, symName: __ZNSt6vectorIPN8nlohmann16json_abi_v3_11_310basic_jsonISt3mapS_NSt7__cxx1112basic_stringIcSt11char_traitsIcESaIcEEEbxydSaNS1_14adl_serializerES_IhSaIhEEvEESaISE_EE8pop_backEv, symObjAddr: 0x15E84, symBinAddr: 0x100017DC8, symSize: 0x54 }
  - { offsetInCU: 0x5AB5E, offset: 0x5AB5E, size: 0x8, addend: 0x0, symName: __ZNKSt6vectorIPN8nlohmann16json_abi_v3_11_310basic_jsonISt3mapS_NSt7__cxx1112basic_stringIcSt11char_traitsIcESaIcEEEbxydSaNS1_14adl_serializerES_IhSaIhEEvEESaISE_EE5emptyEv, symObjAddr: 0x15E4C, symBinAddr: 0x100017D90, symSize: 0x38 }
  - { offsetInCU: 0x5AB84, offset: 0x5AB84, size: 0x8, addend: 0x0, symName: __ZN8nlohmann16json_abi_v3_11_36detail12out_of_range6createIPNS0_10basic_jsonISt3mapSt6vectorNSt7__cxx1112basic_stringIcSt11char_traitsIcESaIcEEEbxydSaNS0_14adl_serializerES6_IhSaIhEEvEELi0EEES2_iRKSC_T_, symObjAddr: 0x15D0C, symBinAddr: 0x100017C50, symSize: 0x140 }
  - { offsetInCU: 0x5AC74, offset: 0x5AC74, size: 0x8, addend: 0x0, symName: __ZN8nlohmann16json_abi_v3_11_36detail6concatINSt7__cxx1112basic_stringIcSt11char_traitsIcESaIcEEEJRA24_KcS8_EEET_DpOT0_, symObjAddr: 0x15C88, symBinAddr: 0x100017BCC, symSize: 0x84 }
  - { offsetInCU: 0x5ACD5, offset: 0x5ACD5, size: 0x8, addend: 0x0, symName: __ZNK8nlohmann16json_abi_v3_11_310basic_jsonISt3mapSt6vectorNSt7__cxx1112basic_stringIcSt11char_traitsIcESaIcEEEbxydSaNS0_14adl_serializerES3_IhSaIhEEvE8max_sizeEv, symObjAddr: 0x15C30, symBinAddr: 0x100017B74, symSize: 0x58 }
  - { offsetInCU: 0x5ACFF, offset: 0x5ACFF, size: 0x8, addend: 0x0, symName: __ZNSt6vectorIPN8nlohmann16json_abi_v3_11_310basic_jsonISt3mapS_NSt7__cxx1112basic_stringIcSt11char_traitsIcESaIcEEEbxydSaNS1_14adl_serializerES_IhSaIhEEvEESaISE_EE4backEv, symObjAddr: 0x15BF8, symBinAddr: 0x100017B3C, symSize: 0x38 }
  - { offsetInCU: 0x5AD29, offset: 0x5AD29, size: 0x8, addend: 0x0, symName: __ZNSt6vectorIPN8nlohmann16json_abi_v3_11_310basic_jsonISt3mapS_NSt7__cxx1112basic_stringIcSt11char_traitsIcESaIcEEEbxydSaNS1_14adl_serializerES_IhSaIhEEvEESaISE_EE9push_backERKSE_, symObjAddr: 0x15B30, symBinAddr: 0x100017A74, symSize: 0xC8 }
  - { offsetInCU: 0x5ADD0, offset: 0x5ADD0, size: 0x8, addend: 0x0, symName: __ZN8nlohmann16json_abi_v3_11_36detail28json_sax_dom_callback_parserINS0_10basic_jsonISt3mapSt6vectorNSt7__cxx1112basic_stringIcSt11char_traitsIcESaIcEEEbxydSaNS0_14adl_serializerES5_IhSaIhEEvEEE12handle_valueINS1_7value_tEEESt4pairIbPSF_EOT_b, symObjAddr: 0x15670, symBinAddr: 0x1000175B4, symSize: 0x4C0 }
  - { offsetInCU: 0x5AE70, offset: 0x5AE70, size: 0x8, addend: 0x0, symName: __ZNKSt8functionIFbiN8nlohmann16json_abi_v3_11_36detail13parse_event_tERNS1_10basic_jsonISt3mapSt6vectorNSt7__cxx1112basic_stringIcSt11char_traitsIcESaIcEEEbxydSaNS1_14adl_serializerES6_IhSaIhEEvEEEEclEiS3_SH_, symObjAddr: 0x155E4, symBinAddr: 0x100017528, symSize: 0x8C }
  - { offsetInCU: 0x5AECD, offset: 0x5AECD, size: 0x8, addend: 0x0, symName: __ZNKSt6vectorIPN8nlohmann16json_abi_v3_11_310basic_jsonISt3mapS_NSt7__cxx1112basic_stringIcSt11char_traitsIcESaIcEEEbxydSaNS1_14adl_serializerES_IhSaIhEEvEESaISE_EE4sizeEv, symObjAddr: 0x155BC, symBinAddr: 0x100017500, symSize: 0x28 }
  - { offsetInCU: 0x5AEF3, offset: 0x5AEF3, size: 0x8, addend: 0x0, symName: __ZSt8_DestroyIPPN8nlohmann16json_abi_v3_11_310basic_jsonISt3mapSt6vectorNSt7__cxx1112basic_stringIcSt11char_traitsIcESaIcEEEbxydSaNS1_14adl_serializerES4_IhSaIhEEvEEEvT_SH_, symObjAddr: 0x15594, symBinAddr: 0x1000174D8, symSize: 0x28 }
  - { offsetInCU: 0x5AF39, offset: 0x5AF39, size: 0x8, addend: 0x0, symName: __ZNSt6vectorIbSaIbEE3endEv, symObjAddr: 0x1555C, symBinAddr: 0x1000174A0, symSize: 0x38 }
  - { offsetInCU: 0x5AF63, offset: 0x5AF63, size: 0x8, addend: 0x0, symName: __ZNSt6vectorIbSaIbEE13_M_insert_auxESt13_Bit_iteratorb, symObjAddr: 0x15348, symBinAddr: 0x10001728C, symSize: 0x214 }
  - { offsetInCU: 0x5B01D, offset: 0x5B01D, size: 0x8, addend: 0x0, symName: __ZNKSt13_Bvector_baseISaIbEE13_Bvector_impl11_M_end_addrEv, symObjAddr: 0x15308, symBinAddr: 0x10001724C, symSize: 0x40 }
  - { offsetInCU: 0x5B047, offset: 0x5B047, size: 0x8, addend: 0x0, symName: __ZNSt13_Bvector_baseISaIbEE13_M_deallocateEv, symObjAddr: 0x15278, symBinAddr: 0x1000171BC, symSize: 0x90 }
  - { offsetInCU: 0x5B115, offset: 0x5B115, size: 0x8, addend: 0x0, symName: __ZNSt13_Bvector_baseISaIbEE18_Bvector_impl_dataC1Ev, symObjAddr: 0x15244, symBinAddr: 0x100017188, symSize: 0x34 }
  - { offsetInCU: 0x5B13F, offset: 0x5B13F, size: 0x8, addend: 0x0, symName: __ZNSt13_Bvector_baseISaIbEE18_Bvector_impl_dataC2Ev, symObjAddr: 0x15210, symBinAddr: 0x100017154, symSize: 0x34 }
  - { offsetInCU: 0x5B135, offset: 0x5B135, size: 0x8, addend: 0x0, symName: __ZNSt12_Vector_baseIPN8nlohmann16json_abi_v3_11_310basic_jsonISt3mapSt6vectorNSt7__cxx1112basic_stringIcSt11char_traitsIcESaIcEEEbxydSaNS1_14adl_serializerES4_IhSaIhEEvEESaISF_EE13_M_deallocateEPSF_m, symObjAddr: 0x151B8, symBinAddr: 0x1000170FC, symSize: 0x58 }
  - { offsetInCU: 0x5B28A, offset: 0x5B28A, size: 0x8, addend: 0x0, symName: __ZNSt15__new_allocatorIPN8nlohmann16json_abi_v3_11_310basic_jsonISt3mapSt6vectorNSt7__cxx1112basic_stringIcSt11char_traitsIcESaIcEEEbxydSaNS1_14adl_serializerES4_IhSaIhEEvEEED2Ev, symObjAddr: 0x151A4, symBinAddr: 0x1000170E8, symSize: 0x14 }
  - { offsetInCU: 0x5B2E1, offset: 0x5B2E1, size: 0x8, addend: 0x0, symName: __ZNSt12_Vector_baseIPN8nlohmann16json_abi_v3_11_310basic_jsonISt3mapSt6vectorNSt7__cxx1112basic_stringIcSt11char_traitsIcESaIcEEEbxydSaNS1_14adl_serializerES4_IhSaIhEEvEESaISF_EE17_Vector_impl_dataC2Ev, symObjAddr: 0x15178, symBinAddr: 0x1000170BC, symSize: 0x2C }
  - { offsetInCU: 0x5B253, offset: 0x5B253, size: 0x8, addend: 0x0, symName: __ZNSt12_Destroy_auxILb1EE9__destroyIPcEEvT_S3_, symObjAddr: 0x15160, symBinAddr: 0x1000170A4, symSize: 0x18 }
  - { offsetInCU: 0x5B2CF, offset: 0x5B2CF, size: 0x8, addend: 0x0, symName: __ZNSt12_Vector_baseIcSaIcEE12_Vector_implC1Ev, symObjAddr: 0x15128, symBinAddr: 0x10001706C, symSize: 0x38 }
  - { offsetInCU: 0x5B30D, offset: 0x5B30D, size: 0x8, addend: 0x0, symName: __ZN8nlohmann16json_abi_v3_11_36detail11concat_intoINSt7__cxx1112basic_stringIcSt11char_traitsIcESaIcEEES8_JELi0EEEvRT_OT0_DpOT1_, symObjAddr: 0x150F0, symBinAddr: 0x100017034, symSize: 0x38 }
  - { offsetInCU: 0x5B365, offset: 0x5B365, size: 0x8, addend: 0x0, symName: __ZN8nlohmann16json_abi_v3_11_36detail13concat_lengthINSt7__cxx1112basic_stringIcSt11char_traitsIcESaIcEEEJEEEmRKT_DpRKT0_, symObjAddr: 0x150C0, symBinAddr: 0x100017004, symSize: 0x30 }
  - { offsetInCU: 0x5B3A3, offset: 0x5B3A3, size: 0x8, addend: 0x0, symName: __ZN8nlohmann16json_abi_v3_11_36detail11concat_intoINSt7__cxx1112basic_stringIcSt11char_traitsIcESaIcEEES8_JRA3_KcELi0EEEvRT_OT0_DpOT1_, symObjAddr: 0x15078, symBinAddr: 0x100016FBC, symSize: 0x48 }
  - { offsetInCU: 0x5B40B, offset: 0x5B40B, size: 0x8, addend: 0x0, symName: __ZN8nlohmann16json_abi_v3_11_36detail13concat_lengthINSt7__cxx1112basic_stringIcSt11char_traitsIcESaIcEEEJA3_cEEEmRKT_DpRKT0_, symObjAddr: 0x15040, symBinAddr: 0x100016F84, symSize: 0x38 }
  - { offsetInCU: 0x5B45D, offset: 0x5B45D, size: 0x8, addend: 0x0, symName: __ZNSt15__new_allocatorIcE8allocateEmPKv, symObjAddr: 0x14FDC, symBinAddr: 0x100016F20, symSize: 0x64 }
  - { offsetInCU: 0x5B4F5, offset: 0x5B4F5, size: 0x8, addend: 0x0, symName: __ZNK8nlohmann16json_abi_v3_11_36detail12from_json_fnclINS0_10basic_jsonISt3mapSt6vectorNSt7__cxx1112basic_stringIcSt11char_traitsIcESaIcEEEbxydSaNS0_14adl_serializerES6_IhSaIhEEvEERiEEDTcl9from_jsonfp_cl7forwardIT0_Efp0_EEERKT_OSI_, symObjAddr: 0x14FA8, symBinAddr: 0x100016EEC, symSize: 0x34 }
  - { offsetInCU: 0x5B553, offset: 0x5B553, size: 0x8, addend: 0x0, symName: __ZNK8nlohmann16json_abi_v3_11_36detail5lexerINS0_10basic_jsonISt3mapSt6vectorNSt7__cxx1112basic_stringIcSt11char_traitsIcESaIcEEEbxydSaNS0_14adl_serializerES5_IhSaIhEEvEENS1_22iterator_input_adapterIN9__gnu_cxx17__normal_iteratorIPKcSB_EEEEE17get_error_messageEv, symObjAddr: 0x14F90, symBinAddr: 0x100016ED4, symSize: 0x18 }
  - { offsetInCU: 0x5B57D, offset: 0x5B57D, size: 0x8, addend: 0x0, symName: __ZN8nlohmann16json_abi_v3_11_36detail5lexerINS0_10basic_jsonISt3mapSt6vectorNSt7__cxx1112basic_stringIcSt11char_traitsIcESaIcEEEbxydSaNS0_14adl_serializerES5_IhSaIhEEvEENS1_22iterator_input_adapterIN9__gnu_cxx17__normal_iteratorIPKcSB_EEEEE4scanEv, symObjAddr: 0x14CF4, symBinAddr: 0x100016C38, symSize: 0x29C }
  - { offsetInCU: 0x5B6D9, offset: 0x5B6D9, size: 0x8, addend: 0x0, symName: __ZNK8nlohmann16json_abi_v3_11_36detail5lexerINS0_10basic_jsonISt3mapSt6vectorNSt7__cxx1112basic_stringIcSt11char_traitsIcESaIcEEEbxydSaNS0_14adl_serializerES5_IhSaIhEEvEENS1_22iterator_input_adapterIN9__gnu_cxx17__normal_iteratorIPKcSB_EEEEE19get_number_unsignedEv, symObjAddr: 0x14CDC, symBinAddr: 0x100016C20, symSize: 0x18 }
  - { offsetInCU: 0x5B703, offset: 0x5B703, size: 0x8, addend: 0x0, symName: __ZNK8nlohmann16json_abi_v3_11_36detail5lexerINS0_10basic_jsonISt3mapSt6vectorNSt7__cxx1112basic_stringIcSt11char_traitsIcESaIcEEEbxydSaNS0_14adl_serializerES5_IhSaIhEEvEENS1_22iterator_input_adapterIN9__gnu_cxx17__normal_iteratorIPKcSB_EEEEE18get_number_integerEv, symObjAddr: 0x14CC4, symBinAddr: 0x100016C08, symSize: 0x18 }
  - { offsetInCU: 0x5B72D, offset: 0x5B72D, size: 0x8, addend: 0x0, symName: __ZNK8nlohmann16json_abi_v3_11_36detail5lexerINS0_10basic_jsonISt3mapSt6vectorNSt7__cxx1112basic_stringIcSt11char_traitsIcESaIcEEEbxydSaNS0_14adl_serializerES5_IhSaIhEEvEENS1_22iterator_input_adapterIN9__gnu_cxx17__normal_iteratorIPKcSB_EEEEE16get_number_floatEv, symObjAddr: 0x14CA8, symBinAddr: 0x100016BEC, symSize: 0x1C }
  - { offsetInCU: 0x5B757, offset: 0x5B757, size: 0x8, addend: 0x0, symName: __ZN8nlohmann16json_abi_v3_11_36detail5lexerINS0_10basic_jsonISt3mapSt6vectorNSt7__cxx1112basic_stringIcSt11char_traitsIcESaIcEEEbxydSaNS0_14adl_serializerES5_IhSaIhEEvEENS1_22iterator_input_adapterIN9__gnu_cxx17__normal_iteratorIPKcSB_EEEEE10get_stringEv, symObjAddr: 0x14C90, symBinAddr: 0x100016BD4, symSize: 0x18 }
  - { offsetInCU: 0x5B8AC, offset: 0x5B8AC, size: 0x8, addend: 0x0, symName: __ZN8nlohmann16json_abi_v3_11_36detail5lexerINS0_10basic_jsonISt3mapSt6vectorNSt7__cxx1112basic_stringIcSt11char_traitsIcESaIcEEEbxydSaNS0_14adl_serializerES5_IhSaIhEEvEENS1_22iterator_input_adapterIN9__gnu_cxx17__normal_iteratorIPKcSB_EEEEEC1EOSM_b, symObjAddr: 0x14BBC, symBinAddr: 0x100016B00, symSize: 0xD4 }
  - { offsetInCU: 0x5B7EB, offset: 0x5B7EB, size: 0x8, addend: 0x0, symName: __ZN8nlohmann16json_abi_v3_11_36detail13input_adapterIN9__gnu_cxx17__normal_iteratorIPKcNSt7__cxx1112basic_stringIcSt11char_traitsIcESaIcEEEEEEENS1_30iterator_input_adapter_factoryIT_vE12adapter_typeESF_SF_, symObjAddr: 0x14B98, symBinAddr: 0x100016ADC, symSize: 0x24 }
  - { offsetInCU: 0x5B86F, offset: 0x5B86F, size: 0x8, addend: 0x0, symName: __ZNKSt19istreambuf_iteratorIcSt11char_traitsIcEE6_M_getEv, symObjAddr: 0x14B0C, symBinAddr: 0x100016A50, symSize: 0x8C }
  - { offsetInCU: 0x5B8A9, offset: 0x5B8A9, size: 0x8, addend: 0x0, symName: __ZNKSt19istreambuf_iteratorIcSt11char_traitsIcEE5equalERKS2_, symObjAddr: 0x14ACC, symBinAddr: 0x100016A10, symSize: 0x40 }
  - { offsetInCU: 0x5B8E3, offset: 0x5B8E3, size: 0x8, addend: 0x0, symName: __ZNK9__gnu_cxx17__normal_iteratorIPSt6vectorIiSaIiEES1_IS3_SaIS3_EEEdeEv, symObjAddr: 0x14AB4, symBinAddr: 0x1000169F8, symSize: 0x18 }
  - { offsetInCU: 0x5B90D, offset: 0x5B90D, size: 0x8, addend: 0x0, symName: __ZNK9__gnu_cxx17__normal_iteratorIPSt6vectorIiSaIiEES1_IS3_SaIS3_EEEmiEl, symObjAddr: 0x14A64, symBinAddr: 0x1000169A8, symSize: 0x50 }
  - { offsetInCU: 0x5B944, offset: 0x5B944, size: 0x8, addend: 0x0, symName: __ZNSt6vectorIS_IiSaIiEESaIS1_EE11_S_relocateEPS1_S4_S4_RS2_, symObjAddr: 0x14A30, symBinAddr: 0x100016974, symSize: 0x34 }
  - { offsetInCU: 0x5B9A1, offset: 0x5B9A1, size: 0x8, addend: 0x0, symName: __ZSt12__to_addressISt6vectorIiSaIiEEEPT_S4_, symObjAddr: 0x14A1C, symBinAddr: 0x100016960, symSize: 0x14 }
  - { offsetInCU: 0x5B9D3, offset: 0x5B9D3, size: 0x8, addend: 0x0, symName: __ZN9__gnu_cxxmiIPSt6vectorIiSaIiEES1_IS3_SaIS3_EEEENS_17__normal_iteratorIT_T0_E15difference_typeERKSA_SD_, symObjAddr: 0x149D0, symBinAddr: 0x100016914, symSize: 0x4C }
  - { offsetInCU: 0x5BA24, offset: 0x5BA24, size: 0x8, addend: 0x0, symName: __ZNKSt6vectorIS_IiSaIiEESaIS1_EE12_M_check_lenEmPKc, symObjAddr: 0x14900, symBinAddr: 0x100016844, symSize: 0xD0 }
  - { offsetInCU: 0x5BAC3, offset: 0x5BAC3, size: 0x8, addend: 0x0, symName: __ZNK8nlohmann16json_abi_v3_11_36detail12from_json_fnclINS0_10basic_jsonISt3mapSt6vectorNSt7__cxx1112basic_stringIcSt11char_traitsIcESaIcEEEbxydSaNS0_14adl_serializerES6_IhSaIhEEvEERSC_EEDTcl9from_jsonfp_cl7forwardIT0_Efp0_EEERKT_OSI_, symObjAddr: 0x148CC, symBinAddr: 0x100016810, symSize: 0x34 }
  - { offsetInCU: 0x5BB21, offset: 0x5BB21, size: 0x8, addend: 0x0, symName: __ZN9__gnu_cxx16__aligned_membufISt4pairIKNSt7__cxx1112basic_stringIcSt11char_traitsIcESaIcEEEN8nlohmann16json_abi_v3_11_310basic_jsonISt3mapSt6vectorS7_bxydSaNSA_14adl_serializerESD_IhSaIhEEvEEEE6_M_ptrEv, symObjAddr: 0x148B0, symBinAddr: 0x1000167F4, symSize: 0x1C }
  - { offsetInCU: 0x5BC46, offset: 0x5BC46, size: 0x8, addend: 0x0, symName: __ZNSt17_Rb_tree_iteratorISt4pairIKNSt7__cxx1112basic_stringIcSt11char_traitsIcESaIcEEEN8nlohmann16json_abi_v3_11_310basic_jsonISt3mapSt6vectorS6_bxydSaNS9_14adl_serializerESC_IhSaIhEEvEEEEC1EPSt18_Rb_tree_node_base, symObjAddr: 0x1488C, symBinAddr: 0x1000167D0, symSize: 0x24 }
  - { offsetInCU: 0x5BBA2, offset: 0x5BBA2, size: 0x8, addend: 0x0, symName: __ZN9__gnu_cxx17__normal_iteratorIPN8nlohmann16json_abi_v3_11_310basic_jsonISt3mapSt6vectorNSt7__cxx1112basic_stringIcSt11char_traitsIcESaIcEEEbxydSaNS2_14adl_serializerES5_IhSaIhEEvEES5_ISF_SaISF_EEEpLEl, symObjAddr: 0x14858, symBinAddr: 0x10001679C, symSize: 0x34 }
  - { offsetInCU: 0x5BBDD, offset: 0x5BBDD, size: 0x8, addend: 0x0, symName: __ZNSt17_Rb_tree_iteratorISt4pairIKNSt7__cxx1112basic_stringIcSt11char_traitsIcESaIcEEEN8nlohmann16json_abi_v3_11_310basic_jsonISt3mapSt6vectorS6_bxydSaNS9_14adl_serializerESC_IhSaIhEEvEEEEmmEv, symObjAddr: 0x14828, symBinAddr: 0x10001676C, symSize: 0x30 }
  - { offsetInCU: 0x5BCE9, offset: 0x5BCE9, size: 0x8, addend: 0x0, symName: __ZN9__gnu_cxx17__normal_iteratorIPN8nlohmann16json_abi_v3_11_310basic_jsonISt3mapSt6vectorNSt7__cxx1112basic_stringIcSt11char_traitsIcESaIcEEEbxydSaNS2_14adl_serializerES5_IhSaIhEEvEES5_ISF_SaISF_EEEC1Ev, symObjAddr: 0x1480C, symBinAddr: 0x100016750, symSize: 0x1C }
  - { offsetInCU: 0x5BD1E, offset: 0x5BD1E, size: 0x8, addend: 0x0, symName: __ZNSt17_Rb_tree_iteratorISt4pairIKNSt7__cxx1112basic_stringIcSt11char_traitsIcESaIcEEEN8nlohmann16json_abi_v3_11_310basic_jsonISt3mapSt6vectorS6_bxydSaNS9_14adl_serializerESC_IhSaIhEEvEEEEC1Ev, symObjAddr: 0x147F0, symBinAddr: 0x100016734, symSize: 0x1C }
  - { offsetInCU: 0x5BC87, offset: 0x5BC87, size: 0x8, addend: 0x0, symName: __ZNSt8_Rb_treeINSt7__cxx1112basic_stringIcSt11char_traitsIcESaIcEEESt4pairIKS5_N8nlohmann16json_abi_v3_11_310basic_jsonISt3mapSt6vectorS5_bxydSaNS9_14adl_serializerESC_IhSaIhEEvEEESt10_Select1stISH_ESt4lessIvESaISH_EE4findERS7_, symObjAddr: 0x14748, symBinAddr: 0x10001668C, symSize: 0xA8 }
  - { offsetInCU: 0x5BCD3, offset: 0x5BCD3, size: 0x8, addend: 0x0, symName: __ZNK9__gnu_cxx17__normal_iteratorIPiSt6vectorIiSaIiEEEmiEl, symObjAddr: 0x14704, symBinAddr: 0x100016648, symSize: 0x44 }
  - { offsetInCU: 0x5BD50, offset: 0x5BD50, size: 0x8, addend: 0x0, symName: __ZNSt12_Vector_baseIN8nlohmann16json_abi_v3_11_310basic_jsonISt3mapSt6vectorNSt7__cxx1112basic_stringIcSt11char_traitsIcESaIcEEEbxydSaNS1_14adl_serializerES4_IhSaIhEEvEESaISE_EE19_M_get_Tp_allocatorEv, symObjAddr: 0x146F0, symBinAddr: 0x100016634, symSize: 0x14 }
  - { offsetInCU: 0x5BD76, offset: 0x5BD76, size: 0x8, addend: 0x0, symName: __ZNSt6vectorIN8nlohmann16json_abi_v3_11_310basic_jsonISt3mapS_NSt7__cxx1112basic_stringIcSt11char_traitsIcESaIcEEEbxydSaNS1_14adl_serializerES_IhSaIhEEvEESaISD_EE11_S_relocateEPSD_SG_SG_RSE_, symObjAddr: 0x146BC, symBinAddr: 0x100016600, symSize: 0x34 }
  - { offsetInCU: 0x5BDD3, offset: 0x5BDD3, size: 0x8, addend: 0x0, symName: __ZSt12__to_addressIN8nlohmann16json_abi_v3_11_310basic_jsonISt3mapSt6vectorNSt7__cxx1112basic_stringIcSt11char_traitsIcESaIcEEEbxydSaNS1_14adl_serializerES4_IhSaIhEEvEEEPT_SG_, symObjAddr: 0x146A8, symBinAddr: 0x1000165EC, symSize: 0x14 }
  - { offsetInCU: 0x5BE3B, offset: 0x5BE3B, size: 0x8, addend: 0x0, symName: __ZNSt12_Vector_baseIN8nlohmann16json_abi_v3_11_310basic_jsonISt3mapSt6vectorNSt7__cxx1112basic_stringIcSt11char_traitsIcESaIcEEEbxydSaNS1_14adl_serializerES4_IhSaIhEEvEESaISE_EE11_M_allocateEm, symObjAddr: 0x14658, symBinAddr: 0x10001659C, symSize: 0x50 }
  - { offsetInCU: 0x5BE9F, offset: 0x5BE9F, size: 0x8, addend: 0x0, symName: __ZN9__gnu_cxxmiIPN8nlohmann16json_abi_v3_11_310basic_jsonISt3mapSt6vectorNSt7__cxx1112basic_stringIcSt11char_traitsIcESaIcEEEbxydSaNS2_14adl_serializerES5_IhSaIhEEvEES5_ISF_SaISF_EEEENS_17__normal_iteratorIT_T0_E15difference_typeERKSM_SP_, symObjAddr: 0x14618, symBinAddr: 0x10001655C, symSize: 0x40 }
  - { offsetInCU: 0x5BEF0, offset: 0x5BEF0, size: 0x8, addend: 0x0, symName: __ZNKSt6vectorIN8nlohmann16json_abi_v3_11_310basic_jsonISt3mapS_NSt7__cxx1112basic_stringIcSt11char_traitsIcESaIcEEEbxydSaNS1_14adl_serializerES_IhSaIhEEvEESaISD_EE12_M_check_lenEmPKc, symObjAddr: 0x14548, symBinAddr: 0x10001648C, symSize: 0xD0 }
  - { offsetInCU: 0x5BF91, offset: 0x5BF91, size: 0x8, addend: 0x0, symName: __ZSt7forwardIRKN8nlohmann16json_abi_v3_11_310basic_jsonISt3mapSt6vectorNSt7__cxx1112basic_stringIcSt11char_traitsIcESaIcEEEbxydSaNS1_14adl_serializerES4_IhSaIhEEvEEEOT_RNSt16remove_referenceISH_E4typeE, symObjAddr: 0x14534, symBinAddr: 0x100016478, symSize: 0x14 }
  - { offsetInCU: 0x5BFC7, offset: 0x5BFC7, size: 0x8, addend: 0x0, symName: __ZNSt10unique_ptrIN8nlohmann16json_abi_v3_11_327byte_container_with_subtypeISt6vectorIhSaIhEEEEZNS1_10basic_jsonISt3mapS3_NSt7__cxx1112basic_stringIcSt11char_traitsIcESaIcEEEbxydSaNS1_14adl_serializerES5_vE6createIS6_JEEEPT_DpOT0_EUlPS6_E_E7releaseEv, symObjAddr: 0x14518, symBinAddr: 0x10001645C, symSize: 0x1C }
  - { offsetInCU: 0x5BFED, offset: 0x5BFED, size: 0x8, addend: 0x0, symName: __ZStneIN8nlohmann16json_abi_v3_11_327byte_container_with_subtypeISt6vectorIhSaIhEEEEZNS1_10basic_jsonISt3mapS3_NSt7__cxx1112basic_stringIcSt11char_traitsIcESaIcEEEbxydSaNS1_14adl_serializerES5_vE6createIS6_JEEEPT_DpOT0_EUlPS6_E_EbRKSt10unique_ptrISI_T0_EDn, symObjAddr: 0x144F8, symBinAddr: 0x10001643C, symSize: 0x20 }
  - { offsetInCU: 0x5C06E, offset: 0x5C06E, size: 0x8, addend: 0x0, symName: __ZNKSt10unique_ptrIN8nlohmann16json_abi_v3_11_327byte_container_with_subtypeISt6vectorIhSaIhEEEEZNS1_10basic_jsonISt3mapS3_NSt7__cxx1112basic_stringIcSt11char_traitsIcESaIcEEEbxydSaNS1_14adl_serializerES5_vE6createIS6_JEEEPT_DpOT0_EUlPS6_E_E3getEv, symObjAddr: 0x144DC, symBinAddr: 0x100016420, symSize: 0x1C }
  - { offsetInCU: 0x5C1BE, offset: 0x5C1BE, size: 0x8, addend: 0x0, symName: __ZNSt10unique_ptrIN8nlohmann16json_abi_v3_11_327byte_container_with_subtypeISt6vectorIhSaIhEEEEZNS1_10basic_jsonISt3mapS3_NSt7__cxx1112basic_stringIcSt11char_traitsIcESaIcEEEbxydSaNS1_14adl_serializerES5_vE6createIS6_JEEEPT_DpOT0_EUlPS6_E_ED1Ev, symObjAddr: 0x14474, symBinAddr: 0x1000163B8, symSize: 0x68 }
  - { offsetInCU: 0x5C25D, offset: 0x5C25D, size: 0x8, addend: 0x0, symName: __ZNSt10unique_ptrIN8nlohmann16json_abi_v3_11_327byte_container_with_subtypeISt6vectorIhSaIhEEEEZNS1_10basic_jsonISt3mapS3_NSt7__cxx1112basic_stringIcSt11char_traitsIcESaIcEEEbxydSaNS1_14adl_serializerES5_vE6createIS6_JEEEPT_DpOT0_EUlPS6_E_EC1ISO_vEESN_RKSO_, symObjAddr: 0x14444, symBinAddr: 0x100016388, symSize: 0x30 }
  - { offsetInCU: 0x5C2F7, offset: 0x5C2F7, size: 0x8, addend: 0x0, symName: __ZNSt15__uniq_ptr_dataIN8nlohmann16json_abi_v3_11_327byte_container_with_subtypeISt6vectorIhSaIhEEEEZNS1_10basic_jsonISt3mapS3_NSt7__cxx1112basic_stringIcSt11char_traitsIcESaIcEEEbxydSaNS1_14adl_serializerES5_vE6createIS6_JEEEPT_DpOT0_EUlPS6_E_Lb1ELb0EECI1St15__uniq_ptr_implIS6_SO_EIRKSO_EESN_OSI_, symObjAddr: 0x14414, symBinAddr: 0x100016358, symSize: 0x30 }
  - { offsetInCU: 0x5C235, offset: 0x5C235, size: 0x8, addend: 0x0, symName: __ZNSt10unique_ptrINSt7__cxx1112basic_stringIcSt11char_traitsIcESaIcEEEZN8nlohmann16json_abi_v3_11_310basic_jsonISt3mapSt6vectorS5_bxydSaNS7_14adl_serializerESA_IhSaIhEEvE6createIS5_JRA1_KcEEEPT_DpOT0_EUlPS5_E_E7releaseEv, symObjAddr: 0x143F8, symBinAddr: 0x10001633C, symSize: 0x1C }
  - { offsetInCU: 0x5C25B, offset: 0x5C25B, size: 0x8, addend: 0x0, symName: __ZStneINSt7__cxx1112basic_stringIcSt11char_traitsIcESaIcEEEZN8nlohmann16json_abi_v3_11_310basic_jsonISt3mapSt6vectorS5_bxydSaNS7_14adl_serializerESA_IhSaIhEEvE6createIS5_JRA1_KcEEEPT_DpOT0_EUlPS5_E_EbRKSt10unique_ptrISJ_T0_EDn, symObjAddr: 0x143D8, symBinAddr: 0x10001631C, symSize: 0x20 }
  - { offsetInCU: 0x5C2EA, offset: 0x5C2EA, size: 0x8, addend: 0x0, symName: __ZSt7forwardIRA1_KcEOT_RNSt16remove_referenceIS3_E4typeE, symObjAddr: 0x143C4, symBinAddr: 0x100016308, symSize: 0x14 }
  - { offsetInCU: 0x5C320, offset: 0x5C320, size: 0x8, addend: 0x0, symName: __ZNKSt10unique_ptrINSt7__cxx1112basic_stringIcSt11char_traitsIcESaIcEEEZN8nlohmann16json_abi_v3_11_310basic_jsonISt3mapSt6vectorS5_bxydSaNS7_14adl_serializerESA_IhSaIhEEvE6createIS5_JRA1_KcEEEPT_DpOT0_EUlPS5_E_E3getEv, symObjAddr: 0x143A8, symBinAddr: 0x1000162EC, symSize: 0x1C }
  - { offsetInCU: 0x5C452, offset: 0x5C452, size: 0x8, addend: 0x0, symName: __ZNSt10unique_ptrINSt7__cxx1112basic_stringIcSt11char_traitsIcESaIcEEEZN8nlohmann16json_abi_v3_11_310basic_jsonISt3mapSt6vectorS5_bxydSaNS7_14adl_serializerESA_IhSaIhEEvE6createIS5_JRA1_KcEEEPT_DpOT0_EUlPS5_E_ED1Ev, symObjAddr: 0x14340, symBinAddr: 0x100016284, symSize: 0x68 }
  - { offsetInCU: 0x5C4F1, offset: 0x5C4F1, size: 0x8, addend: 0x0, symName: __ZNSt10unique_ptrINSt7__cxx1112basic_stringIcSt11char_traitsIcESaIcEEEZN8nlohmann16json_abi_v3_11_310basic_jsonISt3mapSt6vectorS5_bxydSaNS7_14adl_serializerESA_IhSaIhEEvE6createIS5_JRA1_KcEEEPT_DpOT0_EUlPS5_E_EC1ISP_vEESO_RKSP_, symObjAddr: 0x14310, symBinAddr: 0x100016254, symSize: 0x30 }
  - { offsetInCU: 0x5C58B, offset: 0x5C58B, size: 0x8, addend: 0x0, symName: __ZNSt15__uniq_ptr_dataINSt7__cxx1112basic_stringIcSt11char_traitsIcESaIcEEEZN8nlohmann16json_abi_v3_11_310basic_jsonISt3mapSt6vectorS5_bxydSaNS7_14adl_serializerESA_IhSaIhEEvE6createIS5_JRA1_KcEEEPT_DpOT0_EUlPS5_E_Lb1ELb0EECI1St15__uniq_ptr_implIS5_SP_EIRKSP_EESO_OSJ_, symObjAddr: 0x142E0, symBinAddr: 0x100016224, symSize: 0x30 }
  - { offsetInCU: 0x5C4E7, offset: 0x5C4E7, size: 0x8, addend: 0x0, symName: __ZNSt10unique_ptrISt6vectorIN8nlohmann16json_abi_v3_11_310basic_jsonISt3mapS0_NSt7__cxx1112basic_stringIcSt11char_traitsIcESaIcEEEbxydSaNS2_14adl_serializerES0_IhSaIhEEvEESaISE_EEZNSE_6createISG_JEEEPT_DpOT0_EUlPSG_E_E7releaseEv, symObjAddr: 0x142C4, symBinAddr: 0x100016208, symSize: 0x1C }
  - { offsetInCU: 0x5C50D, offset: 0x5C50D, size: 0x8, addend: 0x0, symName: __ZStneISt6vectorIN8nlohmann16json_abi_v3_11_310basic_jsonISt3mapS0_NSt7__cxx1112basic_stringIcSt11char_traitsIcESaIcEEEbxydSaNS2_14adl_serializerES0_IhSaIhEEvEESaISE_EEZNSE_6createISG_JEEEPT_DpOT0_EUlPSG_E_EbRKSt10unique_ptrISI_T0_EDn, symObjAddr: 0x142A4, symBinAddr: 0x1000161E8, symSize: 0x20 }
  - { offsetInCU: 0x5C58E, offset: 0x5C58E, size: 0x8, addend: 0x0, symName: __ZNKSt10unique_ptrISt6vectorIN8nlohmann16json_abi_v3_11_310basic_jsonISt3mapS0_NSt7__cxx1112basic_stringIcSt11char_traitsIcESaIcEEEbxydSaNS2_14adl_serializerES0_IhSaIhEEvEESaISE_EEZNSE_6createISG_JEEEPT_DpOT0_EUlPSG_E_E3getEv, symObjAddr: 0x14288, symBinAddr: 0x1000161CC, symSize: 0x1C }
  - { offsetInCU: 0x5C6C8, offset: 0x5C6C8, size: 0x8, addend: 0x0, symName: __ZNSt10unique_ptrISt6vectorIN8nlohmann16json_abi_v3_11_310basic_jsonISt3mapS0_NSt7__cxx1112basic_stringIcSt11char_traitsIcESaIcEEEbxydSaNS2_14adl_serializerES0_IhSaIhEEvEESaISE_EEZNSE_6createISG_JEEEPT_DpOT0_EUlPSG_E_ED1Ev, symObjAddr: 0x14220, symBinAddr: 0x100016164, symSize: 0x68 }
  - { offsetInCU: 0x5C767, offset: 0x5C767, size: 0x8, addend: 0x0, symName: __ZNSt10unique_ptrISt6vectorIN8nlohmann16json_abi_v3_11_310basic_jsonISt3mapS0_NSt7__cxx1112basic_stringIcSt11char_traitsIcESaIcEEEbxydSaNS2_14adl_serializerES0_IhSaIhEEvEESaISE_EEZNSE_6createISG_JEEEPT_DpOT0_EUlPSG_E_EC1ISO_vEESN_RKSO_, symObjAddr: 0x141F0, symBinAddr: 0x100016134, symSize: 0x30 }
  - { offsetInCU: 0x5C801, offset: 0x5C801, size: 0x8, addend: 0x0, symName: __ZNSt15__uniq_ptr_dataISt6vectorIN8nlohmann16json_abi_v3_11_310basic_jsonISt3mapS0_NSt7__cxx1112basic_stringIcSt11char_traitsIcESaIcEEEbxydSaNS2_14adl_serializerES0_IhSaIhEEvEESaISE_EEZNSE_6createISG_JEEEPT_DpOT0_EUlPSG_E_Lb1ELb0EECI1St15__uniq_ptr_implISG_SO_EIRKSO_EESN_OSI_, symObjAddr: 0x141C0, symBinAddr: 0x100016104, symSize: 0x30 }
  - { offsetInCU: 0x5C72D, offset: 0x5C72D, size: 0x8, addend: 0x0, symName: __ZN8nlohmann16json_abi_v3_11_36detail11concat_intoINSt7__cxx1112basic_stringIcSt11char_traitsIcESaIcEEES8_JS8_RKS8_ELi0EEEvRT_OT0_DpOT1_, symObjAddr: 0x1415C, symBinAddr: 0x1000160A0, symSize: 0x64 }
  - { offsetInCU: 0x5C7A3, offset: 0x5C7A3, size: 0x8, addend: 0x0, symName: __ZN8nlohmann16json_abi_v3_11_36detail13concat_lengthINSt7__cxx1112basic_stringIcSt11char_traitsIcESaIcEEEJS8_S8_EEEmRKT_DpRKT0_, symObjAddr: 0x1411C, symBinAddr: 0x100016060, symSize: 0x40 }
  - { offsetInCU: 0x5C7FF, offset: 0x5C7FF, size: 0x8, addend: 0x0, symName: __ZN8nlohmann16json_abi_v3_11_36detail11concat_intoINSt7__cxx1112basic_stringIcSt11char_traitsIcESaIcEEEPKcJELi0EEEvRT_OT0_DpOT1_, symObjAddr: 0x140E0, symBinAddr: 0x100016024, symSize: 0x3C }
  - { offsetInCU: 0x5C857, offset: 0x5C857, size: 0x8, addend: 0x0, symName: __ZN8nlohmann16json_abi_v3_11_36detail13concat_lengthIJEEEmPKcDpRKT_, symObjAddr: 0x140B0, symBinAddr: 0x100015FF4, symSize: 0x30 }
  - { offsetInCU: 0x5C88C, offset: 0x5C88C, size: 0x8, addend: 0x0, symName: __ZN8nlohmann16json_abi_v3_11_36detail7to_jsonINS0_10basic_jsonISt3mapSt6vectorNSt7__cxx1112basic_stringIcSt11char_traitsIcESaIcEEEbxydSaNS0_14adl_serializerES5_IhSaIhEEvEEiLi0EEEvRT_T0_, symObjAddr: 0x14084, symBinAddr: 0x100015FC8, symSize: 0x2C }
  - { offsetInCU: 0x5C8DF, offset: 0x5C8DF, size: 0x8, addend: 0x0, symName: __ZN8nlohmann16json_abi_v3_11_36detail11concat_intoINSt7__cxx1112basic_stringIcSt11char_traitsIcESaIcEEERA51_KcJPS9_ELi0EEEvRT_OT0_DpOT1_, symObjAddr: 0x1403C, symBinAddr: 0x100015F80, symSize: 0x48 }
  - { offsetInCU: 0x5C94D, offset: 0x5C94D, size: 0x8, addend: 0x0, symName: __ZSt7forwardIRA51_KcEOT_RNSt16remove_referenceIS3_E4typeE, symObjAddr: 0x14028, symBinAddr: 0x100015F6C, symSize: 0x14 }
  - { offsetInCU: 0x5C983, offset: 0x5C983, size: 0x8, addend: 0x0, symName: __ZNSt3mapINSt7__cxx1112basic_stringIcSt11char_traitsIcESaIcEEEN8nlohmann16json_abi_v3_11_310basic_jsonIS_St6vectorS5_bxydSaNS7_14adl_serializerES9_IhSaIhEEvEESt4lessIvESaISt4pairIKS5_SD_EEE12emplace_hintIJS5_DnEEESt17_Rb_tree_iteratorISI_ESt23_Rb_tree_const_iteratorISI_EDpOT_, symObjAddr: 0x13FD4, symBinAddr: 0x100015F18, symSize: 0x54 }
  - { offsetInCU: 0x5C9E9, offset: 0x5C9E9, size: 0x8, addend: 0x0, symName: __ZSt7forwardIDnEOT_RNSt16remove_referenceIS0_E4typeE, symObjAddr: 0x13FC0, symBinAddr: 0x100015F04, symSize: 0x14 }
  - { offsetInCU: 0x5CA21, offset: 0x5CA21, size: 0x8, addend: 0x0, symName: __ZSt7forwardIRDnEOT_RNSt16remove_referenceIS1_E4typeE, symObjAddr: 0x13FAC, symBinAddr: 0x100015EF0, symSize: 0x14 }
  - { offsetInCU: 0x5CA57, offset: 0x5CA57, size: 0x8, addend: 0x0, symName: __ZNSt10unique_ptrISt3mapINSt7__cxx1112basic_stringIcSt11char_traitsIcESaIcEEEN8nlohmann16json_abi_v3_11_310basic_jsonIS0_St6vectorS6_bxydSaNS8_14adl_serializerESA_IhSaIhEEvEESt4lessIvESaISt4pairIKS6_SE_EEEZNSE_6createISL_JEEEPT_DpOT0_EUlPSL_E_E7releaseEv, symObjAddr: 0x13F90, symBinAddr: 0x100015ED4, symSize: 0x1C }
  - { offsetInCU: 0x5CA7D, offset: 0x5CA7D, size: 0x8, addend: 0x0, symName: __ZStneISt3mapINSt7__cxx1112basic_stringIcSt11char_traitsIcESaIcEEEN8nlohmann16json_abi_v3_11_310basic_jsonIS0_St6vectorS6_bxydSaNS8_14adl_serializerESA_IhSaIhEEvEESt4lessIvESaISt4pairIKS6_SE_EEEZNSE_6createISL_JEEEPT_DpOT0_EUlPSL_E_EbRKSt10unique_ptrISN_T0_EDn, symObjAddr: 0x13F70, symBinAddr: 0x100015EB4, symSize: 0x20 }
  - { offsetInCU: 0x5CAFE, offset: 0x5CAFE, size: 0x8, addend: 0x0, symName: __ZNKSt10unique_ptrISt3mapINSt7__cxx1112basic_stringIcSt11char_traitsIcESaIcEEEN8nlohmann16json_abi_v3_11_310basic_jsonIS0_St6vectorS6_bxydSaNS8_14adl_serializerESA_IhSaIhEEvEESt4lessIvESaISt4pairIKS6_SE_EEEZNSE_6createISL_JEEEPT_DpOT0_EUlPSL_E_E3getEv, symObjAddr: 0x13F54, symBinAddr: 0x100015E98, symSize: 0x1C }
  - { offsetInCU: 0x5CC52, offset: 0x5CC52, size: 0x8, addend: 0x0, symName: __ZNSt10unique_ptrISt3mapINSt7__cxx1112basic_stringIcSt11char_traitsIcESaIcEEEN8nlohmann16json_abi_v3_11_310basic_jsonIS0_St6vectorS6_bxydSaNS8_14adl_serializerESA_IhSaIhEEvEESt4lessIvESaISt4pairIKS6_SE_EEEZNSE_6createISL_JEEEPT_DpOT0_EUlPSL_E_ED1Ev, symObjAddr: 0x13EEC, symBinAddr: 0x100015E30, symSize: 0x68 }
  - { offsetInCU: 0x5CCF1, offset: 0x5CCF1, size: 0x8, addend: 0x0, symName: __ZNSt10unique_ptrISt3mapINSt7__cxx1112basic_stringIcSt11char_traitsIcESaIcEEEN8nlohmann16json_abi_v3_11_310basic_jsonIS0_St6vectorS6_bxydSaNS8_14adl_serializerESA_IhSaIhEEvEESt4lessIvESaISt4pairIKS6_SE_EEEZNSE_6createISL_JEEEPT_DpOT0_EUlPSL_E_EC1IST_vEESS_RKST_, symObjAddr: 0x13EBC, symBinAddr: 0x100015E00, symSize: 0x30 }
  - { offsetInCU: 0x5CD8B, offset: 0x5CD8B, size: 0x8, addend: 0x0, symName: __ZNSt15__uniq_ptr_dataISt3mapINSt7__cxx1112basic_stringIcSt11char_traitsIcESaIcEEEN8nlohmann16json_abi_v3_11_310basic_jsonIS0_St6vectorS6_bxydSaNS8_14adl_serializerESA_IhSaIhEEvEESt4lessIvESaISt4pairIKS6_SE_EEEZNSE_6createISL_JEEEPT_DpOT0_EUlPSL_E_Lb1ELb0EECI1St15__uniq_ptr_implISL_ST_EIRKST_EESS_OSN_, symObjAddr: 0x13E8C, symBinAddr: 0x100015DD0, symSize: 0x30 }
  - { offsetInCU: 0x5CCC1, offset: 0x5CCC1, size: 0x8, addend: 0x0, symName: __ZSt12__relocate_aIPiS0_SaIiEET0_T_S3_S2_RT1_, symObjAddr: 0x13E30, symBinAddr: 0x100015D74, symSize: 0x5C }
  - { offsetInCU: 0x5CD3D, offset: 0x5CD3D, size: 0x8, addend: 0x0, symName: __ZNKSt6vectorIiSaIiEE8max_sizeEv, symObjAddr: 0x13E10, symBinAddr: 0x100015D54, symSize: 0x20 }
  - { offsetInCU: 0x5CD67, offset: 0x5CD67, size: 0x8, addend: 0x0, symName: __ZNSt15__new_allocatorIiE10deallocateEPim, symObjAddr: 0x13DE0, symBinAddr: 0x100015D24, symSize: 0x30 }
  - { offsetInCU: 0x5CDAD, offset: 0x5CDAD, size: 0x8, addend: 0x0, symName: __ZNSt20__uninitialized_copyILb0EE13__uninit_copyIPSt6vectorIiSaIiEES5_EET0_T_S7_S6_, symObjAddr: 0x13DB4, symBinAddr: 0x100015CF8, symSize: 0x2C }
  - { offsetInCU: 0x5CE08, offset: 0x5CE08, size: 0x8, addend: 0x0, symName: __ZSt12__niter_wrapIPSt6vectorIiSaIiEEET_RKS4_S4_, symObjAddr: 0x13D9C, symBinAddr: 0x100015CE0, symSize: 0x18 }
  - { offsetInCU: 0x5CE44, offset: 0x5CE44, size: 0x8, addend: 0x0, symName: __ZSt14__copy_move_a1ILb0EPSt6vectorIiSaIiEES3_ET1_T0_S5_S4_, symObjAddr: 0x13D70, symBinAddr: 0x100015CB4, symSize: 0x2C }
  - { offsetInCU: 0x5CEAC, offset: 0x5CEAC, size: 0x8, addend: 0x0, symName: __ZSt12__niter_baseIPSt6vectorIiSaIiEEET_S4_, symObjAddr: 0x13D5C, symBinAddr: 0x100015CA0, symSize: 0x14 }
  - { offsetInCU: 0x5CEDF, offset: 0x5CEDF, size: 0x8, addend: 0x0, symName: __ZNSt12_Destroy_auxILb0EE9__destroyIN9__gnu_cxx17__normal_iteratorIPSt6vectorIiSaIiEES4_IS6_SaIS6_EEEEEEvT_SB_, symObjAddr: 0x13D08, symBinAddr: 0x100015C4C, symSize: 0x54 }
  - { offsetInCU: 0x5CF21, offset: 0x5CF21, size: 0x8, addend: 0x0, symName: __ZSt12__niter_wrapIN9__gnu_cxx17__normal_iteratorIPSt6vectorIiSaIiEES2_IS4_SaIS4_EEEES5_ET_S9_T0_, symObjAddr: 0x13CB4, symBinAddr: 0x100015BF8, symSize: 0x54 }
  - { offsetInCU: 0x5CF6E, offset: 0x5CF6E, size: 0x8, addend: 0x0, symName: __ZSt14__copy_move_a1ILb0EPKSt6vectorIiSaIiEEPS2_ET1_T0_S7_S6_, symObjAddr: 0x13C88, symBinAddr: 0x100015BCC, symSize: 0x2C }
  - { offsetInCU: 0x5CFD6, offset: 0x5CFD6, size: 0x8, addend: 0x0, symName: __ZSt12__niter_baseIPSt6vectorIiSaIiEES0_IS2_SaIS2_EEET_N9__gnu_cxx17__normal_iteratorIS6_T0_EE, symObjAddr: 0x13C68, symBinAddr: 0x100015BAC, symSize: 0x20 }
  - { offsetInCU: 0x5D012, offset: 0x5D012, size: 0x8, addend: 0x0, symName: __ZSt12__niter_baseIPKSt6vectorIiSaIiEES0_IS2_SaIS2_EEET_N9__gnu_cxx17__normal_iteratorIS7_T0_EE, symObjAddr: 0x13C48, symBinAddr: 0x100015B8C, symSize: 0x20 }
  - { offsetInCU: 0x5D04E, offset: 0x5D04E, size: 0x8, addend: 0x0, symName: __ZSt18uninitialized_copyIN9__gnu_cxx17__normal_iteratorIPKSt6vectorIiSaIiEES2_IS4_SaIS4_EEEEPS4_ET0_T_SC_SB_, symObjAddr: 0x13C14, symBinAddr: 0x100015B58, symSize: 0x34 }
  - { offsetInCU: 0x5D0F1, offset: 0x5D0F1, size: 0x8, addend: 0x0, symName: __ZNSt15__new_allocatorISt6vectorIiSaIiEEE10deallocateEPS2_m, symObjAddr: 0x13BD8, symBinAddr: 0x100015B1C, symSize: 0x3C }
  - { offsetInCU: 0x5D13B, offset: 0x5D13B, size: 0x8, addend: 0x0, symName: __ZNSt8_Rb_treeIiSt4pairIKiSt6vectorIS2_IiSaIiEESaIS4_EEESt10_Select1stIS7_ESt4lessIiESaIS7_EE14_M_insert_nodeEPSt18_Rb_tree_node_baseSF_PSt13_Rb_tree_nodeIS7_E, symObjAddr: 0x13B08, symBinAddr: 0x100015A4C, symSize: 0xD0 }
  - { offsetInCU: 0x5D1A5, offset: 0x5D1A5, size: 0x8, addend: 0x0, symName: __ZNSt8_Rb_treeIiSt4pairIKiSt6vectorIS2_IiSaIiEESaIS4_EEESt10_Select1stIS7_ESt4lessIiESaIS7_EE6_S_keyEPKSt13_Rb_tree_nodeIS7_E, symObjAddr: 0x13AE0, symBinAddr: 0x100015A24, symSize: 0x28 }
  - { offsetInCU: 0x5D1D3, offset: 0x5D1D3, size: 0x8, addend: 0x0, symName: __ZNSt17_Rb_tree_iteratorISt4pairIKiSt6vectorIS2_IiSaIiEESaIS4_EEEEppEv, symObjAddr: 0x13AB0, symBinAddr: 0x1000159F4, symSize: 0x30 }
  - { offsetInCU: 0x5D1FD, offset: 0x5D1FD, size: 0x8, addend: 0x0, symName: __ZNSt17_Rb_tree_iteratorISt4pairIKiSt6vectorIS2_IiSaIiEESaIS4_EEEEmmEv, symObjAddr: 0x13A80, symBinAddr: 0x1000159C4, symSize: 0x30 }
  - { offsetInCU: 0x5D2A9, offset: 0x5D2A9, size: 0x8, addend: 0x0, symName: __ZNSt4pairIPSt18_Rb_tree_node_baseS1_EC1IRS1_S4_Lb1EEEOT_OT0_, symObjAddr: 0x13A38, symBinAddr: 0x10001597C, symSize: 0x48 }
  - { offsetInCU: 0x5D2B9, offset: 0x5D2B9, size: 0x8, addend: 0x0, symName: __ZNSt8_Rb_treeIiSt4pairIKiSt6vectorIS2_IiSaIiEESaIS4_EEESt10_Select1stIS7_ESt4lessIiESaIS7_EE11_M_leftmostEv, symObjAddr: 0x13A20, symBinAddr: 0x100015964, symSize: 0x18 }
  - { offsetInCU: 0x5D2E3, offset: 0x5D2E3, size: 0x8, addend: 0x0, symName: __ZNSt8_Rb_treeIiSt4pairIKiSt6vectorIS2_IiSaIiEESaIS4_EEESt10_Select1stIS7_ESt4lessIiESaIS7_EE24_M_get_insert_unique_posERS1_, symObjAddr: 0x138C8, symBinAddr: 0x10001580C, symSize: 0x158 }
  - { offsetInCU: 0x5D3E9, offset: 0x5D3E9, size: 0x8, addend: 0x0, symName: __ZNSt4pairIPSt18_Rb_tree_node_baseS1_EC1IS1_S1_Lb1EEERKS1_S5_, symObjAddr: 0x1388C, symBinAddr: 0x1000157D0, symSize: 0x3C }
  - { offsetInCU: 0x5D3F5, offset: 0x5D3F5, size: 0x8, addend: 0x0, symName: __ZNSt8_Rb_treeIiSt4pairIKiSt6vectorIS2_IiSaIiEESaIS4_EEESt10_Select1stIS7_ESt4lessIiESaIS7_EE6_S_keyEPKSt18_Rb_tree_node_base, symObjAddr: 0x13870, symBinAddr: 0x1000157B4, symSize: 0x1C }
  - { offsetInCU: 0x5D423, offset: 0x5D423, size: 0x8, addend: 0x0, symName: __ZNSt8_Rb_treeIiSt4pairIKiSt6vectorIS2_IiSaIiEESaIS4_EEESt10_Select1stIS7_ESt4lessIiESaIS7_EE12_M_rightmostEv, symObjAddr: 0x13858, symBinAddr: 0x10001579C, symSize: 0x18 }
  - { offsetInCU: 0x5D44D, offset: 0x5D44D, size: 0x8, addend: 0x0, symName: __ZNKSt8_Rb_treeIiSt4pairIKiSt6vectorIS2_IiSaIiEESaIS4_EEESt10_Select1stIS7_ESt4lessIiESaIS7_EE4sizeEv, symObjAddr: 0x13840, symBinAddr: 0x100015784, symSize: 0x18 }
  - { offsetInCU: 0x5D477, offset: 0x5D477, size: 0x8, addend: 0x0, symName: __ZNKSt23_Rb_tree_const_iteratorISt4pairIKiSt6vectorIS2_IiSaIiEESaIS4_EEEE13_M_const_castEv, symObjAddr: 0x13818, symBinAddr: 0x10001575C, symSize: 0x28 }
  - { offsetInCU: 0x5D4A1, offset: 0x5D4A1, size: 0x8, addend: 0x0, symName: __ZNSt8_Rb_treeIiSt4pairIKiSt6vectorIS2_IiSaIiEESaIS4_EEESt10_Select1stIS7_ESt4lessIiESaIS7_EE14_M_create_nodeIJRKSt21piecewise_construct_tSt5tupleIJRS1_EESI_IJEEEEEPSt13_Rb_tree_nodeIS7_EDpOT_, symObjAddr: 0x137A8, symBinAddr: 0x1000156EC, symSize: 0x70 }
  - { offsetInCU: 0x5D55B, offset: 0x5D55B, size: 0x8, addend: 0x0, symName: __ZNSt10_Head_baseILm0ERKiLb0EEC2ES1_, symObjAddr: 0x13784, symBinAddr: 0x1000156C8, symSize: 0x24 }
  - { offsetInCU: 0x5D569, offset: 0x5D569, size: 0x8, addend: 0x0, symName: __ZN9__gnu_cxx16__aligned_membufISt4pairIKiSt6vectorIS3_IiSaIiEESaIS5_EEEE6_M_ptrEv, symObjAddr: 0x13768, symBinAddr: 0x1000156AC, symSize: 0x1C }
  - { offsetInCU: 0x5D593, offset: 0x5D593, size: 0x8, addend: 0x0, symName: __ZNSt8_Rb_treeIiSt4pairIKiSt6vectorIS2_IiSaIiEESaIS4_EEESt10_Select1stIS7_ESt4lessIiESaIS7_EE14_M_lower_boundEPSt13_Rb_tree_nodeIS7_EPSt18_Rb_tree_node_baseRS1_, symObjAddr: 0x136CC, symBinAddr: 0x100015610, symSize: 0x9C }
  - { offsetInCU: 0x5D5F0, offset: 0x5D5F0, size: 0x8, addend: 0x0, symName: __ZNSt8_Rb_treeIiSt4pairIKiSt6vectorIS2_IiSaIiEESaIS4_EEESt10_Select1stIS7_ESt4lessIiESaIS7_EE6_M_endEv, symObjAddr: 0x136B4, symBinAddr: 0x1000155F8, symSize: 0x18 }
  - { offsetInCU: 0x5D616, offset: 0x5D616, size: 0x8, addend: 0x0, symName: __ZNSt12_Destroy_auxILb0EE9__destroyIPSt6vectorIiSaIiEEEEvT_S6_, symObjAddr: 0x13668, symBinAddr: 0x1000155AC, symSize: 0x4C }
  - { offsetInCU: 0x5D658, offset: 0x5D658, size: 0x8, addend: 0x0, symName: __ZSt20uninitialized_fill_nIPSt6vectorIiSaIiEEmS2_ET_S4_T0_RKT1_, symObjAddr: 0x13638, symBinAddr: 0x10001557C, symSize: 0x30 }
  - { offsetInCU: 0x5D701, offset: 0x5D701, size: 0x8, addend: 0x0, symName: __ZNSt12_Destroy_auxILb1EE9__destroyIPiEEvT_S3_, symObjAddr: 0x13620, symBinAddr: 0x100015564, symSize: 0x18 }
  - { offsetInCU: 0x5D735, offset: 0x5D735, size: 0x8, addend: 0x0, symName: __ZSt25__uninitialized_default_nIPimET_S1_T0_, symObjAddr: 0x135F4, symBinAddr: 0x100015538, symSize: 0x2C }
  - { offsetInCU: 0x5D7AD, offset: 0x5D7AD, size: 0x8, addend: 0x0, symName: __ZNSt8_Rb_treeIiSt4pairIKiSt6vectorIS2_IiSaIiEESaIS4_EEESt10_Select1stIS7_ESt4lessIiESaIS7_EE11_M_put_nodeEPSt13_Rb_tree_nodeIS7_E, symObjAddr: 0x135A8, symBinAddr: 0x1000154EC, symSize: 0x4C }
  - { offsetInCU: 0x5D81E, offset: 0x5D81E, size: 0x8, addend: 0x0, symName: __ZNSt8_Rb_treeIiSt4pairIKiSt6vectorIS2_IiSaIiEESaIS4_EEESt10_Select1stIS7_ESt4lessIiESaIS7_EE15_M_destroy_nodeEPSt13_Rb_tree_nodeIS7_E, symObjAddr: 0x13548, symBinAddr: 0x10001548C, symSize: 0x60 }
  - { offsetInCU: 0x5D8B3, offset: 0x5D8B3, size: 0x8, addend: 0x0, symName: __ZNSt10unique_ptrISt6vectorIN8nlohmann16json_abi_v3_11_310basic_jsonISt3mapS0_NSt7__cxx1112basic_stringIcSt11char_traitsIcESaIcEEEbxydSaNS2_14adl_serializerES0_IhSaIhEEvEESaISE_EEZNSE_6createISG_JPKNS2_6detail8json_refISE_EESM_EEEPT_DpOT0_EUlPSG_E_E7releaseEv, symObjAddr: 0x1352C, symBinAddr: 0x100015470, symSize: 0x1C }
  - { offsetInCU: 0x5D8D9, offset: 0x5D8D9, size: 0x8, addend: 0x0, symName: __ZStneISt6vectorIN8nlohmann16json_abi_v3_11_310basic_jsonISt3mapS0_NSt7__cxx1112basic_stringIcSt11char_traitsIcESaIcEEEbxydSaNS2_14adl_serializerES0_IhSaIhEEvEESaISE_EEZNSE_6createISG_JPKNS2_6detail8json_refISE_EESM_EEEPT_DpOT0_EUlPSG_E_EbRKSt10unique_ptrISN_T0_EDn, symObjAddr: 0x1350C, symBinAddr: 0x100015450, symSize: 0x20 }
  - { offsetInCU: 0x5D988, offset: 0x5D988, size: 0x8, addend: 0x0, symName: __ZSt7forwardIPKN8nlohmann16json_abi_v3_11_36detail8json_refINS1_10basic_jsonISt3mapSt6vectorNSt7__cxx1112basic_stringIcSt11char_traitsIcESaIcEEEbxydSaNS1_14adl_serializerES6_IhSaIhEEvEEEEEOT_RNSt16remove_referenceISK_E4typeE, symObjAddr: 0x134F8, symBinAddr: 0x10001543C, symSize: 0x14 }
  - { offsetInCU: 0x5D9BE, offset: 0x5D9BE, size: 0x8, addend: 0x0, symName: __ZNKSt10unique_ptrISt6vectorIN8nlohmann16json_abi_v3_11_310basic_jsonISt3mapS0_NSt7__cxx1112basic_stringIcSt11char_traitsIcESaIcEEEbxydSaNS2_14adl_serializerES0_IhSaIhEEvEESaISE_EEZNSE_6createISG_JPKNS2_6detail8json_refISE_EESM_EEEPT_DpOT0_EUlPSG_E_E3getEv, symObjAddr: 0x134DC, symBinAddr: 0x100015420, symSize: 0x1C }
  - { offsetInCU: 0x5DB17, offset: 0x5DB17, size: 0x8, addend: 0x0, symName: __ZNSt10unique_ptrISt6vectorIN8nlohmann16json_abi_v3_11_310basic_jsonISt3mapS0_NSt7__cxx1112basic_stringIcSt11char_traitsIcESaIcEEEbxydSaNS2_14adl_serializerES0_IhSaIhEEvEESaISE_EEZNSE_6createISG_JPKNS2_6detail8json_refISE_EESM_EEEPT_DpOT0_EUlPSG_E_ED1Ev, symObjAddr: 0x13474, symBinAddr: 0x1000153B8, symSize: 0x68 }
  - { offsetInCU: 0x5DBB6, offset: 0x5DBB6, size: 0x8, addend: 0x0, symName: __ZNSt10unique_ptrISt6vectorIN8nlohmann16json_abi_v3_11_310basic_jsonISt3mapS0_NSt7__cxx1112basic_stringIcSt11char_traitsIcESaIcEEEbxydSaNS2_14adl_serializerES0_IhSaIhEEvEESaISE_EEZNSE_6createISG_JPKNS2_6detail8json_refISE_EESM_EEEPT_DpOT0_EUlPSG_E_EC1IST_vEESS_RKST_, symObjAddr: 0x13444, symBinAddr: 0x100015388, symSize: 0x30 }
  - { offsetInCU: 0x5DC50, offset: 0x5DC50, size: 0x8, addend: 0x0, symName: __ZNSt15__uniq_ptr_dataISt6vectorIN8nlohmann16json_abi_v3_11_310basic_jsonISt3mapS0_NSt7__cxx1112basic_stringIcSt11char_traitsIcESaIcEEEbxydSaNS2_14adl_serializerES0_IhSaIhEEvEESaISE_EEZNSE_6createISG_JPKNS2_6detail8json_refISE_EESM_EEEPT_DpOT0_EUlPSG_E_Lb1ELb0EECI1St15__uniq_ptr_implISG_ST_EIRKST_EESS_OSN_, symObjAddr: 0x13414, symBinAddr: 0x100015358, symSize: 0x30 }
  - { offsetInCU: 0x5DCA0, offset: 0x5DCA0, size: 0x8, addend: 0x0, symName: __ZNSt4pairISt17_Rb_tree_iteratorIS_IKNSt7__cxx1112basic_stringIcSt11char_traitsIcESaIcEEEN8nlohmann16json_abi_v3_11_310basic_jsonISt3mapSt6vectorS6_bxydSaNS9_14adl_serializerESC_IhSaIhEEvEEEEbEC1IRSI_bLb1EEEOT_OT0_, symObjAddr: 0x133C8, symBinAddr: 0x10001530C, symSize: 0x4C }
  - { offsetInCU: 0x5DC17, offset: 0x5DC17, size: 0x8, addend: 0x0, symName: __ZNSt3mapINSt7__cxx1112basic_stringIcSt11char_traitsIcESaIcEEEN8nlohmann16json_abi_v3_11_310basic_jsonIS_St6vectorS5_bxydSaNS7_14adl_serializerES9_IhSaIhEEvEESt4lessIvESaISt4pairIKS5_SD_EEE12emplace_hintIJS5_SD_EEESt17_Rb_tree_iteratorISI_ESt23_Rb_tree_const_iteratorISI_EDpOT_, symObjAddr: 0x13374, symBinAddr: 0x1000152B8, symSize: 0x54 }
  - { offsetInCU: 0x5DD81, offset: 0x5DD81, size: 0x8, addend: 0x0, symName: __ZNSt23_Rb_tree_const_iteratorISt4pairIKNSt7__cxx1112basic_stringIcSt11char_traitsIcESaIcEEEN8nlohmann16json_abi_v3_11_310basic_jsonISt3mapSt6vectorS6_bxydSaNS9_14adl_serializerESC_IhSaIhEEvEEEEC1ERKSt17_Rb_tree_iteratorISH_E, symObjAddr: 0x1334C, symBinAddr: 0x100015290, symSize: 0x28 }
  - { offsetInCU: 0x5DCD4, offset: 0x5DCD4, size: 0x8, addend: 0x0, symName: __ZSt7forwardIN8nlohmann16json_abi_v3_11_310basic_jsonISt3mapSt6vectorNSt7__cxx1112basic_stringIcSt11char_traitsIcESaIcEEEbxydSaNS1_14adl_serializerES4_IhSaIhEEvEEEOT_RNSt16remove_referenceISF_E4typeE, symObjAddr: 0x13338, symBinAddr: 0x10001527C, symSize: 0x14 }
  - { offsetInCU: 0x5DD16, offset: 0x5DD16, size: 0x8, addend: 0x0, symName: __ZNKSt4lessIvEclIRKNSt7__cxx1112basic_stringIcSt11char_traitsIcESaIcEEES9_EEDTltcl7forwardIT_Efp_Ecl7forwardIT0_Efp0_EEOSA_OSB_, symObjAddr: 0x132F0, symBinAddr: 0x100015234, symSize: 0x48 }
  - { offsetInCU: 0x5DD70, offset: 0x5DD70, size: 0x8, addend: 0x0, symName: __ZNSt4lessIvE6_S_cmpIRKNSt7__cxx1112basic_stringIcSt11char_traitsIcESaIcEEES9_EEDcOT_OT0_St17integral_constantIbLb0EE, symObjAddr: 0x132AC, symBinAddr: 0x1000151F0, symSize: 0x44 }
  - { offsetInCU: 0x5DDCA, offset: 0x5DDCA, size: 0x8, addend: 0x0, symName: __ZNKSt3mapINSt7__cxx1112basic_stringIcSt11char_traitsIcESaIcEEEN8nlohmann16json_abi_v3_11_310basic_jsonIS_St6vectorS5_bxydSaNS7_14adl_serializerES9_IhSaIhEEvEESt4lessIvESaISt4pairIKS5_SD_EEE8key_compEv, symObjAddr: 0x13280, symBinAddr: 0x1000151C4, symSize: 0x2C }
  - { offsetInCU: 0x5DDF4, offset: 0x5DDF4, size: 0x8, addend: 0x0, symName: __ZNSt3mapINSt7__cxx1112basic_stringIcSt11char_traitsIcESaIcEEEN8nlohmann16json_abi_v3_11_310basic_jsonIS_St6vectorS5_bxydSaNS7_14adl_serializerES9_IhSaIhEEvEESt4lessIvESaISt4pairIKS5_SD_EEE11lower_boundERSH_, symObjAddr: 0x1325C, symBinAddr: 0x1000151A0, symSize: 0x24 }
  - { offsetInCU: 0x5DE31, offset: 0x5DE31, size: 0x8, addend: 0x0, symName: __ZSt7forwardIRN8nlohmann16json_abi_v3_11_310basic_jsonISt3mapSt6vectorNSt7__cxx1112basic_stringIcSt11char_traitsIcESaIcEEEbxydSaNS1_14adl_serializerES4_IhSaIhEEvEEEOT_RNSt16remove_referenceISG_E4typeE, symObjAddr: 0x13248, symBinAddr: 0x10001518C, symSize: 0x14 }
  - { offsetInCU: 0x5DF2A, offset: 0x5DF2A, size: 0x8, addend: 0x0, symName: __ZN8nlohmann16json_abi_v3_11_310basic_jsonISt3mapSt6vectorNSt7__cxx1112basic_stringIcSt11char_traitsIcESaIcEEEbxydSaNS0_14adl_serializerES3_IhSaIhEEvEC1ERKSD_, symObjAddr: 0x13044, symBinAddr: 0x100014F88, symSize: 0x204 }
  - { offsetInCU: 0x5DEBC, offset: 0x5DEBC, size: 0x8, addend: 0x0, symName: __ZSt11find_if_notIPKN8nlohmann16json_abi_v3_11_36detail8json_refINS1_10basic_jsonISt3mapSt6vectorNSt7__cxx1112basic_stringIcSt11char_traitsIcESaIcEEEbxydSaNS1_14adl_serializerES6_IhSaIhEEvEEEEZNSG_C4ESt16initializer_listISH_EbNS2_7value_tEEUlRSI_E_ET_SP_SP_T0_, symObjAddr: 0x13008, symBinAddr: 0x100014F4C, symSize: 0x3C }
  - { offsetInCU: 0x5DF1A, offset: 0x5DF1A, size: 0x8, addend: 0x0, symName: __ZN8nlohmann16json_abi_v3_11_36detail6concatINSt7__cxx1112basic_stringIcSt11char_traitsIcESaIcEEEJRA52_KcPS9_EEET_DpOT0_, symObjAddr: 0x12F84, symBinAddr: 0x100014EC8, symSize: 0x84 }
  - { offsetInCU: 0x5DF7B, offset: 0x5DF7B, size: 0x8, addend: 0x0, symName: __ZNKSt16initializer_listIN8nlohmann16json_abi_v3_11_36detail8json_refINS1_10basic_jsonISt3mapSt6vectorNSt7__cxx1112basic_stringIcSt11char_traitsIcESaIcEEEbxydSaNS1_14adl_serializerES6_IhSaIhEEvEEEEE4sizeEv, symObjAddr: 0x12F6C, symBinAddr: 0x100014EB0, symSize: 0x18 }
  - { offsetInCU: 0x5DFA1, offset: 0x5DFA1, size: 0x8, addend: 0x0, symName: __ZSt18uninitialized_copyIPKiPiET0_T_S4_S3_, symObjAddr: 0x12F30, symBinAddr: 0x100014E74, symSize: 0x3C }
  - { offsetInCU: 0x5E084, offset: 0x5E084, size: 0x8, addend: 0x0, symName: __ZN8nlohmann16json_abi_v3_11_36detail17replace_substringINSt7__cxx1112basic_stringIcSt11char_traitsIcESaIcEEEEEvRT_RKS9_SC_, symObjAddr: 0x12E70, symBinAddr: 0x100014DB4, symSize: 0xC0 }
  - { offsetInCU: 0x5E186, offset: 0x5E186, size: 0x8, addend: 0x0, symName: __ZNSt15__new_allocatorINSt7__cxx1112basic_stringIcSt11char_traitsIcESaIcEEEED2Ev, symObjAddr: 0x12E5C, symBinAddr: 0x100014DA0, symSize: 0x14 }
  - { offsetInCU: 0x5E393, offset: 0x5E393, size: 0x8, addend: 0x0, symName: __ZNSt3mapINSt7__cxx1112basic_stringIcSt11char_traitsIcESaIcEEEN8nlohmann16json_abi_v3_11_310basic_jsonIS_St6vectorS5_bxydSaNS7_14adl_serializerES9_IhSaIhEEvEESt4lessIvESaISt4pairIKS5_SD_EEE5clearEv, symObjAddr: 0x12E3C, symBinAddr: 0x100014D80, symSize: 0x20 }
  - { offsetInCU: 0x5E3BD, offset: 0x5E3BD, size: 0x8, addend: 0x0, symName: __ZNSt6vectorIN8nlohmann16json_abi_v3_11_310basic_jsonISt3mapS_NSt7__cxx1112basic_stringIcSt11char_traitsIcESaIcEEEbxydSaNS1_14adl_serializerES_IhSaIhEEvEESaISD_EE5clearEv, symObjAddr: 0x12E10, symBinAddr: 0x100014D54, symSize: 0x2C }
  - { offsetInCU: 0x5E3E7, offset: 0x5E3E7, size: 0x8, addend: 0x0, symName: __ZNSt6vectorIN8nlohmann16json_abi_v3_11_310basic_jsonISt3mapS_NSt7__cxx1112basic_stringIcSt11char_traitsIcESaIcEEEbxydSaNS1_14adl_serializerES_IhSaIhEEvEESaISD_EE8pop_backEv, symObjAddr: 0x12DB0, symBinAddr: 0x100014CF4, symSize: 0x60 }
  - { offsetInCU: 0x5E46B, offset: 0x5E46B, size: 0x8, addend: 0x0, symName: __ZNKSt6vectorIN8nlohmann16json_abi_v3_11_310basic_jsonISt3mapS_NSt7__cxx1112basic_stringIcSt11char_traitsIcESaIcEEEbxydSaNS1_14adl_serializerES_IhSaIhEEvEESaISD_EE5emptyEv, symObjAddr: 0x12D78, symBinAddr: 0x100014CBC, symSize: 0x38 }
  - { offsetInCU: 0x5E495, offset: 0x5E495, size: 0x8, addend: 0x0, symName: __ZNSt6vectorIN8nlohmann16json_abi_v3_11_310basic_jsonISt3mapS_NSt7__cxx1112basic_stringIcSt11char_traitsIcESaIcEEEbxydSaNS1_14adl_serializerES_IhSaIhEEvEESaISD_EE9push_backEOSD_, symObjAddr: 0x12D48, symBinAddr: 0x100014C8C, symSize: 0x30 }
  - { offsetInCU: 0x5E4D0, offset: 0x5E4D0, size: 0x8, addend: 0x0, symName: __ZNKSt17_Rb_tree_iteratorISt4pairIKNSt7__cxx1112basic_stringIcSt11char_traitsIcESaIcEEEN8nlohmann16json_abi_v3_11_310basic_jsonISt3mapSt6vectorS6_bxydSaNS9_14adl_serializerESC_IhSaIhEEvEEEEdeEv, symObjAddr: 0x12D28, symBinAddr: 0x100014C6C, symSize: 0x20 }
  - { offsetInCU: 0x5E4FA, offset: 0x5E4FA, size: 0x8, addend: 0x0, symName: __ZNSt17_Rb_tree_iteratorISt4pairIKNSt7__cxx1112basic_stringIcSt11char_traitsIcESaIcEEEN8nlohmann16json_abi_v3_11_310basic_jsonISt3mapSt6vectorS6_bxydSaNS9_14adl_serializerESC_IhSaIhEEvEEEEppEv, symObjAddr: 0x12CF8, symBinAddr: 0x100014C3C, symSize: 0x30 }
  - { offsetInCU: 0x5E524, offset: 0x5E524, size: 0x8, addend: 0x0, symName: __ZNSt3mapINSt7__cxx1112basic_stringIcSt11char_traitsIcESaIcEEEN8nlohmann16json_abi_v3_11_310basic_jsonIS_St6vectorS5_bxydSaNS7_14adl_serializerES9_IhSaIhEEvEESt4lessIvESaISt4pairIKS5_SD_EEE5beginEv, symObjAddr: 0x12CDC, symBinAddr: 0x100014C20, symSize: 0x1C }
  - { offsetInCU: 0x5E54E, offset: 0x5E54E, size: 0x8, addend: 0x0, symName: __ZNKSt3mapINSt7__cxx1112basic_stringIcSt11char_traitsIcESaIcEEEN8nlohmann16json_abi_v3_11_310basic_jsonIS_St6vectorS5_bxydSaNS7_14adl_serializerES9_IhSaIhEEvEESt4lessIvESaISt4pairIKS5_SD_EEE4sizeEv, symObjAddr: 0x12CC0, symBinAddr: 0x100014C04, symSize: 0x1C }
  - { offsetInCU: 0x5E574, offset: 0x5E574, size: 0x8, addend: 0x0, symName: __ZSt4moveIN9__gnu_cxx17__normal_iteratorIPN8nlohmann16json_abi_v3_11_310basic_jsonISt3mapSt6vectorNSt7__cxx1112basic_stringIcSt11char_traitsIcESaIcEEEbxydSaNS3_14adl_serializerES6_IhSaIhEEvEES6_ISG_SaISG_EEEESt20back_insert_iteratorISJ_EET0_T_SO_SN_, symObjAddr: 0x12C78, symBinAddr: 0x100014BBC, symSize: 0x48 }
  - { offsetInCU: 0x5E5D2, offset: 0x5E5D2, size: 0x8, addend: 0x0, symName: __ZSt13back_inserterISt6vectorIN8nlohmann16json_abi_v3_11_310basic_jsonISt3mapS0_NSt7__cxx1112basic_stringIcSt11char_traitsIcESaIcEEEbxydSaNS2_14adl_serializerES0_IhSaIhEEvEESaISE_EEESt20back_insert_iteratorIT_ERSI_, symObjAddr: 0x12C54, symBinAddr: 0x100014B98, symSize: 0x24 }
  - { offsetInCU: 0x5E609, offset: 0x5E609, size: 0x8, addend: 0x0, symName: __ZNSt6vectorIN8nlohmann16json_abi_v3_11_310basic_jsonISt3mapS_NSt7__cxx1112basic_stringIcSt11char_traitsIcESaIcEEEbxydSaNS1_14adl_serializerES_IhSaIhEEvEESaISD_EE5beginEv, symObjAddr: 0x12C30, symBinAddr: 0x100014B74, symSize: 0x24 }
  - { offsetInCU: 0x5E633, offset: 0x5E633, size: 0x8, addend: 0x0, symName: __ZNSt6vectorIN8nlohmann16json_abi_v3_11_310basic_jsonISt3mapS_NSt7__cxx1112basic_stringIcSt11char_traitsIcESaIcEEEbxydSaNS1_14adl_serializerES_IhSaIhEEvEESaISD_EE7reserveEm, symObjAddr: 0x12AF4, symBinAddr: 0x100014A38, symSize: 0x13C }
  - { offsetInCU: 0x5E6A0, offset: 0x5E6A0, size: 0x8, addend: 0x0, symName: __ZNKSt6vectorIN8nlohmann16json_abi_v3_11_310basic_jsonISt3mapS_NSt7__cxx1112basic_stringIcSt11char_traitsIcESaIcEEEbxydSaNS1_14adl_serializerES_IhSaIhEEvEESaISD_EE4sizeEv, symObjAddr: 0x12ACC, symBinAddr: 0x100014A10, symSize: 0x28 }
  - { offsetInCU: 0x5E791, offset: 0x5E791, size: 0x8, addend: 0x0, symName: __ZNSt6vectorIN8nlohmann16json_abi_v3_11_310basic_jsonISt3mapS_NSt7__cxx1112basic_stringIcSt11char_traitsIcESaIcEEEbxydSaNS1_14adl_serializerES_IhSaIhEEvEESaISD_EED1Ev, symObjAddr: 0x12A70, symBinAddr: 0x1000149B4, symSize: 0x5C }
  - { offsetInCU: 0x5E820, offset: 0x5E820, size: 0x8, addend: 0x0, symName: __ZNSt12_Vector_baseIN8nlohmann16json_abi_v3_11_310basic_jsonISt3mapSt6vectorNSt7__cxx1112basic_stringIcSt11char_traitsIcESaIcEEEbxydSaNS1_14adl_serializerES4_IhSaIhEEvEESaISE_EED2Ev, symObjAddr: 0x12A20, symBinAddr: 0x100014964, symSize: 0x50 }
  - { offsetInCU: 0x5E88E, offset: 0x5E88E, size: 0x8, addend: 0x0, symName: __ZNSt12_Vector_baseIN8nlohmann16json_abi_v3_11_310basic_jsonISt3mapSt6vectorNSt7__cxx1112basic_stringIcSt11char_traitsIcESaIcEEEbxydSaNS1_14adl_serializerES4_IhSaIhEEvEESaISE_EE12_Vector_implC1Ev, symObjAddr: 0x129E8, symBinAddr: 0x10001492C, symSize: 0x38 }
  - { offsetInCU: 0x5E83A, offset: 0x5E83A, size: 0x8, addend: 0x0, symName: __ZN8nlohmann16json_abi_v3_11_36detail19json_sax_dom_parserINS0_10basic_jsonISt3mapSt6vectorNSt7__cxx1112basic_stringIcSt11char_traitsIcESaIcEEEbxydSaNS0_14adl_serializerES5_IhSaIhEEvEEE15number_unsignedEy, symObjAddr: 0x129BC, symBinAddr: 0x100014900, symSize: 0x2C }
  - { offsetInCU: 0x5E875, offset: 0x5E875, size: 0x8, addend: 0x0, symName: __ZN8nlohmann16json_abi_v3_11_36detail19json_sax_dom_parserINS0_10basic_jsonISt3mapSt6vectorNSt7__cxx1112basic_stringIcSt11char_traitsIcESaIcEEEbxydSaNS0_14adl_serializerES5_IhSaIhEEvEEE6stringERSB_, symObjAddr: 0x12994, symBinAddr: 0x1000148D8, symSize: 0x28 }
  - { offsetInCU: 0x5E8B0, offset: 0x5E8B0, size: 0x8, addend: 0x0, symName: __ZN8nlohmann16json_abi_v3_11_36detail19json_sax_dom_parserINS0_10basic_jsonISt3mapSt6vectorNSt7__cxx1112basic_stringIcSt11char_traitsIcESaIcEEEbxydSaNS0_14adl_serializerES5_IhSaIhEEvEEE14number_integerEx, symObjAddr: 0x12968, symBinAddr: 0x1000148AC, symSize: 0x2C }
  - { offsetInCU: 0x5E8EB, offset: 0x5E8EB, size: 0x8, addend: 0x0, symName: __ZN8nlohmann16json_abi_v3_11_36detail19json_sax_dom_parserINS0_10basic_jsonISt3mapSt6vectorNSt7__cxx1112basic_stringIcSt11char_traitsIcESaIcEEEbxydSaNS0_14adl_serializerES5_IhSaIhEEvEEE4nullEv, symObjAddr: 0x1293C, symBinAddr: 0x100014880, symSize: 0x2C }
  - { offsetInCU: 0x5E915, offset: 0x5E915, size: 0x8, addend: 0x0, symName: __ZN8nlohmann16json_abi_v3_11_36detail19json_sax_dom_parserINS0_10basic_jsonISt3mapSt6vectorNSt7__cxx1112basic_stringIcSt11char_traitsIcESaIcEEEbxydSaNS0_14adl_serializerES5_IhSaIhEEvEEE7booleanEb, symObjAddr: 0x1290C, symBinAddr: 0x100014850, symSize: 0x30 }
  - { offsetInCU: 0x5E950, offset: 0x5E950, size: 0x8, addend: 0x0, symName: __ZN8nlohmann16json_abi_v3_11_36detail19json_sax_dom_parserINS0_10basic_jsonISt3mapSt6vectorNSt7__cxx1112basic_stringIcSt11char_traitsIcESaIcEEEbxydSaNS0_14adl_serializerES5_IhSaIhEEvEEE12number_floatEdRKSB_, symObjAddr: 0x128DC, symBinAddr: 0x100014820, symSize: 0x30 }
  - { offsetInCU: 0x5E994, offset: 0x5E994, size: 0x8, addend: 0x0, symName: __ZN8nlohmann16json_abi_v3_11_36detail19json_sax_dom_parserINS0_10basic_jsonISt3mapSt6vectorNSt7__cxx1112basic_stringIcSt11char_traitsIcESaIcEEEbxydSaNS0_14adl_serializerES5_IhSaIhEEvEEE11parse_errorINS1_12out_of_rangeEEEbmRKSB_RKT_, symObjAddr: 0x12860, symBinAddr: 0x1000147A4, symSize: 0x7C }
  - { offsetInCU: 0x5E9EA, offset: 0x5E9EA, size: 0x8, addend: 0x0, symName: __ZN8nlohmann16json_abi_v3_11_36detail19json_sax_dom_parserINS0_10basic_jsonISt3mapSt6vectorNSt7__cxx1112basic_stringIcSt11char_traitsIcESaIcEEEbxydSaNS0_14adl_serializerES5_IhSaIhEEvEEE9end_arrayEv, symObjAddr: 0x127A8, symBinAddr: 0x1000146EC, symSize: 0xB8 }
  - { offsetInCU: 0x5EA28, offset: 0x5EA28, size: 0x8, addend: 0x0, symName: __ZN8nlohmann16json_abi_v3_11_36detail19json_sax_dom_parserINS0_10basic_jsonISt3mapSt6vectorNSt7__cxx1112basic_stringIcSt11char_traitsIcESaIcEEEbxydSaNS0_14adl_serializerES5_IhSaIhEEvEEE11start_arrayEm, symObjAddr: 0x12618, symBinAddr: 0x10001455C, symSize: 0x190 }
  - { offsetInCU: 0x5EA65, offset: 0x5EA65, size: 0x8, addend: 0x0, symName: __ZN8nlohmann16json_abi_v3_11_36detail19json_sax_dom_parserINS0_10basic_jsonISt3mapSt6vectorNSt7__cxx1112basic_stringIcSt11char_traitsIcESaIcEEEbxydSaNS0_14adl_serializerES5_IhSaIhEEvEEE3keyERSB_, symObjAddr: 0x12554, symBinAddr: 0x100014498, symSize: 0xC4 }
  - { offsetInCU: 0x5EAC7, offset: 0x5EAC7, size: 0x8, addend: 0x0, symName: __ZN8nlohmann16json_abi_v3_11_36detail19json_sax_dom_parserINS0_10basic_jsonISt3mapSt6vectorNSt7__cxx1112basic_stringIcSt11char_traitsIcESaIcEEEbxydSaNS0_14adl_serializerES5_IhSaIhEEvEEE10end_objectEv, symObjAddr: 0x1249C, symBinAddr: 0x1000143E0, symSize: 0xB8 }
  - { offsetInCU: 0x5EB05, offset: 0x5EB05, size: 0x8, addend: 0x0, symName: __ZN8nlohmann16json_abi_v3_11_36detail19json_sax_dom_parserINS0_10basic_jsonISt3mapSt6vectorNSt7__cxx1112basic_stringIcSt11char_traitsIcESaIcEEEbxydSaNS0_14adl_serializerES5_IhSaIhEEvEEE12start_objectEm, symObjAddr: 0x1230C, symBinAddr: 0x100014250, symSize: 0x190 }
  - { offsetInCU: 0x5EB3E, offset: 0x5EB3E, size: 0x8, addend: 0x0, symName: __ZN8nlohmann16json_abi_v3_11_36detail6concatINSt7__cxx1112basic_stringIcSt11char_traitsIcESaIcEEEJS8_RA12_KcS8_RA3_S9_S8_RKS8_EEET_DpOT0_, symObjAddr: 0x12218, symBinAddr: 0x10001415C, symSize: 0xF4 }
  - { offsetInCU: 0x5EBD3, offset: 0x5EBD3, size: 0x8, addend: 0x0, symName: __ZN8nlohmann16json_abi_v3_11_36detail6concatINSt7__cxx1112basic_stringIcSt11char_traitsIcESaIcEEEJRA12_KcPS9_EEET_DpOT0_, symObjAddr: 0x12194, symBinAddr: 0x1000140D8, symSize: 0x84 }
  - { offsetInCU: 0x5EC30, offset: 0x5EC30, size: 0x8, addend: 0x0, symName: __ZN8nlohmann16json_abi_v3_11_36detail10lexer_baseINS0_10basic_jsonISt3mapSt6vectorNSt7__cxx1112basic_stringIcSt11char_traitsIcESaIcEEEbxydSaNS0_14adl_serializerES5_IhSaIhEEvEEE15token_type_nameENSG_10token_typeE, symObjAddr: 0x11F74, symBinAddr: 0x100013EB8, symSize: 0x220 }
  - { offsetInCU: 0x5EC5A, offset: 0x5EC5A, size: 0x8, addend: 0x0, symName: __ZN8nlohmann16json_abi_v3_11_36detail6concatINSt7__cxx1112basic_stringIcSt11char_traitsIcESaIcEEEJPKcRA15_S9_S8_cEEET_DpOT0_, symObjAddr: 0x11EB4, symBinAddr: 0x100013DF8, symSize: 0xC0 }
  - { offsetInCU: 0x5ECD3, offset: 0x5ECD3, size: 0x8, addend: 0x0, symName: __ZN8nlohmann16json_abi_v3_11_36detail6concatINSt7__cxx1112basic_stringIcSt11char_traitsIcESaIcEEEJRA15_KcRKS8_cEEET_DpOT0_, symObjAddr: 0x11E10, symBinAddr: 0x100013D54, symSize: 0xA4 }
  - { offsetInCU: 0x5ED42, offset: 0x5ED42, size: 0x8, addend: 0x0, symName: __ZNK9__gnu_cxx17__normal_iteratorIPKcSt6vectorIcSaIcEEEdeEv, symObjAddr: 0x11DF8, symBinAddr: 0x100013D3C, symSize: 0x18 }
  - { offsetInCU: 0x5ED6C, offset: 0x5ED6C, size: 0x8, addend: 0x0, symName: __ZN9__gnu_cxx17__normal_iteratorIPKcSt6vectorIcSaIcEEEppEv, symObjAddr: 0x11DD0, symBinAddr: 0x100013D14, symSize: 0x28 }
  - { offsetInCU: 0x5ED92, offset: 0x5ED92, size: 0x8, addend: 0x0, symName: __ZN9__gnu_cxxneIPKcSt6vectorIcSaIcEEEEbRKNS_17__normal_iteratorIT_T0_EESB_, symObjAddr: 0x11D8C, symBinAddr: 0x100013CD0, symSize: 0x44 }
  - { offsetInCU: 0x5EDE3, offset: 0x5EDE3, size: 0x8, addend: 0x0, symName: __ZNKSt6vectorIcSaIcEE3endEv, symObjAddr: 0x11D64, symBinAddr: 0x100013CA8, symSize: 0x28 }
  - { offsetInCU: 0x5EE0D, offset: 0x5EE0D, size: 0x8, addend: 0x0, symName: __ZNKSt6vectorIcSaIcEE5beginEv, symObjAddr: 0x11D40, symBinAddr: 0x100013C84, symSize: 0x24 }
  - { offsetInCU: 0x5EE63, offset: 0x5EE63, size: 0x8, addend: 0x0, symName: __ZNSt6vectorIbSaIbEE8pop_backEv, symObjAddr: 0x11D1C, symBinAddr: 0x100013C60, symSize: 0x24 }
  - { offsetInCU: 0x5EE8D, offset: 0x5EE8D, size: 0x8, addend: 0x0, symName: __ZNSt6vectorIbSaIbEE4backEv, symObjAddr: 0x11CE4, symBinAddr: 0x100013C28, symSize: 0x38 }
  - { offsetInCU: 0x5EEB7, offset: 0x5EEB7, size: 0x8, addend: 0x0, symName: __ZNKSt6vectorIbSaIbEE5emptyEv, symObjAddr: 0x11CAC, symBinAddr: 0x100013BF0, symSize: 0x38 }
  - { offsetInCU: 0x5EEE1, offset: 0x5EEE1, size: 0x8, addend: 0x0, symName: __ZN8nlohmann16json_abi_v3_11_36detail28json_sax_dom_callback_parserINS0_10basic_jsonISt3mapSt6vectorNSt7__cxx1112basic_stringIcSt11char_traitsIcESaIcEEEbxydSaNS0_14adl_serializerES5_IhSaIhEEvEEE15number_unsignedEy, symObjAddr: 0x11C7C, symBinAddr: 0x100013BC0, symSize: 0x30 }
  - { offsetInCU: 0x5EF1C, offset: 0x5EF1C, size: 0x8, addend: 0x0, symName: __ZN8nlohmann16json_abi_v3_11_36detail28json_sax_dom_callback_parserINS0_10basic_jsonISt3mapSt6vectorNSt7__cxx1112basic_stringIcSt11char_traitsIcESaIcEEEbxydSaNS0_14adl_serializerES5_IhSaIhEEvEEE6stringERSB_, symObjAddr: 0x11C50, symBinAddr: 0x100013B94, symSize: 0x2C }
  - { offsetInCU: 0x5EF57, offset: 0x5EF57, size: 0x8, addend: 0x0, symName: __ZN8nlohmann16json_abi_v3_11_36detail28json_sax_dom_callback_parserINS0_10basic_jsonISt3mapSt6vectorNSt7__cxx1112basic_stringIcSt11char_traitsIcESaIcEEEbxydSaNS0_14adl_serializerES5_IhSaIhEEvEEE14number_integerEx, symObjAddr: 0x11C20, symBinAddr: 0x100013B64, symSize: 0x30 }
  - { offsetInCU: 0x5EF92, offset: 0x5EF92, size: 0x8, addend: 0x0, symName: __ZN8nlohmann16json_abi_v3_11_36detail28json_sax_dom_callback_parserINS0_10basic_jsonISt3mapSt6vectorNSt7__cxx1112basic_stringIcSt11char_traitsIcESaIcEEEbxydSaNS0_14adl_serializerES5_IhSaIhEEvEEE4nullEv, symObjAddr: 0x11BF0, symBinAddr: 0x100013B34, symSize: 0x30 }
  - { offsetInCU: 0x5EFBC, offset: 0x5EFBC, size: 0x8, addend: 0x0, symName: __ZN8nlohmann16json_abi_v3_11_36detail28json_sax_dom_callback_parserINS0_10basic_jsonISt3mapSt6vectorNSt7__cxx1112basic_stringIcSt11char_traitsIcESaIcEEEbxydSaNS0_14adl_serializerES5_IhSaIhEEvEEE7booleanEb, symObjAddr: 0x11BBC, symBinAddr: 0x100013B00, symSize: 0x34 }
  - { offsetInCU: 0x5EFF7, offset: 0x5EFF7, size: 0x8, addend: 0x0, symName: __ZN8nlohmann16json_abi_v3_11_36detail28json_sax_dom_callback_parserINS0_10basic_jsonISt3mapSt6vectorNSt7__cxx1112basic_stringIcSt11char_traitsIcESaIcEEEbxydSaNS0_14adl_serializerES5_IhSaIhEEvEEE12number_floatEdRKSB_, symObjAddr: 0x11B88, symBinAddr: 0x100013ACC, symSize: 0x34 }
  - { offsetInCU: 0x5F03B, offset: 0x5F03B, size: 0x8, addend: 0x0, symName: __ZN8nlohmann16json_abi_v3_11_36detail28json_sax_dom_callback_parserINS0_10basic_jsonISt3mapSt6vectorNSt7__cxx1112basic_stringIcSt11char_traitsIcESaIcEEEbxydSaNS0_14adl_serializerES5_IhSaIhEEvEEE11parse_errorINS1_12out_of_rangeEEEbmRKSB_RKT_, symObjAddr: 0x11B0C, symBinAddr: 0x100013A50, symSize: 0x7C }
  - { offsetInCU: 0x5F0EC, offset: 0x5F0EC, size: 0x8, addend: 0x0, symName: __ZN8nlohmann16json_abi_v3_11_36detail12out_of_rangeC1ERKS2_, symObjAddr: 0x11AD0, symBinAddr: 0x100013A14, symSize: 0x3C }
  - { offsetInCU: 0x5F0DF, offset: 0x5F0DF, size: 0x8, addend: 0x0, symName: __ZN8nlohmann16json_abi_v3_11_36detail12out_of_range6createIDnLi0EEES2_iRKNSt7__cxx1112basic_stringIcSt11char_traitsIcESaIcEEET_, symObjAddr: 0x11990, symBinAddr: 0x1000138D4, symSize: 0x140 }
  - { offsetInCU: 0x5F1CF, offset: 0x5F1CF, size: 0x8, addend: 0x0, symName: __ZN8nlohmann16json_abi_v3_11_36detail6concatINSt7__cxx1112basic_stringIcSt11char_traitsIcESaIcEEEJRA26_KcS8_cEEET_DpOT0_, symObjAddr: 0x118EC, symBinAddr: 0x100013830, symSize: 0xA4 }
  - { offsetInCU: 0x5F23E, offset: 0x5F23E, size: 0x8, addend: 0x0, symName: __ZN8nlohmann16json_abi_v3_11_36detail28json_sax_dom_callback_parserINS0_10basic_jsonISt3mapSt6vectorNSt7__cxx1112basic_stringIcSt11char_traitsIcESaIcEEEbxydSaNS0_14adl_serializerES5_IhSaIhEEvEEE9end_arrayEv, symObjAddr: 0x116F4, symBinAddr: 0x100013638, symSize: 0x1F8 }
  - { offsetInCU: 0x5F28D, offset: 0x5F28D, size: 0x8, addend: 0x0, symName: __ZN8nlohmann16json_abi_v3_11_36detail28json_sax_dom_callback_parserINS0_10basic_jsonISt3mapSt6vectorNSt7__cxx1112basic_stringIcSt11char_traitsIcESaIcEEEbxydSaNS0_14adl_serializerES5_IhSaIhEEvEEE11start_arrayEm, symObjAddr: 0x114F8, symBinAddr: 0x10001343C, symSize: 0x1FC }
  - { offsetInCU: 0x5F2ED, offset: 0x5F2ED, size: 0x8, addend: 0x0, symName: __ZN8nlohmann16json_abi_v3_11_36detail28json_sax_dom_callback_parserINS0_10basic_jsonISt3mapSt6vectorNSt7__cxx1112basic_stringIcSt11char_traitsIcESaIcEEEbxydSaNS0_14adl_serializerES5_IhSaIhEEvEEE3keyERSB_, symObjAddr: 0x113C0, symBinAddr: 0x100013304, symSize: 0x138 }
  - { offsetInCU: 0x5F34A, offset: 0x5F34A, size: 0x8, addend: 0x0, symName: __ZN8nlohmann16json_abi_v3_11_36detail28json_sax_dom_callback_parserINS0_10basic_jsonISt3mapSt6vectorNSt7__cxx1112basic_stringIcSt11char_traitsIcESaIcEEEbxydSaNS0_14adl_serializerES5_IhSaIhEEvEEE10end_objectEv, symObjAddr: 0x1113C, symBinAddr: 0x100013080, symSize: 0x284 }
  - { offsetInCU: 0x5F3AE, offset: 0x5F3AE, size: 0x8, addend: 0x0, symName: __ZN8nlohmann16json_abi_v3_11_36detail28json_sax_dom_callback_parserINS0_10basic_jsonISt3mapSt6vectorNSt7__cxx1112basic_stringIcSt11char_traitsIcESaIcEEEbxydSaNS0_14adl_serializerES5_IhSaIhEEvEEE12start_objectEm, symObjAddr: 0x10F40, symBinAddr: 0x100012E84, symSize: 0x1FC }
  - { offsetInCU: 0x5F449, offset: 0x5F449, size: 0x8, addend: 0x0, symName: __ZNSt12_Vector_baseIPN8nlohmann16json_abi_v3_11_310basic_jsonISt3mapSt6vectorNSt7__cxx1112basic_stringIcSt11char_traitsIcESaIcEEEbxydSaNS1_14adl_serializerES4_IhSaIhEEvEESaISF_EE19_M_get_Tp_allocatorEv, symObjAddr: 0x10F2C, symBinAddr: 0x100012E70, symSize: 0x14 }
  - { offsetInCU: 0x5F473, offset: 0x5F473, size: 0x8, addend: 0x0, symName: __ZNSt6vectorIbSaIbEE9push_backEb, symObjAddr: 0x10E80, symBinAddr: 0x100012DC4, symSize: 0xAC }
  - { offsetInCU: 0x5F4EE, offset: 0x5F4EE, size: 0x8, addend: 0x0, symName: __ZNSt13_Bvector_baseISaIbEED2Ev, symObjAddr: 0x10E58, symBinAddr: 0x100012D9C, symSize: 0x28 }
  - { offsetInCU: 0x5F53D, offset: 0x5F53D, size: 0x8, addend: 0x0, symName: __ZNSt13_Bvector_baseISaIbEE13_Bvector_implC1Ev, symObjAddr: 0x10E20, symBinAddr: 0x100012D64, symSize: 0x38 }
  - { offsetInCU: 0x5F656, offset: 0x5F656, size: 0x8, addend: 0x0, symName: __ZNSt12_Vector_baseIPN8nlohmann16json_abi_v3_11_310basic_jsonISt3mapSt6vectorNSt7__cxx1112basic_stringIcSt11char_traitsIcESaIcEEEbxydSaNS1_14adl_serializerES4_IhSaIhEEvEESaISF_EED2Ev, symObjAddr: 0x10DD0, symBinAddr: 0x100012D14, symSize: 0x50 }
  - { offsetInCU: 0x5F6C4, offset: 0x5F6C4, size: 0x8, addend: 0x0, symName: __ZNSt12_Vector_baseIPN8nlohmann16json_abi_v3_11_310basic_jsonISt3mapSt6vectorNSt7__cxx1112basic_stringIcSt11char_traitsIcESaIcEEEbxydSaNS1_14adl_serializerES4_IhSaIhEEvEESaISF_EE12_Vector_implC1Ev, symObjAddr: 0x10D98, symBinAddr: 0x100012CDC, symSize: 0x38 }
  - { offsetInCU: 0x5F66B, offset: 0x5F66B, size: 0x8, addend: 0x0, symName: __ZSt8_DestroyIPcEvT_S1_, symObjAddr: 0x10D70, symBinAddr: 0x100012CB4, symSize: 0x28 }
  - { offsetInCU: 0x5F6B1, offset: 0x5F6B1, size: 0x8, addend: 0x0, symName: __ZNSt12_Vector_baseIcSaIcEE13_M_deallocateEPcm, symObjAddr: 0x10D18, symBinAddr: 0x100012C5C, symSize: 0x58 }
  - { offsetInCU: 0x5F762, offset: 0x5F762, size: 0x8, addend: 0x0, symName: __ZNSt6vectorIcSaIcEEC1Ev, symObjAddr: 0x10CF8, symBinAddr: 0x100012C3C, symSize: 0x20 }
  - { offsetInCU: 0x5F7A9, offset: 0x5F7A9, size: 0x8, addend: 0x0, symName: __ZNSt12_Vector_baseIcSaIcEEC2Ev, symObjAddr: 0x10CD8, symBinAddr: 0x100012C1C, symSize: 0x20 }
  - { offsetInCU: 0x5F7B5, offset: 0x5F7B5, size: 0x8, addend: 0x0, symName: __ZN8nlohmann16json_abi_v3_11_36detail11concat_intoINSt7__cxx1112basic_stringIcSt11char_traitsIcESaIcEEERA10_KcJS8_ELi0EEEvRT_OT0_DpOT1_, symObjAddr: 0x10C90, symBinAddr: 0x100012BD4, symSize: 0x48 }
  - { offsetInCU: 0x5F81D, offset: 0x5F81D, size: 0x8, addend: 0x0, symName: __ZN8nlohmann16json_abi_v3_11_36detail13concat_lengthIJNSt7__cxx1112basic_stringIcSt11char_traitsIcESaIcEEEEEEmPKcDpRKT_, symObjAddr: 0x10C58, symBinAddr: 0x100012B9C, symSize: 0x38 }
  - { offsetInCU: 0x5F862, offset: 0x5F862, size: 0x8, addend: 0x0, symName: __ZN8nlohmann16json_abi_v3_11_36detail11concat_intoINSt7__cxx1112basic_stringIcSt11char_traitsIcESaIcEEEcJS8_RA3_KcELi0EEEvRT_OT0_DpOT1_, symObjAddr: 0x10BF0, symBinAddr: 0x100012B34, symSize: 0x68 }
  - { offsetInCU: 0x5F8D8, offset: 0x5F8D8, size: 0x8, addend: 0x0, symName: __ZN8nlohmann16json_abi_v3_11_36detail13concat_lengthIJNSt7__cxx1112basic_stringIcSt11char_traitsIcESaIcEEEA3_cEEEmcDpRKT_, symObjAddr: 0x10BC4, symBinAddr: 0x100012B08, symSize: 0x2C }
  - { offsetInCU: 0x5F94B, offset: 0x5F94B, size: 0x8, addend: 0x0, symName: __ZNSt15__new_allocatorIcE10deallocateEPcm, symObjAddr: 0x10B9C, symBinAddr: 0x100012AE0, symSize: 0x28 }
  - { offsetInCU: 0x5F995, offset: 0x5F995, size: 0x8, addend: 0x0, symName: __ZNSt15__new_allocatorImE10deallocateEPmm, symObjAddr: 0x10B6C, symBinAddr: 0x100012AB0, symSize: 0x30 }
  - { offsetInCU: 0x5FA0B, offset: 0x5FA0B, size: 0x8, addend: 0x0, symName: __ZN8nlohmann16json_abi_v3_11_314adl_serializerIivE9from_jsonIRKNS0_10basic_jsonISt3mapSt6vectorNSt7__cxx1112basic_stringIcSt11char_traitsIcESaIcEEEbxydSaS1_S6_IhSaIhEEvEEiEEDTcmclL_ZNS0_9from_jsonEEcl7forwardIT_Efp_Efp0_Ecvv_EEOSI_RT0_, symObjAddr: 0x10B28, symBinAddr: 0x100012A6C, symSize: 0x44 }
  - { offsetInCU: 0x5FA5C, offset: 0x5FA5C, size: 0x8, addend: 0x0, symName: __ZN8nlohmann16json_abi_v3_11_36detail6parserINS0_10basic_jsonISt3mapSt6vectorNSt7__cxx1112basic_stringIcSt11char_traitsIcESaIcEEEbxydSaNS0_14adl_serializerES5_IhSaIhEEvEENS1_22iterator_input_adapterIN9__gnu_cxx17__normal_iteratorIPKcSB_EEEEE18sax_parse_internalINS1_19json_sax_dom_parserISF_EEEEbPT_, symObjAddr: 0xF4D0, symBinAddr: 0x100011414, symSize: 0x1658 }
  - { offsetInCU: 0x60031, offset: 0x60031, size: 0x8, addend: 0x0, symName: __ZN8nlohmann16json_abi_v3_11_36detail6parserINS0_10basic_jsonISt3mapSt6vectorNSt7__cxx1112basic_stringIcSt11char_traitsIcESaIcEEEbxydSaNS0_14adl_serializerES5_IhSaIhEEvEENS1_22iterator_input_adapterIN9__gnu_cxx17__normal_iteratorIPKcSB_EEEEE17exception_messageENS1_10lexer_baseISF_E10token_typeERKSB_, symObjAddr: 0xF264, symBinAddr: 0x1000111A8, symSize: 0x26C }
  - { offsetInCU: 0x60117, offset: 0x60117, size: 0x8, addend: 0x0, symName: __ZNK8nlohmann16json_abi_v3_11_36detail5lexerINS0_10basic_jsonISt3mapSt6vectorNSt7__cxx1112basic_stringIcSt11char_traitsIcESaIcEEEbxydSaNS0_14adl_serializerES5_IhSaIhEEvEENS1_22iterator_input_adapterIN9__gnu_cxx17__normal_iteratorIPKcSB_EEEEE16get_token_stringEv, symObjAddr: 0xF168, symBinAddr: 0x1000110AC, symSize: 0xFC }
  - { offsetInCU: 0x60224, offset: 0x60224, size: 0x8, addend: 0x0, symName: __ZNK8nlohmann16json_abi_v3_11_36detail5lexerINS0_10basic_jsonISt3mapSt6vectorNSt7__cxx1112basic_stringIcSt11char_traitsIcESaIcEEEbxydSaNS0_14adl_serializerES5_IhSaIhEEvEENS1_22iterator_input_adapterIN9__gnu_cxx17__normal_iteratorIPKcSB_EEEEE12get_positionEv, symObjAddr: 0xF134, symBinAddr: 0x100011078, symSize: 0x34 }
  - { offsetInCU: 0x6024E, offset: 0x6024E, size: 0x8, addend: 0x0, symName: __ZN8nlohmann16json_abi_v3_11_36detail6parserINS0_10basic_jsonISt3mapSt6vectorNSt7__cxx1112basic_stringIcSt11char_traitsIcESaIcEEEbxydSaNS0_14adl_serializerES5_IhSaIhEEvEENS1_22iterator_input_adapterIN9__gnu_cxx17__normal_iteratorIPKcSB_EEEEE9get_tokenEv, symObjAddr: 0xF100, symBinAddr: 0x100011044, symSize: 0x34 }
  - { offsetInCU: 0x60278, offset: 0x60278, size: 0x8, addend: 0x0, symName: __ZN8nlohmann16json_abi_v3_11_36detail6parserINS0_10basic_jsonISt3mapSt6vectorNSt7__cxx1112basic_stringIcSt11char_traitsIcESaIcEEEbxydSaNS0_14adl_serializerES5_IhSaIhEEvEENS1_22iterator_input_adapterIN9__gnu_cxx17__normal_iteratorIPKcSB_EEEEE18sax_parse_internalINS1_28json_sax_dom_callback_parserISF_EEEEbPT_, symObjAddr: 0xDAA8, symBinAddr: 0x10000F9EC, symSize: 0x1658 }
  - { offsetInCU: 0x609BF, offset: 0x609BF, size: 0x8, addend: 0x0, symName: __ZN8nlohmann16json_abi_v3_11_36detail6parserINS0_10basic_jsonISt3mapSt6vectorNSt7__cxx1112basic_stringIcSt11char_traitsIcESaIcEEEbxydSaNS0_14adl_serializerES5_IhSaIhEEvEENS1_22iterator_input_adapterIN9__gnu_cxx17__normal_iteratorIPKcSB_EEEEEC1EOSM_St8functionIFbiNS1_13parse_event_tERSF_EEbb, symObjAddr: 0xDA00, symBinAddr: 0x10000F944, symSize: 0xA8 }
  - { offsetInCU: 0x608F3, offset: 0x608F3, size: 0x8, addend: 0x0, symName: __ZSt4moveIRN8nlohmann16json_abi_v3_11_36detail22iterator_input_adapterIN9__gnu_cxx17__normal_iteratorIPKcNSt7__cxx1112basic_stringIcSt11char_traitsIcESaIcEEEEEEEEONSt16remove_referenceIT_E4typeEOSI_, symObjAddr: 0xD9EC, symBinAddr: 0x10000F930, symSize: 0x14 }
  - { offsetInCU: 0x60925, offset: 0x60925, size: 0x8, addend: 0x0, symName: __ZN8nlohmann16json_abi_v3_11_36detail36container_input_adapter_factory_impl31container_input_adapter_factoryINSt7__cxx1112basic_stringIcSt11char_traitsIcESaIcEEEvE6createERKS9_, symObjAddr: 0xD998, symBinAddr: 0x10000F8DC, symSize: 0x54 }
  - { offsetInCU: 0x6099B, offset: 0x6099B, size: 0x8, addend: 0x0, symName: __ZNSt19istreambuf_iteratorIcSt11char_traitsIcEEppEv, symObjAddr: 0xD964, symBinAddr: 0x10000F8A8, symSize: 0x34 }
  - { offsetInCU: 0x609C5, offset: 0x609C5, size: 0x8, addend: 0x0, symName: __ZNKSt19istreambuf_iteratorIcSt11char_traitsIcEEdeEv, symObjAddr: 0xD93C, symBinAddr: 0x10000F880, symSize: 0x28 }
  - { offsetInCU: 0x609FB, offset: 0x609FB, size: 0x8, addend: 0x0, symName: __ZStneIcSt11char_traitsIcEEbRKSt19istreambuf_iteratorIT_T0_ES7_, symObjAddr: 0xD910, symBinAddr: 0x10000F854, symSize: 0x2C }
  - { offsetInCU: 0x60A4A, offset: 0x60A4A, size: 0x8, addend: 0x0, symName: __ZNSt6vectorIS_IiSaIiEESaIS1_EE4backEv, symObjAddr: 0xD8D8, symBinAddr: 0x10000F81C, symSize: 0x38 }
  - { offsetInCU: 0x60A74, offset: 0x60A74, size: 0x8, addend: 0x0, symName: __ZNSt6vectorIS_IiSaIiEESaIS1_EE17_M_realloc_appendIJS1_EEEvDpOT_, symObjAddr: 0xD6EC, symBinAddr: 0x10000F630, symSize: 0x1EC }
  - { offsetInCU: 0x60C4C, offset: 0x60C4C, size: 0x8, addend: 0x0, symName: __ZZNSt6vectorIS_IiSaIiEESaIS1_EE17_M_realloc_appendIJS1_EEEvDpOT_EN6_GuardC1EPS1_mRS2_, symObjAddr: 0xD648, symBinAddr: 0x10000F58C, symSize: 0x44 }
  - { offsetInCU: 0x60C89, offset: 0x60C89, size: 0x8, addend: 0x0, symName: __ZZNSt6vectorIS_IiSaIiEESaIS1_EE17_M_realloc_appendIJS1_EEEvDpOT_EN6_GuardD1Ev, symObjAddr: 0xD68C, symBinAddr: 0x10000F5D0, symSize: 0x60 }
  - { offsetInCU: 0x60D77, offset: 0x60D77, size: 0x8, addend: 0x0, symName: __ZSt7forwardISt6vectorIiSaIiEEEOT_RNSt16remove_referenceIS3_E4typeE, symObjAddr: 0xD634, symBinAddr: 0x10000F578, symSize: 0x14 }
  - { offsetInCU: 0x60DA9, offset: 0x60DA9, size: 0x8, addend: 0x0, symName: __ZN8nlohmann16json_abi_v3_11_314adl_serializerINSt7__cxx1112basic_stringIcSt11char_traitsIcESaIcEEEvE9from_jsonIRKNS0_10basic_jsonISt3mapSt6vectorS7_bxydSaS1_SC_IhSaIhEEvEES7_EEDTcmclL_ZNS0_9from_jsonEEcl7forwardIT_Efp_Efp0_Ecvv_EEOSI_RT0_, symObjAddr: 0xD5F0, symBinAddr: 0x10000F534, symSize: 0x44 }
  - { offsetInCU: 0x60DFA, offset: 0x60DFA, size: 0x8, addend: 0x0, symName: __ZNK9__gnu_cxx17__normal_iteratorIPN8nlohmann16json_abi_v3_11_310basic_jsonISt3mapSt6vectorNSt7__cxx1112basic_stringIcSt11char_traitsIcESaIcEEEbxydSaNS2_14adl_serializerES5_IhSaIhEEvEES5_ISF_SaISF_EEE4baseEv, symObjAddr: 0xD5DC, symBinAddr: 0x10000F520, symSize: 0x14 }
  - { offsetInCU: 0x60F18, offset: 0x60F18, size: 0x8, addend: 0x0, symName: __ZN9__gnu_cxx17__normal_iteratorIPN8nlohmann16json_abi_v3_11_310basic_jsonISt3mapSt6vectorNSt7__cxx1112basic_stringIcSt11char_traitsIcESaIcEEEbxydSaNS2_14adl_serializerES5_IhSaIhEEvEES5_ISF_SaISF_EEEC1ERKSG_, symObjAddr: 0xD5B4, symBinAddr: 0x10000F4F8, symSize: 0x28 }
  - { offsetInCU: 0x60E7B, offset: 0x60E7B, size: 0x8, addend: 0x0, symName: __ZNSt13_Rb_tree_nodeISt4pairIKNSt7__cxx1112basic_stringIcSt11char_traitsIcESaIcEEEN8nlohmann16json_abi_v3_11_310basic_jsonISt3mapSt6vectorS6_bxydSaNS9_14adl_serializerESC_IhSaIhEEvEEEE9_M_valptrEv, symObjAddr: 0xD594, symBinAddr: 0x10000F4D8, symSize: 0x20 }
  - { offsetInCU: 0x60EA5, offset: 0x60EA5, size: 0x8, addend: 0x0, symName: __ZNSt8_Rb_treeINSt7__cxx1112basic_stringIcSt11char_traitsIcESaIcEEESt4pairIKS5_N8nlohmann16json_abi_v3_11_310basic_jsonISt3mapSt6vectorS5_bxydSaNS9_14adl_serializerESC_IhSaIhEEvEEESt10_Select1stISH_ESt4lessIvESaISH_EE3endEv, symObjAddr: 0xD56C, symBinAddr: 0x10000F4B0, symSize: 0x28 }
  - { offsetInCU: 0x60ECB, offset: 0x60ECB, size: 0x8, addend: 0x0, symName: __ZSt9__advanceIN9__gnu_cxx17__normal_iteratorIPN8nlohmann16json_abi_v3_11_310basic_jsonISt3mapSt6vectorNSt7__cxx1112basic_stringIcSt11char_traitsIcESaIcEEEbxydSaNS3_14adl_serializerES6_IhSaIhEEvEES6_ISG_SaISG_EEEElEvRT_T0_St26random_access_iterator_tag, symObjAddr: 0xD540, symBinAddr: 0x10000F484, symSize: 0x2C }
  - { offsetInCU: 0x60F35, offset: 0x60F35, size: 0x8, addend: 0x0, symName: __ZSt9__advanceISt17_Rb_tree_iteratorISt4pairIKNSt7__cxx1112basic_stringIcSt11char_traitsIcESaIcEEEN8nlohmann16json_abi_v3_11_310basic_jsonISt3mapSt6vectorS7_bxydSaNSA_14adl_serializerESD_IhSaIhEEvEEEElEvRT_T0_St26bidirectional_iterator_tag, symObjAddr: 0xD4B4, symBinAddr: 0x10000F3F8, symSize: 0x8C }
  - { offsetInCU: 0x60F9F, offset: 0x60F9F, size: 0x8, addend: 0x0, symName: __ZN9__gnu_cxxeqIPN8nlohmann16json_abi_v3_11_310basic_jsonISt3mapSt6vectorNSt7__cxx1112basic_stringIcSt11char_traitsIcESaIcEEEbxydSaNS2_14adl_serializerES5_IhSaIhEEvEES5_ISF_SaISF_EEEEbRKNS_17__normal_iteratorIT_T0_EESO_, symObjAddr: 0xD470, symBinAddr: 0x10000F3B4, symSize: 0x44 }
  - { offsetInCU: 0x60FF2, offset: 0x60FF2, size: 0x8, addend: 0x0, symName: __ZSteqRKSt17_Rb_tree_iteratorISt4pairIKNSt7__cxx1112basic_stringIcSt11char_traitsIcESaIcEEEN8nlohmann16json_abi_v3_11_310basic_jsonISt3mapSt6vectorS6_bxydSaNS9_14adl_serializerESC_IhSaIhEEvEEEESK_, symObjAddr: 0xD440, symBinAddr: 0x10000F384, symSize: 0x30 }
  - { offsetInCU: 0x61031, offset: 0x61031, size: 0x8, addend: 0x0, symName: __ZN8nlohmann16json_abi_v3_11_36detail9iter_implIKNS0_10basic_jsonISt3mapSt6vectorNSt7__cxx1112basic_stringIcSt11char_traitsIcESaIcEEEbxydSaNS0_14adl_serializerES5_IhSaIhEEvEEE7set_endEv, symObjAddr: 0xD378, symBinAddr: 0x10000F2BC, symSize: 0xC8 }
  - { offsetInCU: 0x6106F, offset: 0x6106F, size: 0x8, addend: 0x0, symName: __ZN8nlohmann16json_abi_v3_11_36detail9iter_implIKNS0_10basic_jsonISt3mapSt6vectorNSt7__cxx1112basic_stringIcSt11char_traitsIcESaIcEEEbxydSaNS0_14adl_serializerES5_IhSaIhEEvEEE9set_beginEv, symObjAddr: 0xD294, symBinAddr: 0x10000F1D8, symSize: 0xE4 }
  - { offsetInCU: 0x61192, offset: 0x61192, size: 0x8, addend: 0x0, symName: __ZN8nlohmann16json_abi_v3_11_36detail9iter_implIKNS0_10basic_jsonISt3mapSt6vectorNSt7__cxx1112basic_stringIcSt11char_traitsIcESaIcEEEbxydSaNS0_14adl_serializerES5_IhSaIhEEvEEEC1EPSG_, symObjAddr: 0xD194, symBinAddr: 0x10000F0D8, symSize: 0x100 }
  - { offsetInCU: 0x6117C, offset: 0x6117C, size: 0x8, addend: 0x0, symName: __ZN8nlohmann16json_abi_v3_11_36detail20primitive_iterator_tC1Ev, symObjAddr: 0xD16C, symBinAddr: 0x10000F0B0, symSize: 0x28 }
  - { offsetInCU: 0x61162, offset: 0x61162, size: 0x8, addend: 0x0, symName: __ZN8nlohmann16json_abi_v3_11_36detail10type_error6createIPKNS0_10basic_jsonISt3mapSt6vectorNSt7__cxx1112basic_stringIcSt11char_traitsIcESaIcEEEbxydSaNS0_14adl_serializerES6_IhSaIhEEvEELi0EEES2_iRKSC_T_, symObjAddr: 0xD02C, symBinAddr: 0x10000EF70, symSize: 0x140 }
  - { offsetInCU: 0x61256, offset: 0x61256, size: 0x8, addend: 0x0, symName: __ZNSt3mapINSt7__cxx1112basic_stringIcSt11char_traitsIcESaIcEEEN8nlohmann16json_abi_v3_11_310basic_jsonIS_St6vectorS5_bxydSaNS7_14adl_serializerES9_IhSaIhEEvEESt4lessIvESaISt4pairIKS5_SD_EEE4findERSH_, symObjAddr: 0xD008, symBinAddr: 0x10000EF4C, symSize: 0x24 }
  - { offsetInCU: 0x612AC, offset: 0x612AC, size: 0x8, addend: 0x0, symName: __ZNSt6vectorIiSaIiEE4backEv, symObjAddr: 0xCFD0, symBinAddr: 0x10000EF14, symSize: 0x38 }
  - { offsetInCU: 0x612D6, offset: 0x612D6, size: 0x8, addend: 0x0, symName: __ZNSt6vectorIiSaIiEE17_M_realloc_appendIJiEEEvDpOT_, symObjAddr: 0xCE14, symBinAddr: 0x10000ED58, symSize: 0x1BC }
  - { offsetInCU: 0x6149F, offset: 0x6149F, size: 0x8, addend: 0x0, symName: __ZZNSt6vectorIiSaIiEE17_M_realloc_appendIJiEEEvDpOT_EN6_GuardC1EPimRS0_, symObjAddr: 0xCD70, symBinAddr: 0x10000ECB4, symSize: 0x44 }
  - { offsetInCU: 0x614DE, offset: 0x614DE, size: 0x8, addend: 0x0, symName: __ZZNSt6vectorIiSaIiEE17_M_realloc_appendIJiEEEvDpOT_EN6_GuardD1Ev, symObjAddr: 0xCDB4, symBinAddr: 0x10000ECF8, symSize: 0x60 }
  - { offsetInCU: 0x615D7, offset: 0x615D7, size: 0x8, addend: 0x0, symName: __ZNK9__gnu_cxx17__normal_iteratorIPN8nlohmann16json_abi_v3_11_310basic_jsonISt3mapSt6vectorNSt7__cxx1112basic_stringIcSt11char_traitsIcESaIcEEEbxydSaNS2_14adl_serializerES5_IhSaIhEEvEES5_ISF_SaISF_EEEmiEl, symObjAddr: 0xCD2C, symBinAddr: 0x10000EC70, symSize: 0x44 }
  - { offsetInCU: 0x61612, offset: 0x61612, size: 0x8, addend: 0x0, symName: __ZNSt6vectorIN8nlohmann16json_abi_v3_11_310basic_jsonISt3mapS_NSt7__cxx1112basic_stringIcSt11char_traitsIcESaIcEEEbxydSaNS1_14adl_serializerES_IhSaIhEEvEESaISD_EE17_M_realloc_appendIJRKSD_EEEvDpOT_, symObjAddr: 0xCB30, symBinAddr: 0x10000EA74, symSize: 0x1FC }
  - { offsetInCU: 0x6186F, offset: 0x6186F, size: 0x8, addend: 0x0, symName: __ZZNSt6vectorIN8nlohmann16json_abi_v3_11_310basic_jsonISt3mapS_NSt7__cxx1112basic_stringIcSt11char_traitsIcESaIcEEEbxydSaNS1_14adl_serializerES_IhSaIhEEvEESaISD_EE17_M_realloc_appendIJRKSD_EEEvDpOT_EN6_GuardC1EPSD_mRSE_, symObjAddr: 0xCA8C, symBinAddr: 0x10000E9D0, symSize: 0x44 }
  - { offsetInCU: 0x618AC, offset: 0x618AC, size: 0x8, addend: 0x0, symName: __ZZNSt6vectorIN8nlohmann16json_abi_v3_11_310basic_jsonISt3mapS_NSt7__cxx1112basic_stringIcSt11char_traitsIcESaIcEEEbxydSaNS1_14adl_serializerES_IhSaIhEEvEESaISD_EE17_M_realloc_appendIJRKSD_EEEvDpOT_EN6_GuardD1Ev, symObjAddr: 0xCAD0, symBinAddr: 0x10000EA14, symSize: 0x60 }
  - { offsetInCU: 0x6190B, offset: 0x6190B, size: 0x8, addend: 0x0, symName: __ZN8nlohmann16json_abi_v3_11_36detail11other_error6createIDnLi0EEES2_iRKNSt7__cxx1112basic_stringIcSt11char_traitsIcESaIcEEET_, symObjAddr: 0xC94C, symBinAddr: 0x10000E890, symSize: 0x140 }
  - { offsetInCU: 0x619FB, offset: 0x619FB, size: 0x8, addend: 0x0, symName: __ZN8nlohmann16json_abi_v3_11_310basic_jsonISt3mapSt6vectorNSt7__cxx1112basic_stringIcSt11char_traitsIcESaIcEEEbxydSaNS0_14adl_serializerES3_IhSaIhEEvE6createINS0_27byte_container_with_subtypeISC_EEJEEEPT_DpOT0_, symObjAddr: 0xC81C, symBinAddr: 0x10000E760, symSize: 0x130 }
  - { offsetInCU: 0x61BBC, offset: 0x61BBC, size: 0x8, addend: 0x0, symName: __ZZN8nlohmann16json_abi_v3_11_310basic_jsonISt3mapSt6vectorNSt7__cxx1112basic_stringIcSt11char_traitsIcESaIcEEEbxydSaNS0_14adl_serializerES3_IhSaIhEEvE6createINS0_27byte_container_with_subtypeISC_EEJEEEPT_DpOT0_ENKUlPSG_E_clESM_, symObjAddr: 0xC7D0, symBinAddr: 0x10000E714, symSize: 0x4C }
  - { offsetInCU: 0x61C75, offset: 0x61C75, size: 0x8, addend: 0x0, symName: __ZN8nlohmann16json_abi_v3_11_310basic_jsonISt3mapSt6vectorNSt7__cxx1112basic_stringIcSt11char_traitsIcESaIcEEEbxydSaNS0_14adl_serializerES3_IhSaIhEEvE6createIS9_JRA1_KcEEEPT_DpOT0_, symObjAddr: 0xC604, symBinAddr: 0x10000E548, symSize: 0x1CC }
  - { offsetInCU: 0x61E2B, offset: 0x61E2B, size: 0x8, addend: 0x0, symName: __ZZN8nlohmann16json_abi_v3_11_310basic_jsonISt3mapSt6vectorNSt7__cxx1112basic_stringIcSt11char_traitsIcESaIcEEEbxydSaNS0_14adl_serializerES3_IhSaIhEEvE6createIS9_JRA1_KcEEEPT_DpOT0_ENKUlPS9_E_clESN_, symObjAddr: 0xC5B8, symBinAddr: 0x10000E4FC, symSize: 0x4C }
  - { offsetInCU: 0x61F8F, offset: 0x61F8F, size: 0x8, addend: 0x0, symName: __ZN8nlohmann16json_abi_v3_11_310basic_jsonISt3mapSt6vectorNSt7__cxx1112basic_stringIcSt11char_traitsIcESaIcEEEbxydSaNS0_14adl_serializerES3_IhSaIhEEvE6createIS3_ISD_SaISD_EEJEEEPT_DpOT0_, symObjAddr: 0xC480, symBinAddr: 0x10000E3C4, symSize: 0x138 }
  - { offsetInCU: 0x62138, offset: 0x62138, size: 0x8, addend: 0x0, symName: __ZZN8nlohmann16json_abi_v3_11_310basic_jsonISt3mapSt6vectorNSt7__cxx1112basic_stringIcSt11char_traitsIcESaIcEEEbxydSaNS0_14adl_serializerES3_IhSaIhEEvE6createIS3_ISD_SaISD_EEJEEEPT_DpOT0_ENKUlPSG_E_clESM_, symObjAddr: 0xC434, symBinAddr: 0x10000E378, symSize: 0x4C }
  - { offsetInCU: 0x62209, offset: 0x62209, size: 0x8, addend: 0x0, symName: __ZN8nlohmann16json_abi_v3_11_36detail6concatINSt7__cxx1112basic_stringIcSt11char_traitsIcESaIcEEEJS8_S8_RKS8_EEET_DpOT0_, symObjAddr: 0xC390, symBinAddr: 0x10000E2D4, symSize: 0xA4 }
  - { offsetInCU: 0x62274, offset: 0x62274, size: 0x8, addend: 0x0, symName: __ZN8nlohmann16json_abi_v3_11_36detail9exception11diagnosticsINS0_10basic_jsonISt3mapSt6vectorNSt7__cxx1112basic_stringIcSt11char_traitsIcESaIcEEEbxydSaNS0_14adl_serializerES6_IhSaIhEEvEEEESC_PKT_, symObjAddr: 0xC31C, symBinAddr: 0x10000E260, symSize: 0x74 }
  - { offsetInCU: 0x62333, offset: 0x62333, size: 0x8, addend: 0x0, symName: __ZN8nlohmann16json_abi_v3_11_36detail11concat_intoINSt7__cxx1112basic_stringIcSt11char_traitsIcESaIcEEERA29_KcJPS9_ELi0EEEvRT_OT0_DpOT1_, symObjAddr: 0xC2D4, symBinAddr: 0x10000E218, symSize: 0x48 }
  - { offsetInCU: 0x623A1, offset: 0x623A1, size: 0x8, addend: 0x0, symName: __ZSt7forwardIPKcEOT_RNSt16remove_referenceIS2_E4typeE, symObjAddr: 0xC2C0, symBinAddr: 0x10000E204, symSize: 0x14 }
  - { offsetInCU: 0x623D9, offset: 0x623D9, size: 0x8, addend: 0x0, symName: __ZSt7forwardIRA29_KcEOT_RNSt16remove_referenceIS3_E4typeE, symObjAddr: 0xC2AC, symBinAddr: 0x10000E1F0, symSize: 0x14 }
  - { offsetInCU: 0x6240B, offset: 0x6240B, size: 0x8, addend: 0x0, symName: __ZN8nlohmann16json_abi_v3_11_36detail13concat_lengthIJPKcEEEmS4_DpRKT_, symObjAddr: 0xC270, symBinAddr: 0x10000E1B4, symSize: 0x3C }
  - { offsetInCU: 0x62454, offset: 0x62454, size: 0x8, addend: 0x0, symName: __ZNK8nlohmann16json_abi_v3_11_36detail10to_json_fnclINS0_10basic_jsonISt3mapSt6vectorNSt7__cxx1112basic_stringIcSt11char_traitsIcESaIcEEEbxydSaNS0_14adl_serializerES6_IhSaIhEEvEEiEEDTcmcl7to_jsonfp_cl7forwardIT0_Efp0_EEcvv_EERT_OSH_, symObjAddr: 0xC238, symBinAddr: 0x10000E17C, symSize: 0x38 }
  - { offsetInCU: 0x624B2, offset: 0x624B2, size: 0x8, addend: 0x0, symName: __ZNK8nlohmann16json_abi_v3_11_36detail10to_json_fnclINS0_10basic_jsonISt3mapSt6vectorNSt7__cxx1112basic_stringIcSt11char_traitsIcESaIcEEEbxydSaNS0_14adl_serializerES6_IhSaIhEEvEERiEEDTcmcl7to_jsonfp_cl7forwardIT0_Efp0_EEcvv_EERT_OSI_, symObjAddr: 0xC200, symBinAddr: 0x10000E144, symSize: 0x38 }
  - { offsetInCU: 0x6250C, offset: 0x6250C, size: 0x8, addend: 0x0, symName: __ZN8nlohmann16json_abi_v3_11_36detail6concatINSt7__cxx1112basic_stringIcSt11char_traitsIcESaIcEEEJRA51_KcPS9_EEET_DpOT0_, symObjAddr: 0xC17C, symBinAddr: 0x10000E0C0, symSize: 0x84 }
  - { offsetInCU: 0x6256D, offset: 0x6256D, size: 0x8, addend: 0x0, symName: __ZNSt3mapINSt7__cxx1112basic_stringIcSt11char_traitsIcESaIcEEEN8nlohmann16json_abi_v3_11_310basic_jsonIS_St6vectorS5_bxydSaNS7_14adl_serializerES9_IhSaIhEEvEESt4lessIvESaISt4pairIKS5_SD_EEE7emplaceIJS5_DnEEESG_ISt17_Rb_tree_iteratorISI_EbEDpOT_, symObjAddr: 0xC034, symBinAddr: 0x10000DF78, symSize: 0x148 }
  - { offsetInCU: 0x62633, offset: 0x62633, size: 0x8, addend: 0x0, symName: __ZNSt10__pair_getILm1EE10__move_getIRNSt7__cxx1112basic_stringIcSt11char_traitsIcESaIcEEERDnEEOT0_OSt4pairIT_SA_E, symObjAddr: 0xC014, symBinAddr: 0x10000DF58, symSize: 0x20 }
  - { offsetInCU: 0x6266F, offset: 0x6266F, size: 0x8, addend: 0x0, symName: __ZSt3getILm1ERNSt7__cxx1112basic_stringIcSt11char_traitsIcESaIcEEERDnEONSt13tuple_elementIXT_ESt4pairIT0_T1_EE4typeEOSC_, symObjAddr: 0xBFF4, symBinAddr: 0x10000DF38, symSize: 0x20 }
  - { offsetInCU: 0x626B5, offset: 0x626B5, size: 0x8, addend: 0x0, symName: __ZNSt10__pair_getILm0EE10__move_getIRNSt7__cxx1112basic_stringIcSt11char_traitsIcESaIcEEERDnEEOT_OSt4pairISA_T0_E, symObjAddr: 0xBFD4, symBinAddr: 0x10000DF18, symSize: 0x20 }
  - { offsetInCU: 0x626F8, offset: 0x626F8, size: 0x8, addend: 0x0, symName: __ZSt4moveIRSt4pairIRNSt7__cxx1112basic_stringIcSt11char_traitsIcESaIcEEERDnEEONSt16remove_referenceIT_E4typeEOSC_, symObjAddr: 0xBFC0, symBinAddr: 0x10000DF04, symSize: 0x14 }
  - { offsetInCU: 0x6272A, offset: 0x6272A, size: 0x8, addend: 0x0, symName: __ZSt3getILm0ERNSt7__cxx1112basic_stringIcSt11char_traitsIcESaIcEEERDnEONSt13tuple_elementIXT_ESt4pairIT0_T1_EE4typeEOSC_, symObjAddr: 0xBFA0, symBinAddr: 0x10000DEE4, symSize: 0x20 }
  - { offsetInCU: 0x62812, offset: 0x62812, size: 0x8, addend: 0x0, symName: __ZNSt4pairIRNSt7__cxx1112basic_stringIcSt11char_traitsIcESaIcEEERDnEC1IS6_S7_Lb1EEES6_S7_, symObjAddr: 0xBF6C, symBinAddr: 0x10000DEB0, symSize: 0x34 }
  - { offsetInCU: 0x62802, offset: 0x62802, size: 0x8, addend: 0x0, symName: __ZN8nlohmann16json_abi_v3_11_310basic_jsonISt3mapSt6vectorNSt7__cxx1112basic_stringIcSt11char_traitsIcESaIcEEEbxydSaNS0_14adl_serializerES3_IhSaIhEEvE6createIS2_IS9_SD_St4lessIvESaISt4pairIKS9_SD_EEEJEEEPT_DpOT0_, symObjAddr: 0xBE30, symBinAddr: 0x10000DD74, symSize: 0x13C }
  - { offsetInCU: 0x629C5, offset: 0x629C5, size: 0x8, addend: 0x0, symName: __ZZN8nlohmann16json_abi_v3_11_310basic_jsonISt3mapSt6vectorNSt7__cxx1112basic_stringIcSt11char_traitsIcESaIcEEEbxydSaNS0_14adl_serializerES3_IhSaIhEEvE6createIS2_IS9_SD_St4lessIvESaISt4pairIKS9_SD_EEEJEEEPT_DpOT0_ENKUlPSL_E_clESR_, symObjAddr: 0xBDE4, symBinAddr: 0x10000DD28, symSize: 0x4C }
  - { offsetInCU: 0x62B57, offset: 0x62B57, size: 0x8, addend: 0x0, symName: __ZN8nlohmann16json_abi_v3_11_310basic_jsonISt3mapSt6vectorNSt7__cxx1112basic_stringIcSt11char_traitsIcESaIcEEEbxydSaNS0_14adl_serializerES3_IhSaIhEEvE4dataC1ENS0_6detail7value_tE, symObjAddr: 0xBDA8, symBinAddr: 0x10000DCEC, symSize: 0x3C }
  - { offsetInCU: 0x62AD3, offset: 0x62AD3, size: 0x8, addend: 0x0, symName: __ZNSt6vectorIiSaIiEE11_S_relocateEPiS2_S2_RS0_, symObjAddr: 0xBD74, symBinAddr: 0x10000DCB8, symSize: 0x34 }
  - { offsetInCU: 0x62B30, offset: 0x62B30, size: 0x8, addend: 0x0, symName: __ZSt12__to_addressIiEPT_S1_, symObjAddr: 0xBD60, symBinAddr: 0x10000DCA4, symSize: 0x14 }
  - { offsetInCU: 0x62B68, offset: 0x62B68, size: 0x8, addend: 0x0, symName: __ZN9__gnu_cxxmiIPiSt6vectorIiSaIiEEEENS_17__normal_iteratorIT_T0_E15difference_typeERKS8_SB_, symObjAddr: 0xBD20, symBinAddr: 0x10000DC64, symSize: 0x40 }
  - { offsetInCU: 0x62BB9, offset: 0x62BB9, size: 0x8, addend: 0x0, symName: __ZNKSt6vectorIiSaIiEE12_M_check_lenEmPKc, symObjAddr: 0xBC50, symBinAddr: 0x10000DB94, symSize: 0xD0 }
  - { offsetInCU: 0x62C5A, offset: 0x62C5A, size: 0x8, addend: 0x0, symName: __ZSt7forwardIRKiEOT_RNSt16remove_referenceIS2_E4typeE, symObjAddr: 0xBC3C, symBinAddr: 0x10000DB80, symSize: 0x14 }
  - { offsetInCU: 0x62D31, offset: 0x62D31, size: 0x8, addend: 0x0, symName: __ZNSt6chrono8durationIxSt5ratioILl1ELl1000000EEEC1IxvEERKT_, symObjAddr: 0xBC14, symBinAddr: 0x10000DB58, symSize: 0x28 }
  - { offsetInCU: 0x62D2D, offset: 0x62D2D, size: 0x8, addend: 0x0, symName: __ZSt18uninitialized_copyIPSt6vectorIiSaIiEES3_ET0_T_S5_S4_, symObjAddr: 0xBBE0, symBinAddr: 0x10000DB24, symSize: 0x34 }
  - { offsetInCU: 0x62DA8, offset: 0x62DA8, size: 0x8, addend: 0x0, symName: __ZSt13__copy_move_aILb0EPSt6vectorIiSaIiEES3_ET1_T0_S5_S4_, symObjAddr: 0xBB80, symBinAddr: 0x10000DAC4, symSize: 0x60 }
  - { offsetInCU: 0x62E10, offset: 0x62E10, size: 0x8, addend: 0x0, symName: __ZSt12__miter_baseIPSt6vectorIiSaIiEEET_S4_, symObjAddr: 0xBB6C, symBinAddr: 0x10000DAB0, symSize: 0x14 }
  - { offsetInCU: 0x62E43, offset: 0x62E43, size: 0x8, addend: 0x0, symName: __ZSt8_DestroyIN9__gnu_cxx17__normal_iteratorIPSt6vectorIiSaIiEES2_IS4_SaIS4_EEEEEvT_S9_, symObjAddr: 0xBB44, symBinAddr: 0x10000DA88, symSize: 0x28 }
  - { offsetInCU: 0x62E85, offset: 0x62E85, size: 0x8, addend: 0x0, symName: __ZSt13__copy_move_aILb0EN9__gnu_cxx17__normal_iteratorIPKSt6vectorIiSaIiEES2_IS4_SaIS4_EEEENS1_IPS4_S8_EEET1_T0_SD_SC_, symObjAddr: 0xBAE4, symBinAddr: 0x10000DA28, symSize: 0x60 }
  - { offsetInCU: 0x62EED, offset: 0x62EED, size: 0x8, addend: 0x0, symName: __ZSt12__miter_baseIN9__gnu_cxx17__normal_iteratorIPKSt6vectorIiSaIiEES2_IS4_SaIS4_EEEEET_SA_, symObjAddr: 0xBAD0, symBinAddr: 0x10000DA14, symSize: 0x14 }
  - { offsetInCU: 0x62F94, offset: 0x62F94, size: 0x8, addend: 0x0, symName: __ZN9__gnu_cxx17__normal_iteratorIPSt6vectorIiSaIiEES1_IS3_SaIS3_EEEC1ERKS4_, symObjAddr: 0xBAA8, symBinAddr: 0x10000D9EC, symSize: 0x28 }
  - { offsetInCU: 0x62F77, offset: 0x62F77, size: 0x8, addend: 0x0, symName: __ZSt22__uninitialized_copy_aIN9__gnu_cxx17__normal_iteratorIPKSt6vectorIiSaIiEES2_IS4_SaIS4_EEEEPS4_S4_ET0_T_SC_SB_RSaIT1_E, symObjAddr: 0xBA78, symBinAddr: 0x10000D9BC, symSize: 0x30 }
  - { offsetInCU: 0x62FEB, offset: 0x62FEB, size: 0x8, addend: 0x0, symName: __ZNSt12_Vector_baseISt6vectorIiSaIiEESaIS2_EE11_M_allocateEm, symObjAddr: 0xBA28, symBinAddr: 0x10000D96C, symSize: 0x50 }
  - { offsetInCU: 0x630C4, offset: 0x630C4, size: 0x8, addend: 0x0, symName: __ZN9__gnu_cxx17__normal_iteratorIPKSt6vectorIiSaIiEES1_IS3_SaIS3_EEEC1ERKS5_, symObjAddr: 0xBA00, symBinAddr: 0x10000D944, symSize: 0x28 }
  - { offsetInCU: 0x630DC, offset: 0x630DC, size: 0x8, addend: 0x0, symName: __ZNSt6vectorIS_IiSaIiEESaIS1_EE15_M_erase_at_endEPS1_, symObjAddr: 0xB96C, symBinAddr: 0x10000D8B0, symSize: 0x94 }
  - { offsetInCU: 0x631F2, offset: 0x631F2, size: 0x8, addend: 0x0, symName: __ZNSt17_Rb_tree_iteratorISt4pairIKiSt6vectorIS2_IiSaIiEESaIS4_EEEEC1EPSt18_Rb_tree_node_base, symObjAddr: 0xB948, symBinAddr: 0x10000D88C, symSize: 0x24 }
  - { offsetInCU: 0x631C8, offset: 0x631C8, size: 0x8, addend: 0x0, symName: __ZNSt8_Rb_treeIiSt4pairIKiSt6vectorIS2_IiSaIiEESaIS4_EEESt10_Select1stIS7_ESt4lessIiESaIS7_EE10_Auto_node9_M_insertES0_IPSt18_Rb_tree_node_baseSG_E, symObjAddr: 0xB8FC, symBinAddr: 0x10000D840, symSize: 0x4C }
  - { offsetInCU: 0x63214, offset: 0x63214, size: 0x8, addend: 0x0, symName: __ZNKSt8_Rb_treeIiSt4pairIKiSt6vectorIS2_IiSaIiEESaIS4_EEESt10_Select1stIS7_ESt4lessIiESaIS7_EE10_Auto_node6_M_keyEv, symObjAddr: 0xB8DC, symBinAddr: 0x10000D820, symSize: 0x20 }
  - { offsetInCU: 0x6323E, offset: 0x6323E, size: 0x8, addend: 0x0, symName: __ZNSt8_Rb_treeIiSt4pairIKiSt6vectorIS2_IiSaIiEESaIS4_EEESt10_Select1stIS7_ESt4lessIiESaIS7_EE29_M_get_insert_hint_unique_posESt23_Rb_tree_const_iteratorIS7_ERS1_, symObjAddr: 0xB5B8, symBinAddr: 0x10000D4FC, symSize: 0x324 }
  - { offsetInCU: 0x63377, offset: 0x63377, size: 0x8, addend: 0x0, symName: __ZNSt8_Rb_treeIiSt4pairIKiSt6vectorIS2_IiSaIiEESaIS4_EEESt10_Select1stIS7_ESt4lessIiESaIS7_EE10_Auto_nodeD1Ev, symObjAddr: 0xB574, symBinAddr: 0x10000D4B8, symSize: 0x44 }
  - { offsetInCU: 0x6342E, offset: 0x6342E, size: 0x8, addend: 0x0, symName: __ZNSt8_Rb_treeIiSt4pairIKiSt6vectorIS2_IiSaIiEESaIS4_EEESt10_Select1stIS7_ESt4lessIiESaIS7_EE10_Auto_nodeC1IJRKSt21piecewise_construct_tSt5tupleIJRS1_EESJ_IJEEEEERSD_DpOT_, symObjAddr: 0xB4F8, symBinAddr: 0x10000D43C, symSize: 0x7C }
  - { offsetInCU: 0x633EE, offset: 0x633EE, size: 0x8, addend: 0x0, symName: __ZSt7forwardISt5tupleIJEEEOT_RNSt16remove_referenceIS2_E4typeE, symObjAddr: 0xB4E4, symBinAddr: 0x10000D428, symSize: 0x14 }
  - { offsetInCU: 0x63426, offset: 0x63426, size: 0x8, addend: 0x0, symName: __ZSt7forwardISt5tupleIJRKiEEEOT_RNSt16remove_referenceIS4_E4typeE, symObjAddr: 0xB4D0, symBinAddr: 0x10000D414, symSize: 0x14 }
  - { offsetInCU: 0x6345E, offset: 0x6345E, size: 0x8, addend: 0x0, symName: __ZSt7forwardIRKSt21piecewise_construct_tEOT_RNSt16remove_referenceIS3_E4typeE, symObjAddr: 0xB4BC, symBinAddr: 0x10000D400, symSize: 0x14 }
  - { offsetInCU: 0x634DC, offset: 0x634DC, size: 0x8, addend: 0x0, symName: __ZNSt11_Tuple_implILm0EJRKiEEC2ES1_, symObjAddr: 0xB494, symBinAddr: 0x10000D3D8, symSize: 0x28 }
  - { offsetInCU: 0x634EB, offset: 0x634EB, size: 0x8, addend: 0x0, symName: __ZNSt13_Rb_tree_nodeISt4pairIKiSt6vectorIS2_IiSaIiEESaIS4_EEEE9_M_valptrEv, symObjAddr: 0xB474, symBinAddr: 0x10000D3B8, symSize: 0x20 }
  - { offsetInCU: 0x63515, offset: 0x63515, size: 0x8, addend: 0x0, symName: __ZNKSt8_Rb_treeIiSt4pairIKiSt6vectorIS2_IiSaIiEESaIS4_EEESt10_Select1stIS7_ESt4lessIiESaIS7_EE8key_compEv, symObjAddr: 0xB45C, symBinAddr: 0x10000D3A0, symSize: 0x18 }
  - { offsetInCU: 0x6353F, offset: 0x6353F, size: 0x8, addend: 0x0, symName: __ZNSt8_Rb_treeIiSt4pairIKiSt6vectorIS2_IiSaIiEESaIS4_EEESt10_Select1stIS7_ESt4lessIiESaIS7_EE3endEv, symObjAddr: 0xB434, symBinAddr: 0x10000D378, symSize: 0x28 }
  - { offsetInCU: 0x63569, offset: 0x63569, size: 0x8, addend: 0x0, symName: __ZNSt8_Rb_treeIiSt4pairIKiSt6vectorIS2_IiSaIiEESaIS4_EEESt10_Select1stIS7_ESt4lessIiESaIS7_EE11lower_boundERS1_, symObjAddr: 0xB3EC, symBinAddr: 0x10000D330, symSize: 0x48 }
  - { offsetInCU: 0x635A0, offset: 0x635A0, size: 0x8, addend: 0x0, symName: __ZSt8_DestroyIPSt6vectorIiSaIiEEEvT_S4_, symObjAddr: 0xB3C4, symBinAddr: 0x10000D308, symSize: 0x28 }
  - { offsetInCU: 0x635E2, offset: 0x635E2, size: 0x8, addend: 0x0, symName: __ZSt24__uninitialized_fill_n_aIPSt6vectorIiSaIiEEmS2_S2_ET_S4_T0_RKT1_RSaIT2_E, symObjAddr: 0xB394, symBinAddr: 0x10000D2D8, symSize: 0x30 }
  - { offsetInCU: 0x6365F, offset: 0x6365F, size: 0x8, addend: 0x0, symName: __ZNSt12_Vector_baseISt6vectorIiSaIiEESaIS2_EE17_M_create_storageEm, symObjAddr: 0xB328, symBinAddr: 0x10000D26C, symSize: 0x6C }
  - { offsetInCU: 0x63701, offset: 0x63701, size: 0x8, addend: 0x0, symName: __ZNSt12_Vector_baseISt6vectorIiSaIiEESaIS2_EE12_Vector_implC1ERKS3_, symObjAddr: 0xB2DC, symBinAddr: 0x10000D220, symSize: 0x4C }
  - { offsetInCU: 0x63767, offset: 0x63767, size: 0x8, addend: 0x0, symName: __ZNSt6vectorIS_IiSaIiEESaIS1_EE11_S_max_sizeERKS2_, symObjAddr: 0xB280, symBinAddr: 0x10000D1C4, symSize: 0x5C }
  - { offsetInCU: 0x6381E, offset: 0x6381E, size: 0x8, addend: 0x0, symName: __ZSt8_DestroyIPiEvT_S1_, symObjAddr: 0xB258, symBinAddr: 0x10000D19C, symSize: 0x28 }
  - { offsetInCU: 0x63860, offset: 0x63860, size: 0x8, addend: 0x0, symName: __ZSt27__uninitialized_default_n_aIPimiET_S1_T0_RSaIT1_E, symObjAddr: 0xB230, symBinAddr: 0x10000D174, symSize: 0x28 }
  - { offsetInCU: 0x638C3, offset: 0x638C3, size: 0x8, addend: 0x0, symName: __ZNSt12_Vector_baseIiSaIiEE17_M_create_storageEm, symObjAddr: 0xB1D0, symBinAddr: 0x10000D114, symSize: 0x60 }
  - { offsetInCU: 0x638FA, offset: 0x638FA, size: 0x8, addend: 0x0, symName: __ZNSt6vectorIiSaIiEE11_S_max_sizeERKS0_, symObjAddr: 0xB17C, symBinAddr: 0x10000D0C0, symSize: 0x54 }
  - { offsetInCU: 0x639B5, offset: 0x639B5, size: 0x8, addend: 0x0, symName: __ZNKSt8_Rb_treeIiSt4pairIKiSt6vectorIS2_IiSaIiEESaIS4_EEESt10_Select1stIS7_ESt4lessIiESaIS7_EE9_M_mbeginEv, symObjAddr: 0xB164, symBinAddr: 0x10000D0A8, symSize: 0x18 }
  - { offsetInCU: 0x639DF, offset: 0x639DF, size: 0x8, addend: 0x0, symName: __ZNSt8_Rb_treeIiSt4pairIKiSt6vectorIS2_IiSaIiEESaIS4_EEESt10_Select1stIS7_ESt4lessIiESaIS7_EE12_M_drop_nodeEPSt13_Rb_tree_nodeIS7_E, symObjAddr: 0xB130, symBinAddr: 0x10000D074, symSize: 0x34 }
  - { offsetInCU: 0x63A16, offset: 0x63A16, size: 0x8, addend: 0x0, symName: __ZNSt8_Rb_treeIiSt4pairIKiSt6vectorIS2_IiSaIiEESaIS4_EEESt10_Select1stIS7_ESt4lessIiESaIS7_EE7_S_leftEPSt18_Rb_tree_node_base, symObjAddr: 0xB118, symBinAddr: 0x10000D05C, symSize: 0x18 }
  - { offsetInCU: 0x63A40, offset: 0x63A40, size: 0x8, addend: 0x0, symName: __ZNSt8_Rb_treeIiSt4pairIKiSt6vectorIS2_IiSaIiEESaIS4_EEESt10_Select1stIS7_ESt4lessIiESaIS7_EE8_S_rightEPSt18_Rb_tree_node_base, symObjAddr: 0xB100, symBinAddr: 0x10000D044, symSize: 0x18 }
  - { offsetInCU: 0x63A80, offset: 0x63A80, size: 0x8, addend: 0x0, symName: __ZN8nlohmann16json_abi_v3_11_310basic_jsonISt3mapSt6vectorNSt7__cxx1112basic_stringIcSt11char_traitsIcESaIcEEEbxydSaNS0_14adl_serializerES3_IhSaIhEEvE6createIS3_ISD_SaISD_EEJPKNS0_6detail8json_refISD_EESL_EEEPT_DpOT0_, symObjAddr: 0xAEFC, symBinAddr: 0x10000CE40, symSize: 0x204 }
  - { offsetInCU: 0x63C6A, offset: 0x63C6A, size: 0x8, addend: 0x0, symName: __ZZN8nlohmann16json_abi_v3_11_310basic_jsonISt3mapSt6vectorNSt7__cxx1112basic_stringIcSt11char_traitsIcESaIcEEEbxydSaNS0_14adl_serializerES3_IhSaIhEEvE6createIS3_ISD_SaISD_EEJPKNS0_6detail8json_refISD_EESL_EEEPT_DpOT0_ENKUlPSG_E_clESR_, symObjAddr: 0xAEB0, symBinAddr: 0x10000CDF4, symSize: 0x4C }
  - { offsetInCU: 0x63DC1, offset: 0x63DC1, size: 0x8, addend: 0x0, symName: __ZNSt3mapINSt7__cxx1112basic_stringIcSt11char_traitsIcESaIcEEEN8nlohmann16json_abi_v3_11_310basic_jsonIS_St6vectorS5_bxydSaNS7_14adl_serializerES9_IhSaIhEEvEESt4lessIvESaISt4pairIKS5_SD_EEE7emplaceIJS5_SD_EEESG_ISt17_Rb_tree_iteratorISI_EbEDpOT_, symObjAddr: 0xAD68, symBinAddr: 0x10000CCAC, symSize: 0x148 }
  - { offsetInCU: 0x63E87, offset: 0x63E87, size: 0x8, addend: 0x0, symName: __ZNSt10__pair_getILm1EE10__move_getIRNSt7__cxx1112basic_stringIcSt11char_traitsIcESaIcEEERN8nlohmann16json_abi_v3_11_310basic_jsonISt3mapSt6vectorS7_bxydSaNSA_14adl_serializerESD_IhSaIhEEvEEEEOT0_OSt4pairIT_SJ_E, symObjAddr: 0xAD48, symBinAddr: 0x10000CC8C, symSize: 0x20 }
  - { offsetInCU: 0x63EC3, offset: 0x63EC3, size: 0x8, addend: 0x0, symName: __ZSt3getILm1ERNSt7__cxx1112basic_stringIcSt11char_traitsIcESaIcEEERN8nlohmann16json_abi_v3_11_310basic_jsonISt3mapSt6vectorS5_bxydSaNS8_14adl_serializerESB_IhSaIhEEvEEEONSt13tuple_elementIXT_ESt4pairIT0_T1_EE4typeEOSL_, symObjAddr: 0xAD28, symBinAddr: 0x10000CC6C, symSize: 0x20 }
  - { offsetInCU: 0x63F09, offset: 0x63F09, size: 0x8, addend: 0x0, symName: __ZNSt10__pair_getILm0EE10__move_getIRNSt7__cxx1112basic_stringIcSt11char_traitsIcESaIcEEERN8nlohmann16json_abi_v3_11_310basic_jsonISt3mapSt6vectorS7_bxydSaNSA_14adl_serializerESD_IhSaIhEEvEEEEOT_OSt4pairISJ_T0_E, symObjAddr: 0xAD08, symBinAddr: 0x10000CC4C, symSize: 0x20 }
  - { offsetInCU: 0x63F4C, offset: 0x63F4C, size: 0x8, addend: 0x0, symName: __ZSt4moveIRSt4pairIRNSt7__cxx1112basic_stringIcSt11char_traitsIcESaIcEEERN8nlohmann16json_abi_v3_11_310basic_jsonISt3mapSt6vectorS6_bxydSaNS9_14adl_serializerESC_IhSaIhEEvEEEEONSt16remove_referenceIT_E4typeEOSL_, symObjAddr: 0xACF4, symBinAddr: 0x10000CC38, symSize: 0x14 }
  - { offsetInCU: 0x63F7E, offset: 0x63F7E, size: 0x8, addend: 0x0, symName: __ZSt3getILm0ERNSt7__cxx1112basic_stringIcSt11char_traitsIcESaIcEEERN8nlohmann16json_abi_v3_11_310basic_jsonISt3mapSt6vectorS5_bxydSaNS8_14adl_serializerESB_IhSaIhEEvEEEONSt13tuple_elementIXT_ESt4pairIT0_T1_EE4typeEOSL_, symObjAddr: 0xACD4, symBinAddr: 0x10000CC18, symSize: 0x20 }
  - { offsetInCU: 0x640C8, offset: 0x640C8, size: 0x8, addend: 0x0, symName: __ZNSt4pairIRNSt7__cxx1112basic_stringIcSt11char_traitsIcESaIcEEERN8nlohmann16json_abi_v3_11_310basic_jsonISt3mapSt6vectorS5_bxydSaNS8_14adl_serializerESB_IhSaIhEEvEEEC1IS6_SG_Lb1EEES6_SG_, symObjAddr: 0xACA0, symBinAddr: 0x10000CBE4, symSize: 0x34 }
  - { offsetInCU: 0x6405A, offset: 0x6405A, size: 0x8, addend: 0x0, symName: __ZNSt6vectorIN8nlohmann16json_abi_v3_11_310basic_jsonISt3mapS_NSt7__cxx1112basic_stringIcSt11char_traitsIcESaIcEEEbxydSaNS1_14adl_serializerES_IhSaIhEEvEESaISD_EEixEm, symObjAddr: 0xAC78, symBinAddr: 0x10000CBBC, symSize: 0x28 }
  - { offsetInCU: 0x64095, offset: 0x64095, size: 0x8, addend: 0x0, symName: __ZNK8nlohmann16json_abi_v3_11_36detail8json_refINS0_10basic_jsonISt3mapSt6vectorNSt7__cxx1112basic_stringIcSt11char_traitsIcESaIcEEEbxydSaNS0_14adl_serializerES5_IhSaIhEEvEEE15moved_or_copiedEv, symObjAddr: 0xAC18, symBinAddr: 0x10000CB5C, symSize: 0x60 }
  - { offsetInCU: 0x640BB, offset: 0x640BB, size: 0x8, addend: 0x0, symName: __ZN8nlohmann16json_abi_v3_11_36detail10type_error6createIDnLi0EEES2_iRKNSt7__cxx1112basic_stringIcSt11char_traitsIcESaIcEEET_, symObjAddr: 0xAAD8, symBinAddr: 0x10000CA1C, symSize: 0x140 }
  - { offsetInCU: 0x641AB, offset: 0x641AB, size: 0x8, addend: 0x0, symName: __ZSt6all_ofIPKN8nlohmann16json_abi_v3_11_36detail8json_refINS1_10basic_jsonISt3mapSt6vectorNSt7__cxx1112basic_stringIcSt11char_traitsIcESaIcEEEbxydSaNS1_14adl_serializerES6_IhSaIhEEvEEEEZNSG_C4ESt16initializer_listISH_EbNS2_7value_tEEUlRSI_E_EbT_SP_T0_, symObjAddr: 0xAA98, symBinAddr: 0x10000C9DC, symSize: 0x40 }
  - { offsetInCU: 0x6420D, offset: 0x6420D, size: 0x8, addend: 0x0, symName: __ZNK8nlohmann16json_abi_v3_11_310basic_jsonISt3mapSt6vectorNSt7__cxx1112basic_stringIcSt11char_traitsIcESaIcEEEbxydSaNS0_14adl_serializerES3_IhSaIhEEvE9is_stringEv, symObjAddr: 0xAA74, symBinAddr: 0x10000C9B8, symSize: 0x24 }
  - { offsetInCU: 0x64237, offset: 0x64237, size: 0x8, addend: 0x0, symName: __ZNK8nlohmann16json_abi_v3_11_310basic_jsonISt3mapSt6vectorNSt7__cxx1112basic_stringIcSt11char_traitsIcESaIcEEEbxydSaNS0_14adl_serializerES3_IhSaIhEEvEixEm, symObjAddr: 0xA98C, symBinAddr: 0x10000C8D0, symSize: 0xE8 }
  - { offsetInCU: 0x64272, offset: 0x64272, size: 0x8, addend: 0x0, symName: __ZNK8nlohmann16json_abi_v3_11_36detail8json_refINS0_10basic_jsonISt3mapSt6vectorNSt7__cxx1112basic_stringIcSt11char_traitsIcESaIcEEEbxydSaNS0_14adl_serializerES5_IhSaIhEEvEEEdeEv, symObjAddr: 0xA95C, symBinAddr: 0x10000C8A0, symSize: 0x30 }
  - { offsetInCU: 0x6429C, offset: 0x6429C, size: 0x8, addend: 0x0, symName: __ZNK8nlohmann16json_abi_v3_11_310basic_jsonISt3mapSt6vectorNSt7__cxx1112basic_stringIcSt11char_traitsIcESaIcEEEbxydSaNS0_14adl_serializerES3_IhSaIhEEvE4sizeEv, symObjAddr: 0xA8F0, symBinAddr: 0x10000C834, symSize: 0x6C }
  - { offsetInCU: 0x642C6, offset: 0x642C6, size: 0x8, addend: 0x0, symName: __ZNK8nlohmann16json_abi_v3_11_36detail8json_refINS0_10basic_jsonISt3mapSt6vectorNSt7__cxx1112basic_stringIcSt11char_traitsIcESaIcEEEbxydSaNS0_14adl_serializerES5_IhSaIhEEvEEEptEv, symObjAddr: 0xA8D4, symBinAddr: 0x10000C818, symSize: 0x1C }
  - { offsetInCU: 0x642F0, offset: 0x642F0, size: 0x8, addend: 0x0, symName: __ZNKSt16initializer_listIN8nlohmann16json_abi_v3_11_36detail8json_refINS1_10basic_jsonISt3mapSt6vectorNSt7__cxx1112basic_stringIcSt11char_traitsIcESaIcEEEbxydSaNS1_14adl_serializerES6_IhSaIhEEvEEEEE3endEv, symObjAddr: 0xA88C, symBinAddr: 0x10000C7D0, symSize: 0x48 }
  - { offsetInCU: 0x6431A, offset: 0x6431A, size: 0x8, addend: 0x0, symName: __ZNKSt16initializer_listIN8nlohmann16json_abi_v3_11_36detail8json_refINS1_10basic_jsonISt3mapSt6vectorNSt7__cxx1112basic_stringIcSt11char_traitsIcESaIcEEEbxydSaNS1_14adl_serializerES6_IhSaIhEEvEEEEE5beginEv, symObjAddr: 0xA874, symBinAddr: 0x10000C7B8, symSize: 0x18 }
  - { offsetInCU: 0x64340, offset: 0x64340, size: 0x8, addend: 0x0, symName: __ZSt22__uninitialized_copy_aIPKiPiiET0_T_S4_S3_RSaIT1_E, symObjAddr: 0xA844, symBinAddr: 0x10000C788, symSize: 0x30 }
  - { offsetInCU: 0x643B4, offset: 0x643B4, size: 0x8, addend: 0x0, symName: __ZNSt12_Vector_baseIiSaIiEE11_M_allocateEm, symObjAddr: 0xA7F4, symBinAddr: 0x10000C738, symSize: 0x50 }
  - { offsetInCU: 0x64462, offset: 0x64462, size: 0x8, addend: 0x0, symName: __ZNKSt16initializer_listIiE4sizeEv, symObjAddr: 0xA7DC, symBinAddr: 0x10000C720, symSize: 0x18 }
  - { offsetInCU: 0x644E1, offset: 0x644E1, size: 0x8, addend: 0x0, symName: __ZNSt12_Vector_baseIiSaIiEE12_Vector_implC1ERKS0_, symObjAddr: 0xA790, symBinAddr: 0x10000C6D4, symSize: 0x4C }
  - { offsetInCU: 0x64536, offset: 0x64536, size: 0x8, addend: 0x0, symName: __ZN8nlohmann16json_abi_v3_11_36detailL8unescapeINSt7__cxx1112basic_stringIcSt11char_traitsIcESaIcEEEEEvRT_, symObjAddr: 0xA5B8, symBinAddr: 0x10000C4FC, symSize: 0x1D8 }
  - { offsetInCU: 0x647A6, offset: 0x647A6, size: 0x8, addend: 0x0, symName: __ZN8nlohmann16json_abi_v3_11_310basic_jsonISt3mapSt6vectorNSt7__cxx1112basic_stringIcSt11char_traitsIcESaIcEEEbxydSaNS0_14adl_serializerES3_IhSaIhEEvE10json_value7destroyENS0_6detail7value_tE, symObjAddr: 0xA0C0, symBinAddr: 0x10000C004, symSize: 0x4F8 }
  - { offsetInCU: 0x64DC8, offset: 0x64DC8, size: 0x8, addend: 0x0, symName: __ZNSt6vectorIN8nlohmann16json_abi_v3_11_310basic_jsonISt3mapS_NSt7__cxx1112basic_stringIcSt11char_traitsIcESaIcEEEbxydSaNS1_14adl_serializerES_IhSaIhEEvEESaISD_EEC1Ev, symObjAddr: 0xA0A0, symBinAddr: 0x10000BFE4, symSize: 0x20 }
  - { offsetInCU: 0x64E17, offset: 0x64E17, size: 0x8, addend: 0x0, symName: __ZNSt12_Vector_baseIN8nlohmann16json_abi_v3_11_310basic_jsonISt3mapSt6vectorNSt7__cxx1112basic_stringIcSt11char_traitsIcESaIcEEEbxydSaNS1_14adl_serializerES4_IhSaIhEEvEESaISE_EEC2Ev, symObjAddr: 0xA080, symBinAddr: 0x10000BFC4, symSize: 0x20 }
  - { offsetInCU: 0x64E72, offset: 0x64E72, size: 0x8, addend: 0x0, symName: __ZNSt12_Vector_baseIN8nlohmann16json_abi_v3_11_310basic_jsonISt3mapSt6vectorNSt7__cxx1112basic_stringIcSt11char_traitsIcESaIcEEEbxydSaNS1_14adl_serializerES4_IhSaIhEEvEESaISE_EE12_Vector_implD1Ev, symObjAddr: 0xA054, symBinAddr: 0x10000BF98, symSize: 0x2C }
  - { offsetInCU: 0x64DFE, offset: 0x64DFE, size: 0x8, addend: 0x0, symName: __ZSt4moveIRN8nlohmann16json_abi_v3_11_310basic_jsonISt3mapSt6vectorNSt7__cxx1112basic_stringIcSt11char_traitsIcESaIcEEEbxydSaNS1_14adl_serializerES4_IhSaIhEEvE4dataEEONSt16remove_referenceIT_E4typeEOSI_, symObjAddr: 0xA040, symBinAddr: 0x10000BF84, symSize: 0x14 }
  - { offsetInCU: 0x64E36, offset: 0x64E36, size: 0x8, addend: 0x0, symName: __ZSt7forwardIN8nlohmann16json_abi_v3_11_36detail17json_default_baseEEOT_RNSt16remove_referenceIS4_E4typeE, symObjAddr: 0xA02C, symBinAddr: 0x10000BF70, symSize: 0x14 }
  - { offsetInCU: 0x64E6C, offset: 0x64E6C, size: 0x8, addend: 0x0, symName: __ZN8nlohmann16json_abi_v3_11_36detail19json_sax_dom_parserINS0_10basic_jsonISt3mapSt6vectorNSt7__cxx1112basic_stringIcSt11char_traitsIcESaIcEEEbxydSaNS0_14adl_serializerES5_IhSaIhEEvEEE11parse_errorINS1_11parse_errorEEEbmRKSB_RKT_, symObjAddr: 0x9FB0, symBinAddr: 0x10000BEF4, symSize: 0x7C }
  - { offsetInCU: 0x64FB6, offset: 0x64FB6, size: 0x8, addend: 0x0, symName: __ZN8nlohmann16json_abi_v3_11_36detail19json_sax_dom_parserINS0_10basic_jsonISt3mapSt6vectorNSt7__cxx1112basic_stringIcSt11char_traitsIcESaIcEEEbxydSaNS0_14adl_serializerES5_IhSaIhEEvEEEC1ERSF_b, symObjAddr: 0x9F48, symBinAddr: 0x10000BE8C, symSize: 0x68 }
  - { offsetInCU: 0x64F30, offset: 0x64F30, size: 0x8, addend: 0x0, symName: __ZN8nlohmann16json_abi_v3_11_36detail28json_sax_dom_callback_parserINS0_10basic_jsonISt3mapSt6vectorNSt7__cxx1112basic_stringIcSt11char_traitsIcESaIcEEEbxydSaNS0_14adl_serializerES5_IhSaIhEEvEEE11parse_errorINS1_11parse_errorEEEbmRKSB_RKT_, symObjAddr: 0x9ECC, symBinAddr: 0x10000BE10, symSize: 0x7C }
  - { offsetInCU: 0x64FE0, offset: 0x64FE0, size: 0x8, addend: 0x0, symName: __ZN8nlohmann16json_abi_v3_11_36detail11parse_errorC1ERKS2_, symObjAddr: 0x9E80, symBinAddr: 0x10000BDC4, symSize: 0x4C }
  - { offsetInCU: 0x6502F, offset: 0x6502F, size: 0x8, addend: 0x0, symName: __ZN8nlohmann16json_abi_v3_11_36detail9exceptionC2ERKS2_, symObjAddr: 0x9E18, symBinAddr: 0x10000BD5C, symSize: 0x68 }
  - { offsetInCU: 0x65062, offset: 0x65062, size: 0x8, addend: 0x0, symName: __ZNSt9exceptionC2ERKS_, symObjAddr: 0x9DEC, symBinAddr: 0x10000BD30, symSize: 0x2C }
  - { offsetInCU: 0x6507A, offset: 0x6507A, size: 0x8, addend: 0x0, symName: __ZN8nlohmann16json_abi_v3_11_36detail11parse_error6createIDnLi0EEES2_iRKNS1_10position_tERKNSt7__cxx1112basic_stringIcSt11char_traitsIcESaIcEEET_, symObjAddr: 0x9C4C, symBinAddr: 0x10000BB90, symSize: 0x1A0 }
  - { offsetInCU: 0x65208, offset: 0x65208, size: 0x8, addend: 0x0, symName: __ZN8nlohmann16json_abi_v3_11_36detail12out_of_rangeD0Ev, symObjAddr: 0x9C24, symBinAddr: 0x10000BB68, symSize: 0x28 }
  - { offsetInCU: 0x65232, offset: 0x65232, size: 0x8, addend: 0x0, symName: __ZN8nlohmann16json_abi_v3_11_36detail12out_of_rangeD1Ev, symObjAddr: 0x9BF0, symBinAddr: 0x10000BB34, symSize: 0x34 }
  - { offsetInCU: 0x6525D, offset: 0x6525D, size: 0x8, addend: 0x0, symName: __ZNSt6vectorIbSaIbEED1Ev, symObjAddr: 0x9BD0, symBinAddr: 0x10000BB14, symSize: 0x20 }
  - { offsetInCU: 0x65336, offset: 0x65336, size: 0x8, addend: 0x0, symName: __ZNSt6vectorIPN8nlohmann16json_abi_v3_11_310basic_jsonISt3mapS_NSt7__cxx1112basic_stringIcSt11char_traitsIcESaIcEEEbxydSaNS1_14adl_serializerES_IhSaIhEEvEESaISE_EED1Ev, symObjAddr: 0x9B74, symBinAddr: 0x10000BAB8, symSize: 0x5C }
  - { offsetInCU: 0x65421, offset: 0x65421, size: 0x8, addend: 0x0, symName: __ZN8nlohmann16json_abi_v3_11_36detail28json_sax_dom_callback_parserINS0_10basic_jsonISt3mapSt6vectorNSt7__cxx1112basic_stringIcSt11char_traitsIcESaIcEEEbxydSaNS0_14adl_serializerES5_IhSaIhEEvEEEC1ERSF_St8functionIFbiNS1_13parse_event_tESH_EEb, symObjAddr: 0x9A38, symBinAddr: 0x10000B97C, symSize: 0x13C }
  - { offsetInCU: 0x653A3, offset: 0x653A3, size: 0x8, addend: 0x0, symName: __ZNSt6vectorIbSaIbEEC1Ev, symObjAddr: 0x9A18, symBinAddr: 0x10000B95C, symSize: 0x20 }
  - { offsetInCU: 0x653EA, offset: 0x653EA, size: 0x8, addend: 0x0, symName: __ZNSt13_Bvector_baseISaIbEEC2Ev, symObjAddr: 0x99F8, symBinAddr: 0x10000B93C, symSize: 0x20 }
  - { offsetInCU: 0x65447, offset: 0x65447, size: 0x8, addend: 0x0, symName: __ZNSt13_Bvector_baseISaIbEE13_Bvector_implD1Ev, symObjAddr: 0x99CC, symBinAddr: 0x10000B910, symSize: 0x2C }
  - { offsetInCU: 0x65524, offset: 0x65524, size: 0x8, addend: 0x0, symName: __ZNSt6vectorIPN8nlohmann16json_abi_v3_11_310basic_jsonISt3mapS_NSt7__cxx1112basic_stringIcSt11char_traitsIcESaIcEEEbxydSaNS1_14adl_serializerES_IhSaIhEEvEESaISE_EEC1Ev, symObjAddr: 0x99AC, symBinAddr: 0x10000B8F0, symSize: 0x20 }
  - { offsetInCU: 0x65573, offset: 0x65573, size: 0x8, addend: 0x0, symName: __ZNSt12_Vector_baseIPN8nlohmann16json_abi_v3_11_310basic_jsonISt3mapSt6vectorNSt7__cxx1112basic_stringIcSt11char_traitsIcESaIcEEEbxydSaNS1_14adl_serializerES4_IhSaIhEEvEESaISF_EEC2Ev, symObjAddr: 0x998C, symBinAddr: 0x10000B8D0, symSize: 0x20 }
  - { offsetInCU: 0x655CE, offset: 0x655CE, size: 0x8, addend: 0x0, symName: __ZNSt12_Vector_baseIPN8nlohmann16json_abi_v3_11_310basic_jsonISt3mapSt6vectorNSt7__cxx1112basic_stringIcSt11char_traitsIcESaIcEEEbxydSaNS1_14adl_serializerES4_IhSaIhEEvEESaISF_EE12_Vector_implD1Ev, symObjAddr: 0x9960, symBinAddr: 0x10000B8A4, symSize: 0x2C }
  - { offsetInCU: 0x65591, offset: 0x65591, size: 0x8, addend: 0x0, symName: __ZNSt12_Vector_baseIcSaIcEE19_M_get_Tp_allocatorEv, symObjAddr: 0x994C, symBinAddr: 0x10000B890, symSize: 0x14 }
  - { offsetInCU: 0x655FB, offset: 0x655FB, size: 0x8, addend: 0x0, symName: __ZNSt12_Vector_baseIcSaIcEED2Ev, symObjAddr: 0x9900, symBinAddr: 0x10000B844, symSize: 0x4C }
  - { offsetInCU: 0x65656, offset: 0x65656, size: 0x8, addend: 0x0, symName: __ZNSt12_Vector_baseIcSaIcEE12_Vector_implD1Ev, symObjAddr: 0x98D4, symBinAddr: 0x10000B818, symSize: 0x2C }
  - { offsetInCU: 0x65766, offset: 0x65766, size: 0x8, addend: 0x0, symName: __ZNSt8functionIFbiN8nlohmann16json_abi_v3_11_36detail13parse_event_tERNS1_10basic_jsonISt3mapSt6vectorNSt7__cxx1112basic_stringIcSt11char_traitsIcESaIcEEEbxydSaNS1_14adl_serializerES6_IhSaIhEEvEEEEC1EOSJ_, symObjAddr: 0x9850, symBinAddr: 0x10000B794, symSize: 0x84 }
  - { offsetInCU: 0x656CF, offset: 0x656CF, size: 0x8, addend: 0x0, symName: __ZSt4moveIRSt8functionIFbiN8nlohmann16json_abi_v3_11_36detail13parse_event_tERNS2_10basic_jsonISt3mapSt6vectorNSt7__cxx1112basic_stringIcSt11char_traitsIcESaIcEEEbxydSaNS2_14adl_serializerES7_IhSaIhEEvEEEEEONSt16remove_referenceIT_E4typeEOSN_, symObjAddr: 0x983C, symBinAddr: 0x10000B780, symSize: 0x14 }
  - { offsetInCU: 0x65705, offset: 0x65705, size: 0x8, addend: 0x0, symName: __ZNKSt8functionIFbiN8nlohmann16json_abi_v3_11_36detail13parse_event_tERNS1_10basic_jsonISt3mapSt6vectorNSt7__cxx1112basic_stringIcSt11char_traitsIcESaIcEEEbxydSaNS1_14adl_serializerES6_IhSaIhEEvEEEEcvbEv, symObjAddr: 0x9818, symBinAddr: 0x10000B75C, symSize: 0x24 }
  - { offsetInCU: 0x6572B, offset: 0x6572B, size: 0x8, addend: 0x0, symName: __ZN8nlohmann16json_abi_v3_11_36detail11concat_intoINSt7__cxx1112basic_stringIcSt11char_traitsIcESaIcEEES8_JRA10_KcS8_ELi0EEEvRT_OT0_DpOT1_, symObjAddr: 0x97B4, symBinAddr: 0x10000B6F8, symSize: 0x64 }
  - { offsetInCU: 0x657A1, offset: 0x657A1, size: 0x8, addend: 0x0, symName: __ZN8nlohmann16json_abi_v3_11_36detail13concat_lengthINSt7__cxx1112basic_stringIcSt11char_traitsIcESaIcEEEJA10_cS8_EEEmRKT_DpRKT0_, symObjAddr: 0x9774, symBinAddr: 0x10000B6B8, symSize: 0x40 }
  - { offsetInCU: 0x657FD, offset: 0x657FD, size: 0x8, addend: 0x0, symName: __ZN8nlohmann16json_abi_v3_11_36detail11concat_intoINSt7__cxx1112basic_stringIcSt11char_traitsIcESaIcEEERKS8_JcS8_RA3_KcELi0EEEvRT_OT0_DpOT1_, symObjAddr: 0x96FC, symBinAddr: 0x10000B640, symSize: 0x78 }
  - { offsetInCU: 0x65881, offset: 0x65881, size: 0x8, addend: 0x0, symName: __ZN8nlohmann16json_abi_v3_11_36detail13concat_lengthINSt7__cxx1112basic_stringIcSt11char_traitsIcESaIcEEEJcS8_A3_cEEEmRKT_DpRKT0_, symObjAddr: 0x96B0, symBinAddr: 0x10000B5F4, symSize: 0x4C }
  - { offsetInCU: 0x65994, offset: 0x65994, size: 0x8, addend: 0x0, symName: __ZNK8nlohmann16json_abi_v3_11_310basic_jsonISt3mapSt6vectorNSt7__cxx1112basic_stringIcSt11char_traitsIcESaIcEEEbxydSaNS0_14adl_serializerES3_IhSaIhEEvE8get_implIiLi0EEET_NS0_6detail12priority_tagILj0EEE, symObjAddr: 0x9680, symBinAddr: 0x10000B5C4, symSize: 0x30 }
  - { offsetInCU: 0x65A3C, offset: 0x65A3C, size: 0x8, addend: 0x0, symName: __ZNSt12_Vector_baseISt6vectorIiSaIiEESaIS2_EE17_Vector_impl_dataC2Ev, symObjAddr: 0x9654, symBinAddr: 0x10000B598, symSize: 0x2C }
  - { offsetInCU: 0x65A21, offset: 0x65A21, size: 0x8, addend: 0x0, symName: __ZN8nlohmann16json_abi_v3_11_36detail6parserINS0_10basic_jsonISt3mapSt6vectorNSt7__cxx1112basic_stringIcSt11char_traitsIcESaIcEEEbxydSaNS0_14adl_serializerES5_IhSaIhEEvEENS1_22iterator_input_adapterIN9__gnu_cxx17__normal_iteratorIPKcSB_EEEEE5parseEbRSF_, symObjAddr: 0x9170, symBinAddr: 0x10000B0B4, symSize: 0x4E4 }
  - { offsetInCU: 0x65BAA, offset: 0x65BAA, size: 0x8, addend: 0x0, symName: __ZN8nlohmann16json_abi_v3_11_310basic_jsonISt3mapSt6vectorNSt7__cxx1112basic_stringIcSt11char_traitsIcESaIcEEEbxydSaNS0_14adl_serializerES3_IhSaIhEEvE6parserINS0_6detail22iterator_input_adapterIN9__gnu_cxx17__normal_iteratorIPKcS9_EEEEEENSF_6parserISD_T_EESO_St8functionIFbiNSF_13parse_event_tERSD_EEbb, symObjAddr: 0x90CC, symBinAddr: 0x10000B010, symSize: 0xA4 }
  - { offsetInCU: 0x65C11, offset: 0x65C11, size: 0x8, addend: 0x0, symName: __ZN8nlohmann16json_abi_v3_11_36detail13input_adapterINSt7__cxx1112basic_stringIcSt11char_traitsIcESaIcEEEEENS1_36container_input_adapter_factory_impl31container_input_adapter_factoryIT_vE12adapter_typeERKSB_, symObjAddr: 0x90B0, symBinAddr: 0x10000AFF4, symSize: 0x1C }
  - { offsetInCU: 0x65C4A, offset: 0x65C4A, size: 0x8, addend: 0x0, symName: __ZSt7forwardIRNSt7__cxx1112basic_stringIcSt11char_traitsIcESaIcEEEEOT_RNSt16remove_referenceIS7_E4typeE, symObjAddr: 0x909C, symBinAddr: 0x10000AFE0, symSize: 0x14 }
  - { offsetInCU: 0x65C80, offset: 0x65C80, size: 0x8, addend: 0x0, symName: __ZNSt7__cxx1112basic_stringIcSt11char_traitsIcESaIcEE12_M_constructISt19istreambuf_iteratorIcS2_EEEvT_S8_St18input_iterator_tag, symObjAddr: 0x8EE0, symBinAddr: 0x10000AE24, symSize: 0x1BC }
  - { offsetInCU: 0x65E25, offset: 0x65E25, size: 0x8, addend: 0x0, symName: __ZZNSt7__cxx1112basic_stringIcSt11char_traitsIcESaIcEE12_M_constructISt19istreambuf_iteratorIcS2_EEEvT_S8_St18input_iterator_tagEN6_GuardC1EPS4_, symObjAddr: 0x8E88, symBinAddr: 0x10000ADCC, symSize: 0x24 }
  - { offsetInCU: 0x65E55, offset: 0x65E55, size: 0x8, addend: 0x0, symName: __ZZNSt7__cxx1112basic_stringIcSt11char_traitsIcESaIcEE12_M_constructISt19istreambuf_iteratorIcS2_EEEvT_S8_St18input_iterator_tagEN6_GuardD1Ev, symObjAddr: 0x8EAC, symBinAddr: 0x10000ADF0, symSize: 0x34 }
  - { offsetInCU: 0x65E5F, offset: 0x65E5F, size: 0x8, addend: 0x0, symName: __ZNSt6vectorIS_IiSaIiEESaIS1_EE12emplace_backIJS1_EEERS1_DpOT_, symObjAddr: 0x8DAC, symBinAddr: 0x10000ACF0, symSize: 0xDC }
  - { offsetInCU: 0x65F11, offset: 0x65F11, size: 0x8, addend: 0x0, symName: __ZSt4moveIRSt6vectorIiSaIiEEEONSt16remove_referenceIT_E4typeEOS5_, symObjAddr: 0x8D98, symBinAddr: 0x10000ACDC, symSize: 0x14 }
  - { offsetInCU: 0x65F47, offset: 0x65F47, size: 0x8, addend: 0x0, symName: __ZNK8nlohmann16json_abi_v3_11_310basic_jsonISt3mapSt6vectorNSt7__cxx1112basic_stringIcSt11char_traitsIcESaIcEEEbxydSaNS0_14adl_serializerES3_IhSaIhEEvE8get_implIS9_Li0EEET_NS0_6detail12priority_tagILj0EEE, symObjAddr: 0x8D44, symBinAddr: 0x10000AC88, symSize: 0x54 }
  - { offsetInCU: 0x65F90, offset: 0x65F90, size: 0x8, addend: 0x0, symName: __ZN8nlohmann16json_abi_v3_11_36detail16invalid_iterator6createIPKNS0_10basic_jsonISt3mapSt6vectorNSt7__cxx1112basic_stringIcSt11char_traitsIcESaIcEEEbxydSaNS0_14adl_serializerES6_IhSaIhEEvEELi0EEES2_iRKSC_T_, symObjAddr: 0x8C04, symBinAddr: 0x10000AB48, symSize: 0x140 }
  - { offsetInCU: 0x66084, offset: 0x66084, size: 0x8, addend: 0x0, symName: __ZNK9__gnu_cxx17__normal_iteratorIPN8nlohmann16json_abi_v3_11_310basic_jsonISt3mapSt6vectorNSt7__cxx1112basic_stringIcSt11char_traitsIcESaIcEEEbxydSaNS2_14adl_serializerES5_IhSaIhEEvEES5_ISF_SaISF_EEEdeEv, symObjAddr: 0x8BEC, symBinAddr: 0x10000AB30, symSize: 0x18 }
  - { offsetInCU: 0x660AA, offset: 0x660AA, size: 0x8, addend: 0x0, symName: __ZN9__gnu_cxxneIPN8nlohmann16json_abi_v3_11_310basic_jsonISt3mapSt6vectorNSt7__cxx1112basic_stringIcSt11char_traitsIcESaIcEEEbxydSaNS2_14adl_serializerES5_IhSaIhEEvEES5_ISF_SaISF_EEEEbRKNS_17__normal_iteratorIT_T0_EESO_, symObjAddr: 0x8BA8, symBinAddr: 0x10000AAEC, symSize: 0x44 }
  - { offsetInCU: 0x660FB, offset: 0x660FB, size: 0x8, addend: 0x0, symName: __ZNSt6vectorIN8nlohmann16json_abi_v3_11_310basic_jsonISt3mapS_NSt7__cxx1112basic_stringIcSt11char_traitsIcESaIcEEEbxydSaNS1_14adl_serializerES_IhSaIhEEvEESaISD_EE3endEv, symObjAddr: 0x8B80, symBinAddr: 0x10000AAC4, symSize: 0x28 }
  - { offsetInCU: 0x66125, offset: 0x66125, size: 0x8, addend: 0x0, symName: __ZNKSt17_Rb_tree_iteratorISt4pairIKNSt7__cxx1112basic_stringIcSt11char_traitsIcESaIcEEEN8nlohmann16json_abi_v3_11_310basic_jsonISt3mapSt6vectorS6_bxydSaNS9_14adl_serializerESC_IhSaIhEEvEEEEptEv, symObjAddr: 0x8B60, symBinAddr: 0x10000AAA4, symSize: 0x20 }
  - { offsetInCU: 0x6614B, offset: 0x6614B, size: 0x8, addend: 0x0, symName: __ZStneRKSt17_Rb_tree_iteratorISt4pairIKNSt7__cxx1112basic_stringIcSt11char_traitsIcESaIcEEEN8nlohmann16json_abi_v3_11_310basic_jsonISt3mapSt6vectorS6_bxydSaNS9_14adl_serializerESC_IhSaIhEEvEEEESK_, symObjAddr: 0x8B30, symBinAddr: 0x10000AA74, symSize: 0x30 }
  - { offsetInCU: 0x6618A, offset: 0x6618A, size: 0x8, addend: 0x0, symName: __ZNSt3mapINSt7__cxx1112basic_stringIcSt11char_traitsIcESaIcEEEN8nlohmann16json_abi_v3_11_310basic_jsonIS_St6vectorS5_bxydSaNS7_14adl_serializerES9_IhSaIhEEvEESt4lessIvESaISt4pairIKS5_SD_EEE3endEv, symObjAddr: 0x8B14, symBinAddr: 0x10000AA58, symSize: 0x1C }
  - { offsetInCU: 0x66236, offset: 0x66236, size: 0x8, addend: 0x0, symName: __ZNK8nlohmann16json_abi_v3_11_36detail9iter_implIKNS0_10basic_jsonISt3mapSt6vectorNSt7__cxx1112basic_stringIcSt11char_traitsIcESaIcEEEbxydSaNS0_14adl_serializerES5_IhSaIhEEvEEEeqISH_LDnEEEbRKT_, symObjAddr: 0x895C, symBinAddr: 0x10000A8A0, symSize: 0x1B8 }
  - { offsetInCU: 0x66314, offset: 0x66314, size: 0x8, addend: 0x0, symName: __ZNK8nlohmann16json_abi_v3_11_310basic_jsonISt3mapSt6vectorNSt7__cxx1112basic_stringIcSt11char_traitsIcESaIcEEEbxydSaNS0_14adl_serializerES3_IhSaIhEEvE4cendEv, symObjAddr: 0x8920, symBinAddr: 0x10000A864, symSize: 0x3C }
  - { offsetInCU: 0x6634F, offset: 0x6634F, size: 0x8, addend: 0x0, symName: __ZNK8nlohmann16json_abi_v3_11_310basic_jsonISt3mapSt6vectorNSt7__cxx1112basic_stringIcSt11char_traitsIcESaIcEEEbxydSaNS0_14adl_serializerES3_IhSaIhEEvE6cbeginEv, symObjAddr: 0x88E4, symBinAddr: 0x10000A828, symSize: 0x3C }
  - { offsetInCU: 0x6638A, offset: 0x6638A, size: 0x8, addend: 0x0, symName: __ZNK8nlohmann16json_abi_v3_11_310basic_jsonISt3mapSt6vectorNSt7__cxx1112basic_stringIcSt11char_traitsIcESaIcEEEbxydSaNS0_14adl_serializerES3_IhSaIhEEvEixERKS9_, symObjAddr: 0x879C, symBinAddr: 0x10000A6E0, symSize: 0x148 }
  - { offsetInCU: 0x66458, offset: 0x66458, size: 0x8, addend: 0x0, symName: __ZNSt12_Vector_baseIiSaIiEE17_Vector_impl_dataC2EOS2_, symObjAddr: 0x872C, symBinAddr: 0x10000A670, symSize: 0x70 }
  - { offsetInCU: 0x66481, offset: 0x66481, size: 0x8, addend: 0x0, symName: __ZSt4moveIRNSt12_Vector_baseIiSaIiEE12_Vector_implEEONSt16remove_referenceIT_E4typeEOS6_, symObjAddr: 0x8718, symBinAddr: 0x10000A65C, symSize: 0x14 }
  - { offsetInCU: 0x664B7, offset: 0x664B7, size: 0x8, addend: 0x0, symName: __ZNSt6vectorIiSaIiEE12emplace_backIJiEEERiDpOT_, symObjAddr: 0x8640, symBinAddr: 0x10000A584, symSize: 0xD8 }
  - { offsetInCU: 0x66569, offset: 0x66569, size: 0x8, addend: 0x0, symName: __ZSt4moveIRiEONSt16remove_referenceIT_E4typeEOS2_, symObjAddr: 0x862C, symBinAddr: 0x10000A570, symSize: 0x14 }
  - { offsetInCU: 0x6659F, offset: 0x6659F, size: 0x8, addend: 0x0, symName: __ZNK9__gnu_cxx17__normal_iteratorIPKcNSt7__cxx1112basic_stringIcSt11char_traitsIcESaIcEEEE4baseEv, symObjAddr: 0x8618, symBinAddr: 0x10000A55C, symSize: 0x14 }
  - { offsetInCU: 0x665C9, offset: 0x665C9, size: 0x8, addend: 0x0, symName: __ZNSt6vectorIN8nlohmann16json_abi_v3_11_310basic_jsonISt3mapS_NSt7__cxx1112basic_stringIcSt11char_traitsIcESaIcEEEbxydSaNS1_14adl_serializerES_IhSaIhEEvEESaISD_EE4backEv, symObjAddr: 0x85E0, symBinAddr: 0x10000A524, symSize: 0x38 }
  - { offsetInCU: 0x665F3, offset: 0x665F3, size: 0x8, addend: 0x0, symName: __ZN8nlohmann16json_abi_v3_11_310basic_jsonISt3mapSt6vectorNSt7__cxx1112basic_stringIcSt11char_traitsIcESaIcEEEbxydSaNS0_14adl_serializerES3_IhSaIhEEvE10set_parentERSD_m, symObjAddr: 0x85C4, symBinAddr: 0x10000A508, symSize: 0x1C }
  - { offsetInCU: 0x6663F, offset: 0x6663F, size: 0x8, addend: 0x0, symName: __ZNSt6vectorIN8nlohmann16json_abi_v3_11_310basic_jsonISt3mapS_NSt7__cxx1112basic_stringIcSt11char_traitsIcESaIcEEEbxydSaNS1_14adl_serializerES_IhSaIhEEvEESaISD_EE9push_backERKSD_, symObjAddr: 0x84C8, symBinAddr: 0x10000A40C, symSize: 0xFC }
  - { offsetInCU: 0x666DE, offset: 0x666DE, size: 0x8, addend: 0x0, symName: __ZNKSt6vectorIN8nlohmann16json_abi_v3_11_310basic_jsonISt3mapS_NSt7__cxx1112basic_stringIcSt11char_traitsIcESaIcEEEbxydSaNS1_14adl_serializerES_IhSaIhEEvEESaISD_EE8capacityEv, symObjAddr: 0x84A0, symBinAddr: 0x10000A3E4, symSize: 0x28 }
  - { offsetInCU: 0x667E6, offset: 0x667E6, size: 0x8, addend: 0x0, symName: __ZN8nlohmann16json_abi_v3_11_310basic_jsonISt3mapSt6vectorNSt7__cxx1112basic_stringIcSt11char_traitsIcESaIcEEEbxydSaNS0_14adl_serializerES3_IhSaIhEEvE10json_valueC1ENS0_6detail7value_tE, symObjAddr: 0x8250, symBinAddr: 0x10000A194, symSize: 0x250 }
  - { offsetInCU: 0x66840, offset: 0x66840, size: 0x8, addend: 0x0, symName: __ZN8nlohmann16json_abi_v3_11_36detail11other_errorD0Ev, symObjAddr: 0x8228, symBinAddr: 0x10000A16C, symSize: 0x28 }
  - { offsetInCU: 0x6686A, offset: 0x6686A, size: 0x8, addend: 0x0, symName: __ZN8nlohmann16json_abi_v3_11_36detail11other_errorD1Ev, symObjAddr: 0x81F4, symBinAddr: 0x10000A138, symSize: 0x34 }
  - { offsetInCU: 0x66859, offset: 0x66859, size: 0x8, addend: 0x0, symName: __ZN8nlohmann16json_abi_v3_11_36detail10type_error6createIPNS0_10basic_jsonISt3mapSt6vectorNSt7__cxx1112basic_stringIcSt11char_traitsIcESaIcEEEbxydSaNS0_14adl_serializerES6_IhSaIhEEvEELi0EEES2_iRKSC_T_, symObjAddr: 0x80B4, symBinAddr: 0x100009FF8, symSize: 0x140 }
  - { offsetInCU: 0x66949, offset: 0x66949, size: 0x8, addend: 0x0, symName: __ZN8nlohmann16json_abi_v3_11_36detail6concatINSt7__cxx1112basic_stringIcSt11char_traitsIcESaIcEEEJRA29_KcPS9_EEET_DpOT0_, symObjAddr: 0x8030, symBinAddr: 0x100009F74, symSize: 0x84 }
  - { offsetInCU: 0x669AA, offset: 0x669AA, size: 0x8, addend: 0x0, symName: __ZNK8nlohmann16json_abi_v3_11_310basic_jsonISt3mapSt6vectorNSt7__cxx1112basic_stringIcSt11char_traitsIcESaIcEEEbxydSaNS0_14adl_serializerES3_IhSaIhEEvE9type_nameEv, symObjAddr: 0x7F58, symBinAddr: 0x100009E9C, symSize: 0xD8 }
  - { offsetInCU: 0x669D4, offset: 0x669D4, size: 0x8, addend: 0x0, symName: __ZNK8nlohmann16json_abi_v3_11_310basic_jsonISt3mapSt6vectorNSt7__cxx1112basic_stringIcSt11char_traitsIcESaIcEEEbxydSaNS0_14adl_serializerES3_IhSaIhEEvE8is_arrayEv, symObjAddr: 0x7F34, symBinAddr: 0x100009E78, symSize: 0x24 }
  - { offsetInCU: 0x669FA, offset: 0x669FA, size: 0x8, addend: 0x0, symName: __ZN8nlohmann16json_abi_v3_11_314adl_serializerIivE7to_jsonINS0_10basic_jsonISt3mapSt6vectorNSt7__cxx1112basic_stringIcSt11char_traitsIcESaIcEEEbxydSaS1_S6_IhSaIhEEvEEiEEDTcmclL_ZNS0_7to_jsonEEfp_cl7forwardIT0_Efp0_EEcvv_EERT_OSG_, symObjAddr: 0x7EF0, symBinAddr: 0x100009E34, symSize: 0x44 }
  - { offsetInCU: 0x66A4E, offset: 0x66A4E, size: 0x8, addend: 0x0, symName: __ZSt4moveIRN8nlohmann16json_abi_v3_11_310basic_jsonISt3mapSt6vectorNSt7__cxx1112basic_stringIcSt11char_traitsIcESaIcEEEbxydSaNS1_14adl_serializerES4_IhSaIhEEvEEEONSt16remove_referenceIT_E4typeEOSH_, symObjAddr: 0x7EDC, symBinAddr: 0x100009E20, symSize: 0x14 }
  - { offsetInCU: 0x66A80, offset: 0x66A80, size: 0x8, addend: 0x0, symName: __ZSt4swapIN8nlohmann16json_abi_v3_11_310basic_jsonISt3mapSt6vectorNSt7__cxx1112basic_stringIcSt11char_traitsIcESaIcEEEbxydSaNS1_14adl_serializerES4_IhSaIhEEvE10json_valueEENSt9enable_ifIXsrSt6__and_IJSt6__not_ISt15__is_tuple_likeIT_EESt21is_move_constructibleISK_ESt18is_move_assignableISK_EEE5valueEvE4typeERSK_SU_, symObjAddr: 0x7E80, symBinAddr: 0x100009DC4, symSize: 0x5C }
  - { offsetInCU: 0x66AD9, offset: 0x66AD9, size: 0x8, addend: 0x0, symName: __ZSt4moveIRN8nlohmann16json_abi_v3_11_310basic_jsonISt3mapSt6vectorNSt7__cxx1112basic_stringIcSt11char_traitsIcESaIcEEEbxydSaNS1_14adl_serializerES4_IhSaIhEEvE10json_valueEEONSt16remove_referenceIT_E4typeEOSI_, symObjAddr: 0x7E6C, symBinAddr: 0x100009DB0, symSize: 0x14 }
  - { offsetInCU: 0x66B0B, offset: 0x66B0B, size: 0x8, addend: 0x0, symName: __ZSt4swapIN8nlohmann16json_abi_v3_11_36detail7value_tEENSt9enable_ifIXsrSt6__and_IJSt6__not_ISt15__is_tuple_likeIT_EESt21is_move_constructibleIS8_ESt18is_move_assignableIS8_EEE5valueEvE4typeERS8_SI_, symObjAddr: 0x7E18, symBinAddr: 0x100009D5C, symSize: 0x54 }
  - { offsetInCU: 0x66B64, offset: 0x66B64, size: 0x8, addend: 0x0, symName: __ZSt4moveIRN8nlohmann16json_abi_v3_11_36detail7value_tEEONSt16remove_referenceIT_E4typeEOS6_, symObjAddr: 0x7E04, symBinAddr: 0x100009D48, symSize: 0x14 }
  - { offsetInCU: 0x66B9A, offset: 0x66B9A, size: 0x8, addend: 0x0, symName: __ZN8nlohmann16json_abi_v3_11_310basic_jsonISt3mapSt6vectorNSt7__cxx1112basic_stringIcSt11char_traitsIcESaIcEEEbxydSaNS0_14adl_serializerES3_IhSaIhEEvE11set_parentsEv, symObjAddr: 0x7DF0, symBinAddr: 0x100009D34, symSize: 0x14 }
  - { offsetInCU: 0x66BC0, offset: 0x66BC0, size: 0x8, addend: 0x0, symName: __ZN8nlohmann16json_abi_v3_11_314adl_serializerIivE7to_jsonINS0_10basic_jsonISt3mapSt6vectorNSt7__cxx1112basic_stringIcSt11char_traitsIcESaIcEEEbxydSaS1_S6_IhSaIhEEvEERiEEDTcmclL_ZNS0_7to_jsonEEfp_cl7forwardIT0_Efp0_EEcvv_EERT_OSH_, symObjAddr: 0x7DAC, symBinAddr: 0x100009CF0, symSize: 0x44 }
  - { offsetInCU: 0x66C13, offset: 0x66C13, size: 0x8, addend: 0x0, symName: __ZSt7forwardIRiEOT_RNSt16remove_referenceIS1_E4typeE, symObjAddr: 0x7D98, symBinAddr: 0x100009CDC, symSize: 0x14 }
  - { offsetInCU: 0x66C49, offset: 0x66C49, size: 0x8, addend: 0x0, symName: __ZN8nlohmann16json_abi_v3_11_310basic_jsonISt3mapSt6vectorNSt7__cxx1112basic_stringIcSt11char_traitsIcESaIcEEEbxydSaNS0_14adl_serializerES3_IhSaIhEEvEixES9_, symObjAddr: 0x7C3C, symBinAddr: 0x100009B80, symSize: 0x15C }
  - { offsetInCU: 0x66CAB, offset: 0x66CAB, size: 0x8, addend: 0x0, symName: __ZNK8nlohmann16json_abi_v3_11_310basic_jsonISt3mapSt6vectorNSt7__cxx1112basic_stringIcSt11char_traitsIcESaIcEEEbxydSaNS0_14adl_serializerES3_IhSaIhEEvE9is_objectEv, symObjAddr: 0x7C18, symBinAddr: 0x100009B5C, symSize: 0x24 }
  - { offsetInCU: 0x66DA7, offset: 0x66DA7, size: 0x8, addend: 0x0, symName: __ZN8nlohmann16json_abi_v3_11_310basic_jsonISt3mapSt6vectorNSt7__cxx1112basic_stringIcSt11char_traitsIcESaIcEEEbxydSaNS0_14adl_serializerES3_IhSaIhEEvEC1ENS0_6detail7value_tE, symObjAddr: 0x7BE0, symBinAddr: 0x100009B24, symSize: 0x38 }
  - { offsetInCU: 0x66D2C, offset: 0x66D2C, size: 0x8, addend: 0x0, symName: __ZNK9__gnu_cxx17__normal_iteratorIPiSt6vectorIiSaIiEEE4baseEv, symObjAddr: 0x7BCC, symBinAddr: 0x100009B10, symSize: 0x14 }
  - { offsetInCU: 0x66DB8, offset: 0x66DB8, size: 0x8, addend: 0x0, symName: __ZN9__gnu_cxx17__normal_iteratorIPiSt6vectorIiSaIiEEEC1ERKS1_, symObjAddr: 0x7BA4, symBinAddr: 0x100009AE8, symSize: 0x28 }
  - { offsetInCU: 0x66DAD, offset: 0x66DAD, size: 0x8, addend: 0x0, symName: __ZNSt6vectorIiSaIiEE17_M_realloc_appendIJRKiEEEvDpOT_, symObjAddr: 0x79E8, symBinAddr: 0x10000992C, symSize: 0x1BC }
  - { offsetInCU: 0x66F78, offset: 0x66F78, size: 0x8, addend: 0x0, symName: __ZZNSt6vectorIiSaIiEE17_M_realloc_appendIJRKiEEEvDpOT_EN6_GuardC1EPimRS0_, symObjAddr: 0x7944, symBinAddr: 0x100009888, symSize: 0x44 }
  - { offsetInCU: 0x66FB7, offset: 0x66FB7, size: 0x8, addend: 0x0, symName: __ZZNSt6vectorIiSaIiEE17_M_realloc_appendIJRKiEEEvDpOT_EN6_GuardD1Ev, symObjAddr: 0x7988, symBinAddr: 0x1000098CC, symSize: 0x60 }
  - { offsetInCU: 0x670AE, offset: 0x670AE, size: 0x8, addend: 0x0, symName: __ZNSt12_Vector_baseIiSaIiEE13_M_deallocateEPim, symObjAddr: 0x78EC, symBinAddr: 0x100009830, symSize: 0x58 }
  - { offsetInCU: 0x67179, offset: 0x67179, size: 0x8, addend: 0x0, symName: __ZNSt12_Vector_baseIiSaIiEE17_Vector_impl_dataC2Ev, symObjAddr: 0x78C0, symBinAddr: 0x100009804, symSize: 0x2C }
  - { offsetInCU: 0x6716C, offset: 0x6716C, size: 0x8, addend: 0x0, symName: __ZNSt6chrono20__duration_cast_implINS_8durationIxSt5ratioILl1ELl1000000EEEES2_ILl1ELl1000EExLb1ELb0EE6__castIxS2_ILl1ELl1000000000EEEES4_RKNS1_IT_T0_EE, symObjAddr: 0x7870, symBinAddr: 0x1000097B4, symSize: 0x50 }
  - { offsetInCU: 0x671B3, offset: 0x671B3, size: 0x8, addend: 0x0, symName: __ZSt22__uninitialized_copy_aIPSt6vectorIiSaIiEES3_S2_ET0_T_S5_S4_RSaIT1_E, symObjAddr: 0x7840, symBinAddr: 0x100009784, symSize: 0x30 }
  - { offsetInCU: 0x67223, offset: 0x67223, size: 0x8, addend: 0x0, symName: __ZSt4copyIPSt6vectorIiSaIiEES3_ET0_T_S5_S4_, symObjAddr: 0x77F8, symBinAddr: 0x10000973C, symSize: 0x48 }
  - { offsetInCU: 0x672C0, offset: 0x672C0, size: 0x8, addend: 0x0, symName: __ZNSt6vectorIS_IiSaIiEESaIS1_EE3endEv, symObjAddr: 0x77D0, symBinAddr: 0x100009714, symSize: 0x28 }
  - { offsetInCU: 0x672E6, offset: 0x672E6, size: 0x8, addend: 0x0, symName: __ZSt4copyIN9__gnu_cxx17__normal_iteratorIPKSt6vectorIiSaIiEES2_IS4_SaIS4_EEEENS1_IPS4_S8_EEET0_T_SD_SC_, symObjAddr: 0x7788, symBinAddr: 0x1000096CC, symSize: 0x48 }
  - { offsetInCU: 0x67348, offset: 0x67348, size: 0x8, addend: 0x0, symName: __ZNSt6vectorIS_IiSaIiEESaIS1_EE5beginEv, symObjAddr: 0x7764, symBinAddr: 0x1000096A8, symSize: 0x24 }
  - { offsetInCU: 0x67372, offset: 0x67372, size: 0x8, addend: 0x0, symName: __ZNSt6vectorIS_IiSaIiEESaIS1_EE20_M_allocate_and_copyIN9__gnu_cxx17__normal_iteratorIPKS1_S3_EEEEPS1_mT_SB_, symObjAddr: 0x76E0, symBinAddr: 0x100009624, symSize: 0x84 }
  - { offsetInCU: 0x673E9, offset: 0x673E9, size: 0x8, addend: 0x0, symName: __ZNKSt6vectorIS_IiSaIiEESaIS1_EE3endEv, symObjAddr: 0x76B8, symBinAddr: 0x1000095FC, symSize: 0x28 }
  - { offsetInCU: 0x67413, offset: 0x67413, size: 0x8, addend: 0x0, symName: __ZNKSt6vectorIS_IiSaIiEESaIS1_EE5beginEv, symObjAddr: 0x7694, symBinAddr: 0x1000095D8, symSize: 0x24 }
  - { offsetInCU: 0x6743D, offset: 0x6743D, size: 0x8, addend: 0x0, symName: __ZNKSt6vectorIS_IiSaIiEESaIS1_EE8capacityEv, symObjAddr: 0x7660, symBinAddr: 0x1000095A4, symSize: 0x34 }
  - { offsetInCU: 0x67494, offset: 0x67494, size: 0x8, addend: 0x0, symName: __ZNSt12_Vector_baseISt6vectorIiSaIiEESaIS2_EE13_M_deallocateEPS2_m, symObjAddr: 0x7608, symBinAddr: 0x10000954C, symSize: 0x58 }
  - { offsetInCU: 0x67516, offset: 0x67516, size: 0x8, addend: 0x0, symName: __ZNSt6vectorIS_IiSaIiEESaIS1_EE5clearEv, symObjAddr: 0x75DC, symBinAddr: 0x100009520, symSize: 0x2C }
  - { offsetInCU: 0x67552, offset: 0x67552, size: 0x8, addend: 0x0, symName: __ZNKSt12_Vector_baseISt6vectorIiSaIiEESaIS2_EE19_M_get_Tp_allocatorEv, symObjAddr: 0x75C8, symBinAddr: 0x10000950C, symSize: 0x14 }
  - { offsetInCU: 0x6757C, offset: 0x6757C, size: 0x8, addend: 0x0, symName: __ZNSt8_Rb_treeIiSt4pairIKiSt6vectorIS2_IiSaIiEESaIS4_EEESt10_Select1stIS7_ESt4lessIiESaIS7_EE22_M_emplace_hint_uniqueIJRKSt21piecewise_construct_tSt5tupleIJRS1_EESI_IJEEEEESt17_Rb_tree_iteratorIS7_ESt23_Rb_tree_const_iteratorIS7_EDpOT_, symObjAddr: 0x74F0, symBinAddr: 0x100009434, symSize: 0xD8 }
  - { offsetInCU: 0x6769F, offset: 0x6769F, size: 0x8, addend: 0x0, symName: __ZNSt23_Rb_tree_const_iteratorISt4pairIKiSt6vectorIS2_IiSaIiEESaIS4_EEEEC1ERKSt17_Rb_tree_iteratorIS7_E, symObjAddr: 0x74C8, symBinAddr: 0x10000940C, symSize: 0x28 }
  - { offsetInCU: 0x676BB, offset: 0x676BB, size: 0x8, addend: 0x0, symName: __ZNSt5tupleIJRKiEEC1ILb1ELb1EEES1_, symObjAddr: 0x74A0, symBinAddr: 0x1000093E4, symSize: 0x28 }
  - { offsetInCU: 0x676D5, offset: 0x676D5, size: 0x8, addend: 0x0, symName: __ZNKSt4lessIiEclERKiS2_, symObjAddr: 0x746C, symBinAddr: 0x1000093B0, symSize: 0x34 }
  - { offsetInCU: 0x67721, offset: 0x67721, size: 0x8, addend: 0x0, symName: __ZNKSt17_Rb_tree_iteratorISt4pairIKiSt6vectorIS2_IiSaIiEESaIS4_EEEEdeEv, symObjAddr: 0x744C, symBinAddr: 0x100009390, symSize: 0x20 }
  - { offsetInCU: 0x6774B, offset: 0x6774B, size: 0x8, addend: 0x0, symName: __ZNKSt3mapIiSt6vectorIS0_IiSaIiEESaIS2_EESt4lessIiESaISt4pairIKiS4_EEE8key_compEv, symObjAddr: 0x7420, symBinAddr: 0x100009364, symSize: 0x2C }
  - { offsetInCU: 0x67777, offset: 0x67777, size: 0x8, addend: 0x0, symName: __ZSteqRKSt17_Rb_tree_iteratorISt4pairIKiSt6vectorIS2_IiSaIiEESaIS4_EEEESA_, symObjAddr: 0x73F0, symBinAddr: 0x100009334, symSize: 0x30 }
  - { offsetInCU: 0x677B6, offset: 0x677B6, size: 0x8, addend: 0x0, symName: __ZNSt3mapIiSt6vectorIS0_IiSaIiEESaIS2_EESt4lessIiESaISt4pairIKiS4_EEE3endEv, symObjAddr: 0x73D4, symBinAddr: 0x100009318, symSize: 0x1C }
  - { offsetInCU: 0x677E0, offset: 0x677E0, size: 0x8, addend: 0x0, symName: __ZNSt3mapIiSt6vectorIS0_IiSaIiEESaIS2_EESt4lessIiESaISt4pairIKiS4_EEE11lower_boundERS8_, symObjAddr: 0x73B0, symBinAddr: 0x1000092F4, symSize: 0x24 }
  - { offsetInCU: 0x67856, offset: 0x67856, size: 0x8, addend: 0x0, symName: __ZNSt12_Vector_baseISt6vectorIiSaIiEESaIS2_EE19_M_get_Tp_allocatorEv, symObjAddr: 0x739C, symBinAddr: 0x1000092E0, symSize: 0x14 }
  - { offsetInCU: 0x67880, offset: 0x67880, size: 0x8, addend: 0x0, symName: __ZNSt6vectorIS_IiSaIiEESaIS1_EE18_M_fill_initializeEmRKS1_, symObjAddr: 0x7344, symBinAddr: 0x100009288, symSize: 0x58 }
  - { offsetInCU: 0x67935, offset: 0x67935, size: 0x8, addend: 0x0, symName: __ZNSt12_Vector_baseISt6vectorIiSaIiEESaIS2_EEC2EmRKS3_, symObjAddr: 0x72F0, symBinAddr: 0x100009234, symSize: 0x54 }
  - { offsetInCU: 0x67936, offset: 0x67936, size: 0x8, addend: 0x0, symName: __ZNSt6vectorIS_IiSaIiEESaIS1_EE17_S_check_init_lenEmRKS2_, symObjAddr: 0x726C, symBinAddr: 0x1000091B0, symSize: 0x84 }
  - { offsetInCU: 0x67A3A, offset: 0x67A3A, size: 0x8, addend: 0x0, symName: __ZNSt15__new_allocatorISt6vectorIiSaIiEEED2Ev, symObjAddr: 0x7258, symBinAddr: 0x10000919C, symSize: 0x14 }
  - { offsetInCU: 0x67A87, offset: 0x67A87, size: 0x8, addend: 0x0, symName: __ZNSt12_Vector_baseIiSaIiEE19_M_get_Tp_allocatorEv, symObjAddr: 0x7244, symBinAddr: 0x100009188, symSize: 0x14 }
  - { offsetInCU: 0x67AB1, offset: 0x67AB1, size: 0x8, addend: 0x0, symName: __ZNSt6vectorIiSaIiEE21_M_default_initializeEm, symObjAddr: 0x71F4, symBinAddr: 0x100009138, symSize: 0x50 }
  - { offsetInCU: 0x67B43, offset: 0x67B43, size: 0x8, addend: 0x0, symName: __ZNSt12_Vector_baseIiSaIiEEC2EmRKS0_, symObjAddr: 0x71A0, symBinAddr: 0x1000090E4, symSize: 0x54 }
  - { offsetInCU: 0x67B56, offset: 0x67B56, size: 0x8, addend: 0x0, symName: __ZNSt6vectorIiSaIiEE17_S_check_init_lenEmRKS0_, symObjAddr: 0x711C, symBinAddr: 0x100009060, symSize: 0x84 }
  - { offsetInCU: 0x67C0C, offset: 0x67C0C, size: 0x8, addend: 0x0, symName: __ZNSt8_Rb_treeIiSt4pairIKiSt6vectorIS2_IiSaIiEESaIS4_EEESt10_Select1stIS7_ESt4lessIiESaIS7_EE8_M_beginEv, symObjAddr: 0x7100, symBinAddr: 0x100009044, symSize: 0x1C }
  - { offsetInCU: 0x67C36, offset: 0x67C36, size: 0x8, addend: 0x0, symName: __ZNSt8_Rb_treeIiSt4pairIKiSt6vectorIS2_IiSaIiEESaIS4_EEESt10_Select1stIS7_ESt4lessIiESaIS7_EE8_M_eraseEPSt13_Rb_tree_nodeIS7_E, symObjAddr: 0x709C, symBinAddr: 0x100008FE0, symSize: 0x64 }
  - { offsetInCU: 0x67D0D, offset: 0x67D0D, size: 0x8, addend: 0x0, symName: __ZNSt15__new_allocatorISt13_Rb_tree_nodeISt4pairIKiSt6vectorIS3_IiSaIiEESaIS5_EEEEED2Ev, symObjAddr: 0x7088, symBinAddr: 0x100008FCC, symSize: 0x14 }
  - { offsetInCU: 0x67D21, offset: 0x67D21, size: 0x8, addend: 0x0, symName: __ZNSt20_Rb_tree_key_compareISt4lessIiEEC2Ev, symObjAddr: 0x7074, symBinAddr: 0x100008FB8, symSize: 0x14 }
  - { offsetInCU: 0x67EDB, offset: 0x67EDB, size: 0x8, addend: 0x0, symName: __ZZN8nlohmann16json_abi_v3_11_310basic_jsonISt3mapSt6vectorNSt7__cxx1112basic_stringIcSt11char_traitsIcESaIcEEEbxydSaNS0_14adl_serializerES3_IhSaIhEEvEC4ESt16initializer_listINS0_6detail8json_refISD_EEEbNSF_7value_tEENKUlRKSH_E_clESL_, symObjAddr: 0x6D20, symBinAddr: 0x100008C64, symSize: 0x70 }
  - { offsetInCU: 0x67F36, offset: 0x67F36, size: 0x8, addend: 0x0, symName: __ZN8nlohmann16json_abi_v3_11_310basic_jsonISt3mapSt6vectorNSt7__cxx1112basic_stringIcSt11char_traitsIcESaIcEEEbxydSaNS0_14adl_serializerES3_IhSaIhEEvEC1ESt16initializer_listINS0_6detail8json_refISD_EEEbNSF_7value_tE, symObjAddr: 0x6D90, symBinAddr: 0x100008CD4, symSize: 0x2E4 }
  - { offsetInCU: 0x67FBE, offset: 0x67FBE, size: 0x8, addend: 0x0, symName: __ZNSt6vectorIiSaIiEE19_M_range_initializeIPKiEEvT_S5_St20forward_iterator_tag, symObjAddr: 0x6C3C, symBinAddr: 0x100008B80, symSize: 0xE4 }
  - { offsetInCU: 0x680DC, offset: 0x680DC, size: 0x8, addend: 0x0, symName: __ZNKSt16initializer_listIiE3endEv, symObjAddr: 0x6C04, symBinAddr: 0x100008B48, symSize: 0x38 }
  - { offsetInCU: 0x68106, offset: 0x68106, size: 0x8, addend: 0x0, symName: __ZNKSt16initializer_listIiE5beginEv, symObjAddr: 0x6BEC, symBinAddr: 0x100008B30, symSize: 0x18 }
  - { offsetInCU: 0x68178, offset: 0x68178, size: 0x8, addend: 0x0, symName: __ZNSt12_Vector_baseIiSaIiEEC2ERKS0_, symObjAddr: 0x6BC4, symBinAddr: 0x100008B08, symSize: 0x28 }
  - { offsetInCU: 0x681C5, offset: 0x681C5, size: 0x8, addend: 0x0, symName: __ZNSt15__new_allocatorIiED2Ev, symObjAddr: 0x6BB0, symBinAddr: 0x100008AF4, symSize: 0x14 }
  - { offsetInCU: 0x681E7, offset: 0x681E7, size: 0x8, addend: 0x0, symName: __ZNK8nlohmann16json_abi_v3_11_310basic_jsonISt3mapSt6vectorNSt7__cxx1112basic_stringIcSt11char_traitsIcESaIcEEEbxydSaNS0_14adl_serializerES3_IhSaIhEEvE16assert_invariantEb, symObjAddr: 0x69B0, symBinAddr: 0x1000088F4, symSize: 0x200 }
  - { offsetInCU: 0x682F6, offset: 0x682F6, size: 0x8, addend: 0x0, symName: __ZN8nlohmann16json_abi_v3_11_310basic_jsonISt3mapSt6vectorNSt7__cxx1112basic_stringIcSt11char_traitsIcESaIcEEEbxydSaNS0_14adl_serializerES3_IhSaIhEEvE4dataD1Ev, symObjAddr: 0x697C, symBinAddr: 0x1000088C0, symSize: 0x34 }
  - { offsetInCU: 0x68342, offset: 0x68342, size: 0x8, addend: 0x0, symName: __ZN8nlohmann16json_abi_v3_11_310basic_jsonISt3mapSt6vectorNSt7__cxx1112basic_stringIcSt11char_traitsIcESaIcEEEbxydSaNS0_14adl_serializerES3_IhSaIhEEvEC1EOSD_, symObjAddr: 0x6914, symBinAddr: 0x100008858, symSize: 0x68 }
  - { offsetInCU: 0x682D7, offset: 0x682D7, size: 0x8, addend: 0x0, symName: __ZNK8nlohmann16json_abi_v3_11_36detail19json_sax_dom_parserINS0_10basic_jsonISt3mapSt6vectorNSt7__cxx1112basic_stringIcSt11char_traitsIcESaIcEEEbxydSaNS0_14adl_serializerES5_IhSaIhEEvEEE10is_erroredEv, symObjAddr: 0x68FC, symBinAddr: 0x100008840, symSize: 0x18 }
  - { offsetInCU: 0x683DF, offset: 0x683DF, size: 0x8, addend: 0x0, symName: __ZN8nlohmann16json_abi_v3_11_36detail19json_sax_dom_parserINS0_10basic_jsonISt3mapSt6vectorNSt7__cxx1112basic_stringIcSt11char_traitsIcESaIcEEEbxydSaNS0_14adl_serializerES5_IhSaIhEEvEEED1Ev, symObjAddr: 0x68D8, symBinAddr: 0x10000881C, symSize: 0x24 }
  - { offsetInCU: 0x6834B, offset: 0x6834B, size: 0x8, addend: 0x0, symName: __ZNK8nlohmann16json_abi_v3_11_310basic_jsonISt3mapSt6vectorNSt7__cxx1112basic_stringIcSt11char_traitsIcESaIcEEEbxydSaNS0_14adl_serializerES3_IhSaIhEEvE12is_discardedEv, symObjAddr: 0x68B4, symBinAddr: 0x1000087F8, symSize: 0x24 }
  - { offsetInCU: 0x68375, offset: 0x68375, size: 0x8, addend: 0x0, symName: __ZNK8nlohmann16json_abi_v3_11_36detail28json_sax_dom_callback_parserINS0_10basic_jsonISt3mapSt6vectorNSt7__cxx1112basic_stringIcSt11char_traitsIcESaIcEEEbxydSaNS0_14adl_serializerES5_IhSaIhEEvEEE10is_erroredEv, symObjAddr: 0x689C, symBinAddr: 0x1000087E0, symSize: 0x18 }
  - { offsetInCU: 0x683FA, offset: 0x683FA, size: 0x8, addend: 0x0, symName: __ZN8nlohmann16json_abi_v3_11_36detail11parse_errorD0Ev, symObjAddr: 0x6874, symBinAddr: 0x1000087B8, symSize: 0x28 }
  - { offsetInCU: 0x68424, offset: 0x68424, size: 0x8, addend: 0x0, symName: __ZN8nlohmann16json_abi_v3_11_36detail11parse_errorD1Ev, symObjAddr: 0x6840, symBinAddr: 0x100008784, symSize: 0x34 }
  - { offsetInCU: 0x684FE, offset: 0x684FE, size: 0x8, addend: 0x0, symName: __ZN8nlohmann16json_abi_v3_11_36detail28json_sax_dom_callback_parserINS0_10basic_jsonISt3mapSt6vectorNSt7__cxx1112basic_stringIcSt11char_traitsIcESaIcEEEbxydSaNS0_14adl_serializerES5_IhSaIhEEvEEED1Ev, symObjAddr: 0x67EC, symBinAddr: 0x100008730, symSize: 0x54 }
  - { offsetInCU: 0x6849A, offset: 0x6849A, size: 0x8, addend: 0x0, symName: __ZNSt6vectorIcSaIcEED1Ev, symObjAddr: 0x6790, symBinAddr: 0x1000086D4, symSize: 0x5C }
  - { offsetInCU: 0x685D3, offset: 0x685D3, size: 0x8, addend: 0x0, symName: __ZNSt8functionIFbiN8nlohmann16json_abi_v3_11_36detail13parse_event_tERNS1_10basic_jsonISt3mapSt6vectorNSt7__cxx1112basic_stringIcSt11char_traitsIcESaIcEEEbxydSaNS1_14adl_serializerES6_IhSaIhEEvEEEEC1ERKSJ_, symObjAddr: 0x66EC, symBinAddr: 0x100008630, symSize: 0xA4 }
  - { offsetInCU: 0x68534, offset: 0x68534, size: 0x8, addend: 0x0, symName: __ZN8nlohmann16json_abi_v3_11_36detail11concat_intoINSt7__cxx1112basic_stringIcSt11char_traitsIcESaIcEEERA10_KcJS8_SB_S8_ELi0EEEvRT_OT0_DpOT1_, symObjAddr: 0x6674, symBinAddr: 0x1000085B8, symSize: 0x78 }
  - { offsetInCU: 0x685BE, offset: 0x685BE, size: 0x8, addend: 0x0, symName: __ZSt7forwardIRA10_KcEOT_RNSt16remove_referenceIS3_E4typeE, symObjAddr: 0x6660, symBinAddr: 0x1000085A4, symSize: 0x14 }
  - { offsetInCU: 0x685F0, offset: 0x685F0, size: 0x8, addend: 0x0, symName: __ZN8nlohmann16json_abi_v3_11_36detail13concat_lengthIJNSt7__cxx1112basic_stringIcSt11char_traitsIcESaIcEEEA10_cS8_EEEmPKcDpRKT_, symObjAddr: 0x6618, symBinAddr: 0x10000855C, symSize: 0x48 }
  - { offsetInCU: 0x68657, offset: 0x68657, size: 0x8, addend: 0x0, symName: __ZN8nlohmann16json_abi_v3_11_36detail11concat_intoINSt7__cxx1112basic_stringIcSt11char_traitsIcESaIcEEERA17_KcJRKS8_cS8_RA3_S9_ELi0EEEvRT_OT0_DpOT1_, symObjAddr: 0x6584, symBinAddr: 0x1000084C8, symSize: 0x94 }
  - { offsetInCU: 0x686EF, offset: 0x686EF, size: 0x8, addend: 0x0, symName: __ZSt7forwardIRA3_KcEOT_RNSt16remove_referenceIS3_E4typeE, symObjAddr: 0x6570, symBinAddr: 0x1000084B4, symSize: 0x14 }
  - { offsetInCU: 0x68727, offset: 0x68727, size: 0x8, addend: 0x0, symName: __ZSt7forwardINSt7__cxx1112basic_stringIcSt11char_traitsIcESaIcEEEEOT_RNSt16remove_referenceIS6_E4typeE, symObjAddr: 0x655C, symBinAddr: 0x1000084A0, symSize: 0x14 }
  - { offsetInCU: 0x6875F, offset: 0x6875F, size: 0x8, addend: 0x0, symName: __ZSt7forwardIRKNSt7__cxx1112basic_stringIcSt11char_traitsIcESaIcEEEEOT_RNSt16remove_referenceIS8_E4typeE, symObjAddr: 0x6548, symBinAddr: 0x10000848C, symSize: 0x14 }
  - { offsetInCU: 0x68797, offset: 0x68797, size: 0x8, addend: 0x0, symName: __ZSt7forwardIRA17_KcEOT_RNSt16remove_referenceIS3_E4typeE, symObjAddr: 0x6534, symBinAddr: 0x100008478, symSize: 0x14 }
  - { offsetInCU: 0x687C9, offset: 0x687C9, size: 0x8, addend: 0x0, symName: __ZN8nlohmann16json_abi_v3_11_36detail13concat_lengthIJNSt7__cxx1112basic_stringIcSt11char_traitsIcESaIcEEEcS8_A3_cEEEmPKcDpRKT_, symObjAddr: 0x64E4, symBinAddr: 0x100008428, symSize: 0x50 }
  - { offsetInCU: 0x6887A, offset: 0x6887A, size: 0x8, addend: 0x0, symName: __ZNSt15__new_allocatorImED2Ev, symObjAddr: 0x64D0, symBinAddr: 0x100008414, symSize: 0x14 }
  - { offsetInCU: 0x6889E, offset: 0x6889E, size: 0x8, addend: 0x0, symName: __ZSt7forwardIbEOT_RNSt16remove_referenceIS0_E4typeE, symObjAddr: 0x64BC, symBinAddr: 0x100008400, symSize: 0x14 }
  - { offsetInCU: 0x688D4, offset: 0x688D4, size: 0x8, addend: 0x0, symName: __ZNSt7__cxx1112basic_stringIcSt11char_traitsIcESaIcEE12_M_constructIPKcEEvT_S8_St20forward_iterator_tag, symObjAddr: 0x63BC, symBinAddr: 0x100008300, symSize: 0x100 }
  - { offsetInCU: 0x68A52, offset: 0x68A52, size: 0x8, addend: 0x0, symName: __ZZNSt7__cxx1112basic_stringIcSt11char_traitsIcESaIcEE12_M_constructIPKcEEvT_S8_St20forward_iterator_tagEN6_GuardC1EPS4_, symObjAddr: 0x6364, symBinAddr: 0x1000082A8, symSize: 0x24 }
  - { offsetInCU: 0x68A82, offset: 0x68A82, size: 0x8, addend: 0x0, symName: __ZZNSt7__cxx1112basic_stringIcSt11char_traitsIcESaIcEE12_M_constructIPKcEEvT_S8_St20forward_iterator_tagEN6_GuardD1Ev, symObjAddr: 0x6388, symBinAddr: 0x1000082CC, symSize: 0x34 }
  - { offsetInCU: 0x68B2A, offset: 0x68B2A, size: 0x8, addend: 0x0, symName: __ZNSt15__new_allocatorIcED2Ev, symObjAddr: 0x6350, symBinAddr: 0x100008294, symSize: 0x14 }
  - { offsetInCU: 0x68B65, offset: 0x68B65, size: 0x8, addend: 0x0, symName: __ZSt4moveIRZNSt7__cxx119to_stringEmEUlPcmE_EONSt16remove_referenceIT_E4typeEOS5_, symObjAddr: 0x633C, symBinAddr: 0x100008280, symSize: 0x14 }
  - { offsetInCU: 0x68B9E, offset: 0x68B9E, size: 0x8, addend: 0x0, symName: __ZSt4moveIRZNSt7__cxx119to_stringEiEUlPcmE_EONSt16remove_referenceIT_E4typeEOS5_, symObjAddr: 0x6328, symBinAddr: 0x10000826C, symSize: 0x14 }
  - { offsetInCU: 0x68BE6, offset: 0x68BE6, size: 0x8, addend: 0x0, symName: __ZN9__gnu_cxx11char_traitsIcE2eqERKcS3_, symObjAddr: 0x62F8, symBinAddr: 0x10000823C, symSize: 0x30 }
  - { offsetInCU: 0x68C31, offset: 0x68C31, size: 0x8, addend: 0x0, symName: __ZNK8nlohmann16json_abi_v3_11_310basic_jsonISt3mapSt6vectorNSt7__cxx1112basic_stringIcSt11char_traitsIcESaIcEEEbxydSaNS0_14adl_serializerES3_IhSaIhEEvE3getIiiEEDTcldtclL_ZSt7declvalIRKSD_EDTcl9__declvalIT_ELi0EEEvEE8get_implIT0_EtlNS0_6detail12priority_tagILj4EEEEEEv, symObjAddr: 0x62DC, symBinAddr: 0x100008220, symSize: 0x1C }
  - { offsetInCU: 0x68CBF, offset: 0x68CBF, size: 0x8, addend: 0x0, symName: __ZNSt12_Vector_baseISt6vectorIiSaIiEESaIS2_EED2Ev, symObjAddr: 0x6280, symBinAddr: 0x1000081C4, symSize: 0x5C }
  - { offsetInCU: 0x68D0D, offset: 0x68D0D, size: 0x8, addend: 0x0, symName: __ZNSt12_Vector_baseISt6vectorIiSaIiEESaIS2_EE12_Vector_implC1Ev, symObjAddr: 0x6248, symBinAddr: 0x10000818C, symSize: 0x38 }
  - { offsetInCU: 0x68D39, offset: 0x68D39, size: 0x8, addend: 0x0, symName: __ZN8nlohmann16json_abi_v3_11_310basic_jsonISt3mapSt6vectorNSt7__cxx1112basic_stringIcSt11char_traitsIcESaIcEEEbxydSaNS0_14adl_serializerES3_IhSaIhEEvE5parseIRS9_EESD_OT_St8functionIFbiNS0_6detail13parse_event_tERSD_EEbb, symObjAddr: 0x6154, symBinAddr: 0x100008098, symSize: 0xF4 }
  - { offsetInCU: 0x68ED3, offset: 0x68ED3, size: 0x8, addend: 0x0, symName: __ZN8nlohmann16json_abi_v3_11_36detail6parserINS0_10basic_jsonISt3mapSt6vectorNSt7__cxx1112basic_stringIcSt11char_traitsIcESaIcEEEbxydSaNS0_14adl_serializerES5_IhSaIhEEvEENS1_22iterator_input_adapterIN9__gnu_cxx17__normal_iteratorIPKcSB_EEEEED1Ev, symObjAddr: 0x6128, symBinAddr: 0x10000806C, symSize: 0x2C }
  - { offsetInCU: 0x68F1C, offset: 0x68F1C, size: 0x8, addend: 0x0, symName: __ZN8nlohmann16json_abi_v3_11_36detail5lexerINS0_10basic_jsonISt3mapSt6vectorNSt7__cxx1112basic_stringIcSt11char_traitsIcESaIcEEEbxydSaNS0_14adl_serializerES5_IhSaIhEEvEENS1_22iterator_input_adapterIN9__gnu_cxx17__normal_iteratorIPKcSB_EEEEED1Ev, symObjAddr: 0x60F8, symBinAddr: 0x10000803C, symSize: 0x30 }
  - { offsetInCU: 0x68EFD, offset: 0x68EFD, size: 0x8, addend: 0x0, symName: __ZNSt7__cxx1112basic_stringIcSt11char_traitsIcESaIcEEC1ISt19istreambuf_iteratorIcS2_EvEET_S8_RKS3_, symObjAddr: 0x607C, symBinAddr: 0x100007FC0, symSize: 0x7C }
  - { offsetInCU: 0x68F53, offset: 0x68F53, size: 0x8, addend: 0x0, symName: __ZNSt19istreambuf_iteratorIcSt11char_traitsIcEEC1Ev, symObjAddr: 0x604C, symBinAddr: 0x100007F90, symSize: 0x30 }
  - { offsetInCU: 0x68FA2, offset: 0x68FA2, size: 0x8, addend: 0x0, symName: __ZNSt19istreambuf_iteratorIcSt11char_traitsIcEEC1ERSi, symObjAddr: 0x5FF4, symBinAddr: 0x100007F38, symSize: 0x58 }
  - { offsetInCU: 0x68FA6, offset: 0x68FA6, size: 0x8, addend: 0x0, symName: __ZNSt6vectorIS_IiSaIiEESaIS1_EE9push_backEOS1_, symObjAddr: 0x5FC4, symBinAddr: 0x100007F08, symSize: 0x30 }
  - { offsetInCU: 0x68FE1, offset: 0x68FE1, size: 0x8, addend: 0x0, symName: __ZNK8nlohmann16json_abi_v3_11_310basic_jsonISt3mapSt6vectorNSt7__cxx1112basic_stringIcSt11char_traitsIcESaIcEEEbxydSaNS0_14adl_serializerES3_IhSaIhEEvE3getIS9_S9_EEDTcldtclL_ZSt7declvalIRKSD_EDTcl9__declvalIT_ELi0EEEvEE8get_implIT0_EtlNS0_6detail12priority_tagILj4EEEEEEv, symObjAddr: 0x5F94, symBinAddr: 0x100007ED8, symSize: 0x30 }
  - { offsetInCU: 0x6901D, offset: 0x6901D, size: 0x8, addend: 0x0, symName: __ZNK8nlohmann16json_abi_v3_11_36detail9iter_implIKNS0_10basic_jsonISt3mapSt6vectorNSt7__cxx1112basic_stringIcSt11char_traitsIcESaIcEEEbxydSaNS0_14adl_serializerES5_IhSaIhEEvEEEdeEv, symObjAddr: 0x5C8C, symBinAddr: 0x100007BD0, symSize: 0x308 }
  - { offsetInCU: 0x691C8, offset: 0x691C8, size: 0x8, addend: 0x0, symName: __ZN8nlohmann16json_abi_v3_11_36detail16invalid_iteratorD0Ev, symObjAddr: 0x5C64, symBinAddr: 0x100007BA8, symSize: 0x28 }
  - { offsetInCU: 0x691F2, offset: 0x691F2, size: 0x8, addend: 0x0, symName: __ZN8nlohmann16json_abi_v3_11_36detail16invalid_iteratorD1Ev, symObjAddr: 0x5C30, symBinAddr: 0x100007B74, symSize: 0x34 }
  - { offsetInCU: 0x691E0, offset: 0x691E0, size: 0x8, addend: 0x0, symName: __ZN8nlohmann16json_abi_v3_11_36detail9iter_implIKNS0_10basic_jsonISt3mapSt6vectorNSt7__cxx1112basic_stringIcSt11char_traitsIcESaIcEEEbxydSaNS0_14adl_serializerES5_IhSaIhEEvEEEppEv, symObjAddr: 0x5B2C, symBinAddr: 0x100007A70, symSize: 0x104 }
  - { offsetInCU: 0x692D1, offset: 0x692D1, size: 0x8, addend: 0x0, symName: __ZNK8nlohmann16json_abi_v3_11_36detail9iter_implIKNS0_10basic_jsonISt3mapSt6vectorNSt7__cxx1112basic_stringIcSt11char_traitsIcESaIcEEEbxydSaNS0_14adl_serializerES5_IhSaIhEEvEEEneISH_LDnEEEbRKT_, symObjAddr: 0x5B00, symBinAddr: 0x100007A44, symSize: 0x2C }
  - { offsetInCU: 0x69315, offset: 0x69315, size: 0x8, addend: 0x0, symName: __ZNK8nlohmann16json_abi_v3_11_310basic_jsonISt3mapSt6vectorNSt7__cxx1112basic_stringIcSt11char_traitsIcESaIcEEEbxydSaNS0_14adl_serializerES3_IhSaIhEEvE3endEv, symObjAddr: 0x5AD0, symBinAddr: 0x100007A14, symSize: 0x30 }
  - { offsetInCU: 0x6933F, offset: 0x6933F, size: 0x8, addend: 0x0, symName: __ZNK8nlohmann16json_abi_v3_11_310basic_jsonISt3mapSt6vectorNSt7__cxx1112basic_stringIcSt11char_traitsIcESaIcEEEbxydSaNS0_14adl_serializerES3_IhSaIhEEvE5beginEv, symObjAddr: 0x5AA0, symBinAddr: 0x1000079E4, symSize: 0x30 }
  - { offsetInCU: 0x69369, offset: 0x69369, size: 0x8, addend: 0x0, symName: __ZNK8nlohmann16json_abi_v3_11_310basic_jsonISt3mapSt6vectorNSt7__cxx1112basic_stringIcSt11char_traitsIcESaIcEEEbxydSaNS0_14adl_serializerES3_IhSaIhEEvEixIKcEERKSD_PT_, symObjAddr: 0x5A00, symBinAddr: 0x100007944, symSize: 0xA0 }
  - { offsetInCU: 0x69487, offset: 0x69487, size: 0x8, addend: 0x0, symName: __ZNSt12_Vector_baseIiSaIiEE12_Vector_implC1EOS2_, symObjAddr: 0x5994, symBinAddr: 0x1000078D8, symSize: 0x6C }
  - { offsetInCU: 0x694E1, offset: 0x694E1, size: 0x8, addend: 0x0, symName: __ZNSt6vectorIiSaIiEE9push_backEOi, symObjAddr: 0x5964, symBinAddr: 0x1000078A8, symSize: 0x30 }
  - { offsetInCU: 0x6951C, offset: 0x6951C, size: 0x8, addend: 0x0, symName: __ZNK9__gnu_cxx17__normal_iteratorIPKcNSt7__cxx1112basic_stringIcSt11char_traitsIcESaIcEEEEdeEv, symObjAddr: 0x594C, symBinAddr: 0x100007890, symSize: 0x18 }
  - { offsetInCU: 0x69546, offset: 0x69546, size: 0x8, addend: 0x0, symName: __ZN9__gnu_cxx17__normal_iteratorIPKcNSt7__cxx1112basic_stringIcSt11char_traitsIcESaIcEEEEppEv, symObjAddr: 0x5924, symBinAddr: 0x100007868, symSize: 0x28 }
  - { offsetInCU: 0x6956C, offset: 0x6956C, size: 0x8, addend: 0x0, symName: __ZN9__gnu_cxxneIPKcNSt7__cxx1112basic_stringIcSt11char_traitsIcESaIcEEEEEbRKNS_17__normal_iteratorIT_T0_EESE_, symObjAddr: 0x58E0, symBinAddr: 0x100007824, symSize: 0x44 }
  - { offsetInCU: 0x695BD, offset: 0x695BD, size: 0x8, addend: 0x0, symName: __ZN8nlohmann16json_abi_v3_11_310basic_jsonISt3mapSt6vectorNSt7__cxx1112basic_stringIcSt11char_traitsIcESaIcEEEbxydSaNS0_14adl_serializerES3_IhSaIhEEvE9push_backERKSD_, symObjAddr: 0x574C, symBinAddr: 0x100007690, symSize: 0x194 }
  - { offsetInCU: 0x69665, offset: 0x69665, size: 0x8, addend: 0x0, symName: __ZN8nlohmann16json_abi_v3_11_36detail10type_errorD0Ev, symObjAddr: 0x5724, symBinAddr: 0x100007668, symSize: 0x28 }
  - { offsetInCU: 0x6968F, offset: 0x6968F, size: 0x8, addend: 0x0, symName: __ZN8nlohmann16json_abi_v3_11_36detail10type_errorD1Ev, symObjAddr: 0x56F0, symBinAddr: 0x100007634, symSize: 0x34 }
  - { offsetInCU: 0x69683, offset: 0x69683, size: 0x8, addend: 0x0, symName: __ZNK8nlohmann16json_abi_v3_11_310basic_jsonISt3mapSt6vectorNSt7__cxx1112basic_stringIcSt11char_traitsIcESaIcEEEbxydSaNS0_14adl_serializerES3_IhSaIhEEvE7is_nullEv, symObjAddr: 0x56CC, symBinAddr: 0x100007610, symSize: 0x24 }
  - { offsetInCU: 0x69788, offset: 0x69788, size: 0x8, addend: 0x0, symName: __ZN8nlohmann16json_abi_v3_11_310basic_jsonISt3mapSt6vectorNSt7__cxx1112basic_stringIcSt11char_traitsIcESaIcEEEbxydSaNS0_14adl_serializerES3_IhSaIhEEvEC1IiiLi0EEEOT_, symObjAddr: 0x5670, symBinAddr: 0x1000075B4, symSize: 0x5C }
  - { offsetInCU: 0x69728, offset: 0x69728, size: 0x8, addend: 0x0, symName: __ZN8nlohmann16json_abi_v3_11_310basic_jsonISt3mapSt6vectorNSt7__cxx1112basic_stringIcSt11char_traitsIcESaIcEEEbxydSaNS0_14adl_serializerES3_IhSaIhEEvEaSESD_, symObjAddr: 0x5604, symBinAddr: 0x100007548, symSize: 0x6C }
  - { offsetInCU: 0x69840, offset: 0x69840, size: 0x8, addend: 0x0, symName: __ZN8nlohmann16json_abi_v3_11_310basic_jsonISt3mapSt6vectorNSt7__cxx1112basic_stringIcSt11char_traitsIcESaIcEEEbxydSaNS0_14adl_serializerES3_IhSaIhEEvEC1IRiiLi0EEEOT_, symObjAddr: 0x55A8, symBinAddr: 0x1000074EC, symSize: 0x5C }
  - { offsetInCU: 0x69895, offset: 0x69895, size: 0x8, addend: 0x0, symName: __ZN8nlohmann16json_abi_v3_11_310basic_jsonISt3mapSt6vectorNSt7__cxx1112basic_stringIcSt11char_traitsIcESaIcEEEbxydSaNS0_14adl_serializerES3_IhSaIhEEvE4dataC1Ev, symObjAddr: 0x5584, symBinAddr: 0x1000074C8, symSize: 0x24 }
  - { offsetInCU: 0x6981F, offset: 0x6981F, size: 0x8, addend: 0x0, symName: __ZN8nlohmann16json_abi_v3_11_310basic_jsonISt3mapSt6vectorNSt7__cxx1112basic_stringIcSt11char_traitsIcESaIcEEEbxydSaNS0_14adl_serializerES3_IhSaIhEEvEixIKcEERSD_PT_, symObjAddr: 0x54E4, symBinAddr: 0x100007428, symSize: 0xA0 }
  - { offsetInCU: 0x699A0, offset: 0x699A0, size: 0x8, addend: 0x0, symName: __ZN8nlohmann16json_abi_v3_11_310basic_jsonISt3mapSt6vectorNSt7__cxx1112basic_stringIcSt11char_traitsIcESaIcEEEbxydSaNS0_14adl_serializerES3_IhSaIhEEvEC1EDn, symObjAddr: 0x54B0, symBinAddr: 0x1000073F4, symSize: 0x34 }
  - { offsetInCU: 0x69937, offset: 0x69937, size: 0x8, addend: 0x0, symName: __ZNK9__gnu_cxx17__normal_iteratorIPiSt6vectorIiSaIiEEEdeEv, symObjAddr: 0x5498, symBinAddr: 0x1000073DC, symSize: 0x18 }
  - { offsetInCU: 0x69961, offset: 0x69961, size: 0x8, addend: 0x0, symName: __ZN9__gnu_cxx17__normal_iteratorIPiSt6vectorIiSaIiEEEppEv, symObjAddr: 0x5470, symBinAddr: 0x1000073B4, symSize: 0x28 }
  - { offsetInCU: 0x69987, offset: 0x69987, size: 0x8, addend: 0x0, symName: __ZN9__gnu_cxxneIPiSt6vectorIiSaIiEEEEbRKNS_17__normal_iteratorIT_T0_EESA_, symObjAddr: 0x542C, symBinAddr: 0x100007370, symSize: 0x44 }
  - { offsetInCU: 0x699D8, offset: 0x699D8, size: 0x8, addend: 0x0, symName: __ZNSt6vectorIiSaIiEE3endEv, symObjAddr: 0x5404, symBinAddr: 0x100007348, symSize: 0x28 }
  - { offsetInCU: 0x69A02, offset: 0x69A02, size: 0x8, addend: 0x0, symName: __ZNSt6vectorIiSaIiEE5beginEv, symObjAddr: 0x53E0, symBinAddr: 0x100007324, symSize: 0x24 }
  - { offsetInCU: 0x69A2C, offset: 0x69A2C, size: 0x8, addend: 0x0, symName: __ZNSt6vectorIiSaIiEE9push_backERKi, symObjAddr: 0x5318, symBinAddr: 0x10000725C, symSize: 0xC8 }
  - { offsetInCU: 0x69B13, offset: 0x69B13, size: 0x8, addend: 0x0, symName: __ZNSt12_Vector_baseIiSaIiEED2Ev, symObjAddr: 0x52C8, symBinAddr: 0x10000720C, symSize: 0x50 }
  - { offsetInCU: 0x69B61, offset: 0x69B61, size: 0x8, addend: 0x0, symName: __ZNSt12_Vector_baseIiSaIiEE12_Vector_implC1Ev, symObjAddr: 0x5290, symBinAddr: 0x1000071D4, symSize: 0x38 }
  - { offsetInCU: 0x69BA5, offset: 0x69BA5, size: 0x8, addend: 0x0, symName: __ZNSt6chronomiIxSt5ratioILl1ELl1000000000EExS2_EENSt11common_typeIJNS_8durationIT_T0_EENS4_IT1_T2_EEEE4typeERKS7_RKSA_, symObjAddr: 0x522C, symBinAddr: 0x100007170, symSize: 0x64 }
  - { offsetInCU: 0x69C15, offset: 0x69C15, size: 0x8, addend: 0x0, symName: __ZNKSt6chrono8durationIxSt5ratioILl1ELl1000000EEE5countEv, symObjAddr: 0x5214, symBinAddr: 0x100007158, symSize: 0x18 }
  - { offsetInCU: 0x69C3B, offset: 0x69C3B, size: 0x8, addend: 0x0, symName: __ZNSt6chrono13duration_castINS_8durationIxSt5ratioILl1ELl1000000EEEExS2_ILl1ELl1000000000EEEENSt9enable_ifIXsrNS_13__is_durationIT_EE5valueES8_E4typeERKNS1_IT0_T1_EE, symObjAddr: 0x51F8, symBinAddr: 0x10000713C, symSize: 0x1C }
  - { offsetInCU: 0x69CA9, offset: 0x69CA9, size: 0x8, addend: 0x0, symName: __ZNKSt6vectorIiSaIiEEixEm, symObjAddr: 0x51D0, symBinAddr: 0x100007114, symSize: 0x28 }
  - { offsetInCU: 0x69CE4, offset: 0x69CE4, size: 0x8, addend: 0x0, symName: __ZNKSt6vectorIiSaIiEE4sizeEv, symObjAddr: 0x51A8, symBinAddr: 0x1000070EC, symSize: 0x28 }
  - { offsetInCU: 0x69D0E, offset: 0x69D0E, size: 0x8, addend: 0x0, symName: __ZNKSt6vectorIS_IiSaIiEESaIS1_EEixEm, symObjAddr: 0x5174, symBinAddr: 0x1000070B8, symSize: 0x34 }
  - { offsetInCU: 0x69D49, offset: 0x69D49, size: 0x8, addend: 0x0, symName: __ZNKSt6vectorIS_IiSaIiEESaIS1_EE4sizeEv, symObjAddr: 0x5140, symBinAddr: 0x100007084, symSize: 0x34 }
  - { offsetInCU: 0x69D73, offset: 0x69D73, size: 0x8, addend: 0x0, symName: __ZNSt6vectorIS_IiSaIiEESaIS1_EEaSERKS3_, symObjAddr: 0x4DA8, symBinAddr: 0x100006CEC, symSize: 0x398 }
  - { offsetInCU: 0x69EF7, offset: 0x69EF7, size: 0x8, addend: 0x0, symName: __ZSt11__addressofIKSt6vectorIS0_IiSaIiEESaIS2_EEEPT_RS6_, symObjAddr: 0x4D94, symBinAddr: 0x100006CD8, symSize: 0x14 }
  - { offsetInCU: 0x69F2D, offset: 0x69F2D, size: 0x8, addend: 0x0, symName: __ZNSt3mapIiSt6vectorIS0_IiSaIiEESaIS2_EESt4lessIiESaISt4pairIKiS4_EEEixERS8_, symObjAddr: 0x4CA8, symBinAddr: 0x100006BEC, symSize: 0xEC }
  - { offsetInCU: 0x69F79, offset: 0x69F79, size: 0x8, addend: 0x0, symName: __ZNSt6vectorIiSaIiEEixEm, symObjAddr: 0x4C80, symBinAddr: 0x100006BC4, symSize: 0x28 }
  - { offsetInCU: 0x69FB4, offset: 0x69FB4, size: 0x8, addend: 0x0, symName: __ZNSt6vectorIS_IiSaIiEESaIS1_EEixEm, symObjAddr: 0x4C4C, symBinAddr: 0x100006B90, symSize: 0x34 }
  - { offsetInCU: 0x6A033, offset: 0x6A033, size: 0x8, addend: 0x0, symName: __ZNSt6vectorIS_IiSaIiEESaIS1_EED1Ev, symObjAddr: 0x4BF0, symBinAddr: 0x100006B34, symSize: 0x5C }
  - { offsetInCU: 0x6A0DD, offset: 0x6A0DD, size: 0x8, addend: 0x0, symName: __ZNSt6vectorIS_IiSaIiEESaIS1_EEC1EmRKS1_RKS2_, symObjAddr: 0x4B80, symBinAddr: 0x100006AC4, symSize: 0x70 }
  - { offsetInCU: 0x6A163, offset: 0x6A163, size: 0x8, addend: 0x0, symName: __ZNSt6vectorIiSaIiEED1Ev, symObjAddr: 0x4B24, symBinAddr: 0x100006A68, symSize: 0x5C }
  - { offsetInCU: 0x6A1FA, offset: 0x6A1FA, size: 0x8, addend: 0x0, symName: __ZNSt6vectorIiSaIiEEC1EmRKS0_, symObjAddr: 0x4ABC, symBinAddr: 0x100006A00, symSize: 0x68 }
  - { offsetInCU: 0x6A29A, offset: 0x6A29A, size: 0x8, addend: 0x0, symName: __ZNSt8_Rb_treeIiSt4pairIKiSt6vectorIS2_IiSaIiEESaIS4_EEESt10_Select1stIS7_ESt4lessIiESaIS7_EED1Ev, symObjAddr: 0x4A88, symBinAddr: 0x1000069CC, symSize: 0x34 }
  - { offsetInCU: 0x6A312, offset: 0x6A312, size: 0x8, addend: 0x0, symName: __ZNSt8_Rb_treeIiSt4pairIKiSt6vectorIS2_IiSaIiEESaIS4_EEESt10_Select1stIS7_ESt4lessIiESaIS7_EE13_Rb_tree_implISB_Lb1EEC1Ev, symObjAddr: 0x4A44, symBinAddr: 0x100006988, symSize: 0x44 }
  - { offsetInCU: 0x6A305, offset: 0x6A305, size: 0x8, addend: 0x0, symName: __ZN8nlohmann16json_abi_v3_11_310basic_jsonISt3mapSt6vectorNSt7__cxx1112basic_stringIcSt11char_traitsIcESaIcEEEbxydSaNS0_14adl_serializerES3_IhSaIhEEvE5arrayESt16initializer_listINS0_6detail8json_refISD_EEE, symObjAddr: 0x4A0C, symBinAddr: 0x100006950, symSize: 0x38 }
  - { offsetInCU: 0x6A399, offset: 0x6A399, size: 0x8, addend: 0x0, symName: __ZNSt6vectorIiSaIiEEC1ESt16initializer_listIiERKS0_, symObjAddr: 0x499C, symBinAddr: 0x1000068E0, symSize: 0x70 }
  - { offsetInCU: 0x6A492, offset: 0x6A492, size: 0x8, addend: 0x0, symName: __ZN8nlohmann16json_abi_v3_11_310basic_jsonISt3mapSt6vectorNSt7__cxx1112basic_stringIcSt11char_traitsIcESaIcEEEbxydSaNS0_14adl_serializerES3_IhSaIhEEvED1Ev, symObjAddr: 0x4970, symBinAddr: 0x1000068B4, symSize: 0x2C }
  - { offsetInCU: 0x6A507, offset: 0x6A507, size: 0x8, addend: 0x0, symName: __ZNSt8functionIFbiN8nlohmann16json_abi_v3_11_36detail13parse_event_tERNS1_10basic_jsonISt3mapSt6vectorNSt7__cxx1112basic_stringIcSt11char_traitsIcESaIcEEEbxydSaNS1_14adl_serializerES6_IhSaIhEEvEEEEC1EDn, symObjAddr: 0x4938, symBinAddr: 0x10000687C, symSize: 0x38 }
  - { offsetInCU: 0x6A46B, offset: 0x6A46B, size: 0x8, addend: 0x0, symName: __ZN8nlohmann16json_abi_v3_11_36detail6concatINSt7__cxx1112basic_stringIcSt11char_traitsIcESaIcEEEJRA10_KcS8_SB_S8_EEET_DpOT0_, symObjAddr: 0x487C, symBinAddr: 0x1000067C0, symSize: 0xBC }
  - { offsetInCU: 0x6A4E4, offset: 0x6A4E4, size: 0x8, addend: 0x0, symName: __ZN8nlohmann16json_abi_v3_11_36detail6concatINSt7__cxx1112basic_stringIcSt11char_traitsIcESaIcEEEJRA17_KcRKS8_cS8_RA3_S9_EEET_DpOT0_, symObjAddr: 0x47A0, symBinAddr: 0x1000066E4, symSize: 0xDC }
  - { offsetInCU: 0x6A572, offset: 0x6A572, size: 0x8, addend: 0x0, symName: __ZSt4moveIRNSt7__cxx1112basic_stringIcSt11char_traitsIcESaIcEEEEONSt16remove_referenceIT_E4typeEOS8_, symObjAddr: 0x478C, symBinAddr: 0x1000066D0, symSize: 0x14 }
  - { offsetInCU: 0x6A651, offset: 0x6A651, size: 0x8, addend: 0x0, symName: __ZNSt7__cxx1112basic_stringIcSt11char_traitsIcESaIcEEC1IS3_EEPKcRKS3_, symObjAddr: 0x46F0, symBinAddr: 0x100006634, symSize: 0x9C }
  - { offsetInCU: 0x6A6A4, offset: 0x6A6A4, size: 0x8, addend: 0x0, symName: __ZNSt14_Function_baseC2Ev, symObjAddr: 0x46CC, symBinAddr: 0x100006610, symSize: 0x24 }
  - { offsetInCU: 0x6A6B6, offset: 0x6A6B6, size: 0x8, addend: 0x0, symName: __ZSt7forwardIiEOT_RNSt16remove_referenceIS0_E4typeE, symObjAddr: 0x46B8, symBinAddr: 0x1000065FC, symSize: 0x14 }
  - { offsetInCU: 0x6A6E8, offset: 0x6A6E8, size: 0x8, addend: 0x0, symName: __ZSt3maxImERKT_S2_S2_, symObjAddr: 0x4680, symBinAddr: 0x1000065C4, symSize: 0x38 }
  - { offsetInCU: 0x6A766, offset: 0x6A766, size: 0x8, addend: 0x0, symName: __ZNSt7__cxx1112basic_stringIcSt11char_traitsIcESaIcEE22__resize_and_overwriteIZNS_9to_stringEmEUlPcmE_EEvmT_, symObjAddr: 0x4604, symBinAddr: 0x100006548, symSize: 0x7C }
  - { offsetInCU: 0x6A8DC, offset: 0x6A8DC, size: 0x8, addend: 0x0, symName: __ZZNSt7__cxx1112basic_stringIcSt11char_traitsIcESaIcEE22__resize_and_overwriteIZNS_9to_stringEmEUlPcmE_EEvmT_EN11_TerminatorD1Ev, symObjAddr: 0x45D0, symBinAddr: 0x100006514, symSize: 0x34 }
  - { offsetInCU: 0x6A8A5, offset: 0x6A8A5, size: 0x8, addend: 0x0, symName: __ZNSt8__detail18__to_chars_10_implImEEvPcjT_, symObjAddr: 0x4404, symBinAddr: 0x100006348, symSize: 0x1CC }
  - { offsetInCU: 0x6A973, offset: 0x6A973, size: 0x8, addend: 0x0, symName: __ZNSt7__cxx1112basic_stringIcSt11char_traitsIcESaIcEE22__resize_and_overwriteIZNS_9to_stringEiEUlPcmE_EEvmT_, symObjAddr: 0x4374, symBinAddr: 0x1000062B8, symSize: 0x90 }
  - { offsetInCU: 0x6AAE9, offset: 0x6AAE9, size: 0x8, addend: 0x0, symName: __ZZNSt7__cxx1112basic_stringIcSt11char_traitsIcESaIcEE22__resize_and_overwriteIZNS_9to_stringEiEUlPcmE_EEvmT_EN11_TerminatorD1Ev, symObjAddr: 0x4340, symBinAddr: 0x100006284, symSize: 0x34 }
  - { offsetInCU: 0x6AAB2, offset: 0x6AAB2, size: 0x8, addend: 0x0, symName: __ZNSt8__detail18__to_chars_10_implIjEEvPcjT_, symObjAddr: 0x418C, symBinAddr: 0x1000060D0, symSize: 0x1B4 }
  - { offsetInCU: 0x6ABDD, offset: 0x6ABDD, size: 0x8, addend: 0x0, symName: __ZNSt7__cxx1112basic_stringIcSt11char_traitsIcESaIcEE12_Alloc_hiderD1Ev, symObjAddr: 0x4160, symBinAddr: 0x1000060A4, symSize: 0x2C }
  - { offsetInCU: 0x6ABDE, offset: 0x6ABDE, size: 0x8, addend: 0x0, symName: __ZN9__gnu_cxx11char_traitsIcE6lengthEPKc, symObjAddr: 0x4108, symBinAddr: 0x10000604C, symSize: 0x58 }
  - { offsetInCU: 0x6AC21, offset: 0x6AC21, size: 0x8, addend: 0x0, symName: _main, symObjAddr: 0x40B8, symBinAddr: 0x100005FFC, symSize: 0x50 }
  - { offsetInCU: 0x6AC59, offset: 0x6AC59, size: 0x8, addend: 0x0, symName: __Z4Mainv, symObjAddr: 0x39A0, symBinAddr: 0x1000058E4, symSize: 0x718 }
  - { offsetInCU: 0x6AEB0, offset: 0x6AEB0, size: 0x8, addend: 0x0, symName: __ZNSt6vectorIS_IiSaIiEESaIS1_EEC1Ev, symObjAddr: 0x3980, symBinAddr: 0x1000058C4, symSize: 0x20 }
  - { offsetInCU: 0x6AEFE, offset: 0x6AEFE, size: 0x8, addend: 0x0, symName: __ZNSt12_Vector_baseISt6vectorIiSaIiEESaIS2_EEC2Ev, symObjAddr: 0x3960, symBinAddr: 0x1000058A4, symSize: 0x20 }
  - { offsetInCU: 0x6AF59, offset: 0x6AF59, size: 0x8, addend: 0x0, symName: __ZNSt12_Vector_baseISt6vectorIiSaIiEESaIS2_EE12_Vector_implD1Ev, symObjAddr: 0x3934, symBinAddr: 0x100005878, symSize: 0x2C }
  - { offsetInCU: 0x6B003, offset: 0x6B003, size: 0x8, addend: 0x0, symName: __Z12findingPrintRKSt6vectorIS_IiSaIiEESaIS1_EES5_iiNSt6chrono10time_pointINS6_3_V212system_clockENS6_8durationIxSt5ratioILl1ELl1000000000EEEEEESE_, symObjAddr: 0x3678, symBinAddr: 0x1000055BC, symSize: 0x2BC }
  - { offsetInCU: 0x6B121, offset: 0x6B121, size: 0x8, addend: 0x0, symName: __Z9loadBoardRKN8nlohmann16json_abi_v3_11_310basic_jsonISt3mapSt6vectorNSt7__cxx1112basic_stringIcSt11char_traitsIcESaIcEEEbxydSaNS0_14adl_serializerES3_IhSaIhEEvEERS3_IS3_IiSaIiEESaISH_EESK_, symObjAddr: 0x3498, symBinAddr: 0x1000053DC, symSize: 0x1E0 }
  - { offsetInCU: 0x6B193, offset: 0x6B193, size: 0x8, addend: 0x0, symName: __Z14stringToVectorRKNSt7__cxx1112basic_stringIcSt11char_traitsIcESaIcEEE, symObjAddr: 0x33E4, symBinAddr: 0x100005328, symSize: 0xB4 }
  - { offsetInCU: 0x6B203, offset: 0x6B203, size: 0x8, addend: 0x0, symName: __ZNSt6vectorIiSaIiEEC1EOS1_, symObjAddr: 0x33BC, symBinAddr: 0x100005300, symSize: 0x28 }
  - { offsetInCU: 0x6B258, offset: 0x6B258, size: 0x8, addend: 0x0, symName: __ZNSt12_Vector_baseIiSaIiEEC2EOS1_, symObjAddr: 0x3394, symBinAddr: 0x1000052D8, symSize: 0x28 }
  - { offsetInCU: 0x6B295, offset: 0x6B295, size: 0x8, addend: 0x0, symName: __Z4leftRSt6vectorIS_IiSaIiEESaIS1_EES4_iiii, symObjAddr: 0x2B30, symBinAddr: 0x100004A74, symSize: 0x864 }
  - { offsetInCU: 0x6B763, offset: 0x6B763, size: 0x8, addend: 0x0, symName: __Z5rightRSt6vectorIS_IiSaIiEESaIS1_EES4_iiii, symObjAddr: 0x2314, symBinAddr: 0x100004258, symSize: 0x81C }
  - { offsetInCU: 0x6BC1F, offset: 0x6BC1F, size: 0x8, addend: 0x0, symName: __Z2upRSt6vectorIS_IiSaIiEESaIS1_EES4_iiii, symObjAddr: 0x1AA4, symBinAddr: 0x1000039E8, symSize: 0x870 }
  - { offsetInCU: 0x6C0E7, offset: 0x6C0E7, size: 0x8, addend: 0x0, symName: __ZNSt6vectorIiSaIiEEC1Ev, symObjAddr: 0x1A84, symBinAddr: 0x1000039C8, symSize: 0x20 }
  - { offsetInCU: 0x6C12E, offset: 0x6C12E, size: 0x8, addend: 0x0, symName: __ZNSt12_Vector_baseIiSaIiEEC2Ev, symObjAddr: 0x1A64, symBinAddr: 0x1000039A8, symSize: 0x20 }
  - { offsetInCU: 0x6C189, offset: 0x6C189, size: 0x8, addend: 0x0, symName: __ZNSt12_Vector_baseIiSaIiEE12_Vector_implD1Ev, symObjAddr: 0x1A38, symBinAddr: 0x10000397C, symSize: 0x2C }
  - { offsetInCU: 0x6C23E, offset: 0x6C23E, size: 0x8, addend: 0x0, symName: __Z10scorePrintRKSt6vectorIS_IiSaIiEESaIS1_EES5_NSt6chrono10time_pointINS6_3_V212system_clockENS6_8durationIxSt5ratioILl1ELl1000000000EEEEEESE_, symObjAddr: 0x175C, symBinAddr: 0x1000036A0, symSize: 0x2DC }
  - { offsetInCU: 0x6C270, offset: 0x6C270, size: 0x8, addend: 0x0, symName: __ZNKSt6chrono10time_pointINS_3_V212system_clockENS_8durationIxSt5ratioILl1ELl1000000000EEEEE16time_since_epochEv, symObjAddr: 0x1744, symBinAddr: 0x100003688, symSize: 0x18 }
  - { offsetInCU: 0x6C29C, offset: 0x6C29C, size: 0x8, addend: 0x0, symName: __ZNSt6chronomiINS_3_V212system_clockENS_8durationIxSt5ratioILl1ELl1000000000EEEES6_EENSt11common_typeIJT0_T1_EE4typeERKNS_10time_pointIT_S8_EERKNSC_ISD_S9_EE, symObjAddr: 0x1708, symBinAddr: 0x10000364C, symSize: 0x3C }
  - { offsetInCU: 0x6C341, offset: 0x6C341, size: 0x8, addend: 0x0, symName: __Z18calculateMatchRateRKSt6vectorIS_IiSaIiEESaIS1_EES5_, symObjAddr: 0x15B8, symBinAddr: 0x1000034FC, symSize: 0x150 }
  - { offsetInCU: 0x6C3C3, offset: 0x6C3C3, size: 0x8, addend: 0x0, symName: __Z16generateNukigatav, symObjAddr: 0x1410, symBinAddr: 0x100003354, symSize: 0x1A8 }
  - { offsetInCU: 0x6C5B6, offset: 0x6C5B6, size: 0x8, addend: 0x0, symName: __ZNSt3mapIiSt6vectorIS0_IiSaIiEESaIS2_EESt4lessIiESaISt4pairIKiS4_EEEC1Ev, symObjAddr: 0x13F0, symBinAddr: 0x100003334, symSize: 0x20 }
  - { offsetInCU: 0x6C60E, offset: 0x6C60E, size: 0x8, addend: 0x0, symName: __ZNSt8_Rb_treeIiSt4pairIKiSt6vectorIS2_IiSaIiEESaIS4_EEESt10_Select1stIS7_ESt4lessIiESaIS7_EEC1Ev, symObjAddr: 0x13D0, symBinAddr: 0x100003314, symSize: 0x20 }
  - { offsetInCU: 0x6C674, offset: 0x6C674, size: 0x8, addend: 0x0, symName: __ZNSt8_Rb_treeIiSt4pairIKiSt6vectorIS2_IiSaIiEESaIS4_EEESt10_Select1stIS7_ESt4lessIiESaIS7_EE13_Rb_tree_implISB_Lb1EED1Ev, symObjAddr: 0x13A4, symBinAddr: 0x1000032E8, symSize: 0x2C }
  - { offsetInCU: 0x6C736, offset: 0x6C736, size: 0x8, addend: 0x0, symName: __ZNSt8functionIFbiN8nlohmann16json_abi_v3_11_36detail13parse_event_tERNS1_10basic_jsonISt3mapSt6vectorNSt7__cxx1112basic_stringIcSt11char_traitsIcESaIcEEEbxydSaNS1_14adl_serializerES6_IhSaIhEEvEEEED1Ev, symObjAddr: 0x1384, symBinAddr: 0x1000032C8, symSize: 0x20 }
  - { offsetInCU: 0x6C696, offset: 0x6C696, size: 0x8, addend: 0x0, symName: __ZN8nlohmann16json_abi_v3_11_36detail20primitive_iterator_tppEv, symObjAddr: 0x135C, symBinAddr: 0x1000032A0, symSize: 0x28 }
  - { offsetInCU: 0x6C6BC, offset: 0x6C6BC, size: 0x8, addend: 0x0, symName: __ZN8nlohmann16json_abi_v3_11_36detaileqENS1_20primitive_iterator_tES2_, symObjAddr: 0x1334, symBinAddr: 0x100003278, symSize: 0x28 }
  - { offsetInCU: 0x6C6FB, offset: 0x6C6FB, size: 0x8, addend: 0x0, symName: __ZNK8nlohmann16json_abi_v3_11_36detail20primitive_iterator_t8is_beginEv, symObjAddr: 0x1310, symBinAddr: 0x100003254, symSize: 0x24 }
  - { offsetInCU: 0x6C725, offset: 0x6C725, size: 0x8, addend: 0x0, symName: __ZN8nlohmann16json_abi_v3_11_36detail20primitive_iterator_t7set_endEv, symObjAddr: 0x12F0, symBinAddr: 0x100003234, symSize: 0x20 }
  - { offsetInCU: 0x6C74F, offset: 0x6C74F, size: 0x8, addend: 0x0, symName: __ZN8nlohmann16json_abi_v3_11_36detail20primitive_iterator_t9set_beginEv, symObjAddr: 0x12D4, symBinAddr: 0x100003218, symSize: 0x1C }
  - { offsetInCU: 0x6C7E5, offset: 0x6C7E5, size: 0x8, addend: 0x0, symName: __ZN8nlohmann16json_abi_v3_11_36detail11other_errorC1EiPKc, symObjAddr: 0x1290, symBinAddr: 0x1000031D4, symSize: 0x44 }
  - { offsetInCU: 0x6C854, offset: 0x6C854, size: 0x8, addend: 0x0, symName: __ZN8nlohmann16json_abi_v3_11_36detail12out_of_rangeC1EiPKc, symObjAddr: 0x124C, symBinAddr: 0x100003190, symSize: 0x44 }
  - { offsetInCU: 0x6C8C0, offset: 0x6C8C0, size: 0x8, addend: 0x0, symName: __ZN8nlohmann16json_abi_v3_11_36detail10type_errorC1EiPKc, symObjAddr: 0x1208, symBinAddr: 0x10000314C, symSize: 0x44 }
  - { offsetInCU: 0x6C934, offset: 0x6C934, size: 0x8, addend: 0x0, symName: __ZN8nlohmann16json_abi_v3_11_36detail16invalid_iteratorC1EiPKc, symObjAddr: 0x11C4, symBinAddr: 0x100003108, symSize: 0x44 }
  - { offsetInCU: 0x6C92D, offset: 0x6C92D, size: 0x8, addend: 0x0, symName: __ZN8nlohmann16json_abi_v3_11_36detail11parse_error15position_stringB5cxx11ERKNS1_10position_tE, symObjAddr: 0x1114, symBinAddr: 0x100003058, symSize: 0xB0 }
  - { offsetInCU: 0x6C9D7, offset: 0x6C9D7, size: 0x8, addend: 0x0, symName: __ZN8nlohmann16json_abi_v3_11_36detail11parse_errorC1EimPKc, symObjAddr: 0x10C0, symBinAddr: 0x100003004, symSize: 0x54 }
  - { offsetInCU: 0x6CA39, offset: 0x6CA39, size: 0x8, addend: 0x0, symName: __ZN8nlohmann16json_abi_v3_11_36detail9exceptionD0Ev, symObjAddr: 0x1098, symBinAddr: 0x100002FDC, symSize: 0x28 }
  - { offsetInCU: 0x6CA63, offset: 0x6CA63, size: 0x8, addend: 0x0, symName: __ZN8nlohmann16json_abi_v3_11_36detail9exceptionD1Ev, symObjAddr: 0x1058, symBinAddr: 0x100002F9C, symSize: 0x40 }
  - { offsetInCU: 0x6CA8D, offset: 0x6CA8D, size: 0x8, addend: 0x0, symName: __ZN8nlohmann16json_abi_v3_11_36detail9exceptionD2Ev, symObjAddr: 0x1018, symBinAddr: 0x100002F5C, symSize: 0x40 }
  - { offsetInCU: 0x6CA7F, offset: 0x6CA7F, size: 0x8, addend: 0x0, symName: __ZN8nlohmann16json_abi_v3_11_36detail9exception11diagnosticsB5cxx11EDn, symObjAddr: 0xFA4, symBinAddr: 0x100002EE8, symSize: 0x74 }
  - { offsetInCU: 0x6CB27, offset: 0x6CB27, size: 0x8, addend: 0x0, symName: __ZN8nlohmann16json_abi_v3_11_36detail9exception4nameERKNSt7__cxx1112basic_stringIcSt11char_traitsIcESaIcEEEi, symObjAddr: 0xF14, symBinAddr: 0x100002E58, symSize: 0x90 }
  - { offsetInCU: 0x6CBCF, offset: 0x6CBCF, size: 0x8, addend: 0x0, symName: __ZN8nlohmann16json_abi_v3_11_36detail9exceptionC2EiPKc, symObjAddr: 0xEA0, symBinAddr: 0x100002DE4, symSize: 0x74 }
  - { offsetInCU: 0x6CBD4, offset: 0x6CBD4, size: 0x8, addend: 0x0, symName: __ZNK8nlohmann16json_abi_v3_11_36detail9exception4whatEv, symObjAddr: 0xE80, symBinAddr: 0x100002DC4, symSize: 0x20 }
  - { offsetInCU: 0x6CBFB, offset: 0x6CBFB, size: 0x8, addend: 0x0, symName: __ZN8nlohmann16json_abi_v3_11_36detail13concat_lengthEv, symObjAddr: 0xE78, symBinAddr: 0x100002DBC, symSize: 0x8 }
  - { offsetInCU: 0x6CC16, offset: 0x6CC16, size: 0x8, addend: 0x0, symName: __ZNK8nlohmann16json_abi_v3_11_36detail10position_tcvmEv, symObjAddr: 0xE60, symBinAddr: 0x100002DA4, symSize: 0x18 }
  - { offsetInCU: 0x6CC42, offset: 0x6CC42, size: 0x8, addend: 0x0, symName: __ZSt7forwardIcEOT_RNSt16remove_referenceIS0_E4typeE, symObjAddr: 0xE4C, symBinAddr: 0x100002D90, symSize: 0x14 }
  - { offsetInCU: 0x6CC78, offset: 0x6CC78, size: 0x8, addend: 0x0, symName: __ZNKSt6chrono8durationIxSt5ratioILl1ELl1000000000EEE5countEv, symObjAddr: 0xE34, symBinAddr: 0x100002D78, symSize: 0x18 }
  - { offsetInCU: 0x6CD0E, offset: 0x6CD0E, size: 0x8, addend: 0x0, symName: __ZNSt6chrono8durationIxSt5ratioILl1ELl1000000000EEEC1IxvEERKT_, symObjAddr: 0xE0C, symBinAddr: 0x100002D50, symSize: 0x28 }
  - { offsetInCU: 0x6CD0B, offset: 0x6CD0B, size: 0x8, addend: 0x0, symName: __ZNSt15_Rb_tree_header8_M_resetEv, symObjAddr: 0xDD0, symBinAddr: 0x100002D14, symSize: 0x3C }
  - { offsetInCU: 0x6CD66, offset: 0x6CD66, size: 0x8, addend: 0x0, symName: __ZNSt15_Rb_tree_headerC2Ev, symObjAddr: 0xDA8, symBinAddr: 0x100002CEC, symSize: 0x28 }
  - { offsetInCU: 0x6CD71, offset: 0x6CD71, size: 0x8, addend: 0x0, symName: __ZNSt18_Rb_tree_node_base10_S_maximumEPS_, symObjAddr: 0xD74, symBinAddr: 0x100002CB8, symSize: 0x34 }
  - { offsetInCU: 0x6CD9A, offset: 0x6CD9A, size: 0x8, addend: 0x0, symName: __ZNSt18_Rb_tree_node_base10_S_minimumEPS_, symObjAddr: 0xD40, symBinAddr: 0x100002C84, symSize: 0x34 }
  - { offsetInCU: 0x6CDC3, offset: 0x6CDC3, size: 0x8, addend: 0x0, symName: __ZSt8isfinited, symObjAddr: 0xD00, symBinAddr: 0x100002C44, symSize: 0x40 }
  - { offsetInCU: 0x6CDEE, offset: 0x6CDEE, size: 0x8, addend: 0x0, symName: __ZNSt14numeric_limitsIlE3minEv, symObjAddr: 0xCF8, symBinAddr: 0x100002C3C, symSize: 0x8 }
  - { offsetInCU: 0x6CE09, offset: 0x6CE09, size: 0x8, addend: 0x0, symName: __ZNSt19_Bit_const_iteratorppEv, symObjAddr: 0xCD8, symBinAddr: 0x100002C1C, symSize: 0x20 }
  - { offsetInCU: 0x6CE33, offset: 0x6CE33, size: 0x8, addend: 0x0, symName: __ZNKSt19_Bit_const_iteratordeEv, symObjAddr: 0xC6C, symBinAddr: 0x100002BB0, symSize: 0x6C }
  - { offsetInCU: 0x6CEDF, offset: 0x6CEDF, size: 0x8, addend: 0x0, symName: __ZNSt19_Bit_const_iteratorC1ERKSt13_Bit_iterator, symObjAddr: 0xC30, symBinAddr: 0x100002B74, symSize: 0x3C }
  - { offsetInCU: 0x6CF34, offset: 0x6CF34, size: 0x8, addend: 0x0, symName: __ZNSt19_Bit_const_iteratorC1EPmj, symObjAddr: 0xC00, symBinAddr: 0x100002B44, symSize: 0x30 }
  - { offsetInCU: 0x6CF51, offset: 0x6CF51, size: 0x8, addend: 0x0, symName: __ZStmiRKSt13_Bit_iteratorl, symObjAddr: 0xBA8, symBinAddr: 0x100002AEC, symSize: 0x58 }
  - { offsetInCU: 0x6CF9D, offset: 0x6CF9D, size: 0x8, addend: 0x0, symName: __ZStplRKSt13_Bit_iteratorl, symObjAddr: 0xB50, symBinAddr: 0x100002A94, symSize: 0x58 }
  - { offsetInCU: 0x6CFED, offset: 0x6CFED, size: 0x8, addend: 0x0, symName: __ZNSt13_Bit_iteratormIEl, symObjAddr: 0xB20, symBinAddr: 0x100002A64, symSize: 0x30 }
  - { offsetInCU: 0x6D028, offset: 0x6D028, size: 0x8, addend: 0x0, symName: __ZNSt13_Bit_iteratorpLEl, symObjAddr: 0xAF8, symBinAddr: 0x100002A3C, symSize: 0x28 }
  - { offsetInCU: 0x6D063, offset: 0x6D063, size: 0x8, addend: 0x0, symName: __ZNSt13_Bit_iteratormmEv, symObjAddr: 0xAD8, symBinAddr: 0x100002A1C, symSize: 0x20 }
  - { offsetInCU: 0x6D08D, offset: 0x6D08D, size: 0x8, addend: 0x0, symName: __ZNSt13_Bit_iteratorppEi, symObjAddr: 0xA84, symBinAddr: 0x1000029C8, symSize: 0x54 }
  - { offsetInCU: 0x6D0D1, offset: 0x6D0D1, size: 0x8, addend: 0x0, symName: __ZNSt13_Bit_iteratorppEv, symObjAddr: 0xA64, symBinAddr: 0x1000029A8, symSize: 0x20 }
  - { offsetInCU: 0x6D0FB, offset: 0x6D0FB, size: 0x8, addend: 0x0, symName: __ZNKSt13_Bit_iteratordeEv, symObjAddr: 0x9FC, symBinAddr: 0x100002940, symSize: 0x68 }
  - { offsetInCU: 0x6D19F, offset: 0x6D19F, size: 0x8, addend: 0x0, symName: __ZNSt13_Bit_iteratorC1EPmj, symObjAddr: 0x9CC, symBinAddr: 0x100002910, symSize: 0x30 }
  - { offsetInCU: 0x6D1EF, offset: 0x6D1EF, size: 0x8, addend: 0x0, symName: __ZNSt13_Bit_iteratorC1Ev, symObjAddr: 0x9A4, symBinAddr: 0x1000028E8, symSize: 0x28 }
  - { offsetInCU: 0x6D202, offset: 0x6D202, size: 0x8, addend: 0x0, symName: __ZStmiRKSt18_Bit_iterator_baseS1_, symObjAddr: 0x908, symBinAddr: 0x10000284C, symSize: 0x9C }
  - { offsetInCU: 0x6D297, offset: 0x6D297, size: 0x8, addend: 0x0, symName: __ZSteqRKSt18_Bit_iterator_baseS1_, symObjAddr: 0x868, symBinAddr: 0x1000027AC, symSize: 0xA0 }
  - { offsetInCU: 0x6D32C, offset: 0x6D32C, size: 0x8, addend: 0x0, symName: __ZNSt18_Bit_iterator_base7_M_incrEl, symObjAddr: 0x790, symBinAddr: 0x1000026D4, symSize: 0xD8 }
  - { offsetInCU: 0x6D3A2, offset: 0x6D3A2, size: 0x8, addend: 0x0, symName: __ZNSt18_Bit_iterator_base12_M_bump_downEv, symObjAddr: 0x708, symBinAddr: 0x10000264C, symSize: 0x88 }
  - { offsetInCU: 0x6D3F8, offset: 0x6D3F8, size: 0x8, addend: 0x0, symName: __ZNSt18_Bit_iterator_base10_M_bump_upEv, symObjAddr: 0x684, symBinAddr: 0x1000025C8, symSize: 0x84 }
  - { offsetInCU: 0x6D49E, offset: 0x6D49E, size: 0x8, addend: 0x0, symName: __ZNSt18_Bit_iterator_baseC2EPmj, symObjAddr: 0x650, symBinAddr: 0x100002594, symSize: 0x34 }
  - { offsetInCU: 0x6D4DD, offset: 0x6D4DD, size: 0x8, addend: 0x0, symName: __ZNSt14_Bit_referenceaSERKS_, symObjAddr: 0x624, symBinAddr: 0x100002568, symSize: 0x2C }
  - { offsetInCU: 0x6D517, offset: 0x6D517, size: 0x8, addend: 0x0, symName: __ZNSt14_Bit_referenceaSEb, symObjAddr: 0x5A8, symBinAddr: 0x1000024EC, symSize: 0x7C }
  - { offsetInCU: 0x6D551, offset: 0x6D551, size: 0x8, addend: 0x0, symName: __ZNKSt14_Bit_referencecvbEv, symObjAddr: 0x574, symBinAddr: 0x1000024B8, symSize: 0x34 }
  - { offsetInCU: 0x6D5C7, offset: 0x6D5C7, size: 0x8, addend: 0x0, symName: __ZNSt14_Bit_referenceC1EPmm, symObjAddr: 0x540, symBinAddr: 0x100002484, symSize: 0x34 }
  - { offsetInCU: 0x6D5E3, offset: 0x6D5E3, size: 0x8, addend: 0x0, symName: __ZSt3minImERKT_S2_S2_, symObjAddr: 0x508, symBinAddr: 0x10000244C, symSize: 0x38 }
  - { offsetInCU: 0x6D629, offset: 0x6D629, size: 0x8, addend: 0x0, symName: __ZNKSt14_Function_base8_M_emptyEv, symObjAddr: 0x4E4, symBinAddr: 0x100002428, symSize: 0x24 }
  - { offsetInCU: 0x6D68D, offset: 0x6D68D, size: 0x8, addend: 0x0, symName: __ZNSt14_Function_baseD2Ev, symObjAddr: 0x4A4, symBinAddr: 0x1000023E8, symSize: 0x40 }
  - { offsetInCU: 0x6D699, offset: 0x6D699, size: 0x8, addend: 0x0, symName: __ZNSt7__cxx119to_stringEm, symObjAddr: 0x438, symBinAddr: 0x10000237C, symSize: 0x6C }
  - { offsetInCU: 0x6D746, offset: 0x6D746, size: 0x8, addend: 0x0, symName: __ZZNSt7__cxx119to_stringEmENKUlPcmE_clES0_m, symObjAddr: 0x3FC, symBinAddr: 0x100002340, symSize: 0x3C }
  - { offsetInCU: 0x6D77F, offset: 0x6D77F, size: 0x8, addend: 0x0, symName: __ZNSt8__detail14__to_chars_lenImEEjT_i, symObjAddr: 0x320, symBinAddr: 0x100002264, symSize: 0xDC }
  - { offsetInCU: 0x6D801, offset: 0x6D801, size: 0x8, addend: 0x0, symName: __ZNSt8__detail14__to_chars_lenIjEEjT_i, symObjAddr: 0x248, symBinAddr: 0x10000218C, symSize: 0xD8 }
  - { offsetInCU: 0x6D883, offset: 0x6D883, size: 0x8, addend: 0x0, symName: __ZNSt7__cxx119to_stringEi, symObjAddr: 0x19C, symBinAddr: 0x1000020E0, symSize: 0xAC }
  - { offsetInCU: 0x6D944, offset: 0x6D944, size: 0x8, addend: 0x0, symName: __ZZNSt7__cxx119to_stringEiENKUlPcmE_clES0_m, symObjAddr: 0x140, symBinAddr: 0x100002084, symSize: 0x5C }
  - { offsetInCU: 0x6D9C8, offset: 0x6D9C8, size: 0x8, addend: 0x0, symName: __ZNSt11char_traitsIcE3eofEv, symObjAddr: 0x138, symBinAddr: 0x10000207C, symSize: 0x8 }
  - { offsetInCU: 0x6D9DF, offset: 0x6D9DF, size: 0x8, addend: 0x0, symName: __ZNSt11char_traitsIcE11eq_int_typeERKiS2_, symObjAddr: 0x108, symBinAddr: 0x10000204C, symSize: 0x30 }
  - { offsetInCU: 0x6DA1A, offset: 0x6DA1A, size: 0x8, addend: 0x0, symName: __ZNSt11char_traitsIcE11to_int_typeERKc, symObjAddr: 0xEC, symBinAddr: 0x100002030, symSize: 0x1C }
  - { offsetInCU: 0x6DA44, offset: 0x6DA44, size: 0x8, addend: 0x0, symName: __ZNSt11char_traitsIcE12to_char_typeERKi, symObjAddr: 0xD0, symBinAddr: 0x100002014, symSize: 0x1C }
  - { offsetInCU: 0x6DA6E, offset: 0x6DA6E, size: 0x8, addend: 0x0, symName: __ZNSt11char_traitsIcE6lengthEPKc, symObjAddr: 0x94, symBinAddr: 0x100001FD8, symSize: 0x3C }
  - { offsetInCU: 0x6DAB2, offset: 0x6DAB2, size: 0x8, addend: 0x0, symName: __ZNSt11char_traitsIcE6assignERcRKc, symObjAddr: 0x6C, symBinAddr: 0x100001FB0, symSize: 0x28 }
  - { offsetInCU: 0x6DAFA, offset: 0x6DAFA, size: 0x8, addend: 0x0, symName: __ZdlPvS_, symObjAddr: 0x54, symBinAddr: 0x100001F98, symSize: 0x18 }
  - { offsetInCU: 0x6DB2F, offset: 0x6DB2F, size: 0x8, addend: 0x0, symName: __ZnwmPv, symObjAddr: 0x3C, symBinAddr: 0x100001F80, symSize: 0x18 }
  - { offsetInCU: 0x6DB8A, offset: 0x6DB8A, size: 0x8, addend: 0x0, symName: __ZNSt9exceptionC2Ev, symObjAddr: 0x14, symBinAddr: 0x100001F58, symSize: 0x28 }
  - { offsetInCU: 0x6DB9C, offset: 0x6DB9C, size: 0x8, addend: 0x0, symName: __ZSt17__size_to_integerm, symObjAddr: 0x0, symBinAddr: 0x100001F44, symSize: 0x14 }
...
